ARM GAS  C:\Users\Jason\AppData\Local\Temp\ccVnieh8.s 			page 1


   1              		.syntax unified
   2              		.cpu cortex-m0
   3              		.fpu softvfp
   4              		.eabi_attribute 20, 1
   5              		.eabi_attribute 21, 1
   6              		.eabi_attribute 23, 3
   7              		.eabi_attribute 24, 1
   8              		.eabi_attribute 25, 1
   9              		.eabi_attribute 26, 1
  10              		.eabi_attribute 30, 6
  11              		.eabi_attribute 34, 0
  12              		.eabi_attribute 18, 4
  13              		.thumb
  14              		.syntax unified
  15              		.file	"BLEApplications.c"
  16              		.text
  17              	.Ltext0:
  18              		.cfi_sections	.debug_frame
  19              		.global	deviceConnected
  20              		.bss
  21              		.type	deviceConnected, %object
  22              		.size	deviceConnected, 1
  23              	deviceConnected:
  24 0000 00       		.space	1
  25              		.global	startNotification
  26              		.type	startNotification, %object
  27              		.size	startNotification, 1
  28              	startNotification:
  29 0001 00       		.space	1
  30              		.comm	connectionHandle,2,4
  31              		.global	restartAdvertisement
  32              		.type	restartAdvertisement, %object
  33              		.size	restartAdvertisement, 1
  34              	restartAdvertisement:
  35 0002 00       		.space	1
  36              		.global	updateNotificationCCCAttribute
  37              		.type	updateNotificationCCCAttribute, %object
  38              		.size	updateNotificationCCCAttribute, 1
  39              	updateNotificationCCCAttribute:
  40 0003 00       		.space	1
  41              		.global	busyStatus
  42              		.type	busyStatus, %object
  43              		.size	busyStatus, 1
  44              	busyStatus:
  45 0004 00       		.space	1
  46              		.section	.text.CustomEventHandler,"ax",%progbits
  47              		.align	2
  48              		.global	CustomEventHandler
  49              		.code	16
  50              		.thumb_func
  51              		.type	CustomEventHandler, %function
  52              	CustomEventHandler:
  53              	.LFB35:
  54              		.file 1 "BLEApplications.c"
   1:BLEApplications.c **** /******************************************************************************
   2:BLEApplications.c **** * Project Name		: PSoC_4_BLE_CapSense_Proximity
   3:BLEApplications.c **** * File Name			: BLEApplications.c
ARM GAS  C:\Users\Jason\AppData\Local\Temp\ccVnieh8.s 			page 2


   4:BLEApplications.c **** * Version 			: 1.0
   5:BLEApplications.c **** * Device Used		: CY8C4247LQI-BL583
   6:BLEApplications.c **** * Software Used		: PSoC Creator 4.2
   7:BLEApplications.c **** * Compiler    		: ARM GCC 4.8.4, ARM RVDS Generic, ARM MDK Generic
   8:BLEApplications.c **** * Related Hardware	: CY8CKIT-042-BLE-A Bluetooth Low Energy Pioneer Kit 
   9:BLEApplications.c **** * Owner				: ROIT
  10:BLEApplications.c **** *
  11:BLEApplications.c **** ********************************************************************************
  12:BLEApplications.c **** * Copyright (2014), Cypress Semiconductor Corporation. All Rights Reserved.
  13:BLEApplications.c **** ********************************************************************************
  14:BLEApplications.c **** * This software is owned by Cypress Semiconductor Corporation (Cypress)
  15:BLEApplications.c **** * and is protected by and subject to worldwide patent protection (United
  16:BLEApplications.c **** * States and foreign), United States copyright laws and international treaty
  17:BLEApplications.c **** * provisions. Cypress hereby grants to licensee a personal, non-exclusive,
  18:BLEApplications.c **** * non-transferable license to copy, use, modify, create derivative works of,
  19:BLEApplications.c **** * and compile the Cypress Source Code and derivative works for the sole
  20:BLEApplications.c **** * purpose of creating custom software in support of licensee product to be
  21:BLEApplications.c **** * used only in conjunction with a Cypress integrated circuit as specified in
  22:BLEApplications.c **** * the applicable agreement. Any reproduction, modification, translation,
  23:BLEApplications.c **** * compilation, or representation of this software except as specified above 
  24:BLEApplications.c **** * is prohibited without the express written permission of Cypress.
  25:BLEApplications.c **** *
  26:BLEApplications.c **** * Disclaimer: CYPRESS MAKES NO WARRANTY OF ANY KIND, EXPRESS OR IMPLIED, WITH 
  27:BLEApplications.c **** * REGARD TO THIS MATERIAL, INCLUDING, BUT NOT LIMITED TO, THE IMPLIED 
  28:BLEApplications.c **** * WARRANTIES OF MERCHANTABILITY AND FITNESS FOR A PARTICULAR PURPOSE.
  29:BLEApplications.c **** * Cypress reserves the right to make changes without further notice to the 
  30:BLEApplications.c **** * materials described herein. Cypress does not assume any liability arising out 
  31:BLEApplications.c **** * of the application or use of any product or circuit described herein. Cypress 
  32:BLEApplications.c **** * does not authorize its products for use as critical components in life-support 
  33:BLEApplications.c **** * systems where a malfunction or failure may reasonably be expected to result in 
  34:BLEApplications.c **** * significant injury to the user. The inclusion of Cypress' product in a life-
  35:BLEApplications.c **** * support systems application implies that the manufacturer assumes all risk of 
  36:BLEApplications.c **** * such use and in doing so indemnifies Cypress against all charges. 
  37:BLEApplications.c **** *
  38:BLEApplications.c **** * Use of this Software may be limited by and subject to the applicable Cypress
  39:BLEApplications.c **** * software license agreement. 
  40:BLEApplications.c **** *******************************************************************************/
  41:BLEApplications.c **** 
  42:BLEApplications.c **** /******************************************************************************
  43:BLEApplications.c **** * Contains BLE application functions definitions such as EventHandler and Macro
  44:BLEApplications.c **** * definitions
  45:BLEApplications.c **** ******************************************************************************/
  46:BLEApplications.c **** #include "main.h"
  47:BLEApplications.c **** 
  48:BLEApplications.c **** /**************************Variable Declarations*****************************/
  49:BLEApplications.c **** /*'deviceConnected' flag is used by application to know whether a Central device  
  50:BLEApplications.c **** * has been connected. This is updated in BLE event callback */
  51:BLEApplications.c **** uint8 deviceConnected = FALSE;	
  52:BLEApplications.c **** 
  53:BLEApplications.c **** /*'startNotification' flag is set when the central device writes to CCC (Client 
  54:BLEApplications.c **** * Characteristic Configuration) of the CapSense proximity characteristic to 
  55:BLEApplications.c **** *enable notifications */
  56:BLEApplications.c **** uint8 startNotification = FALSE;		
  57:BLEApplications.c **** 
  58:BLEApplications.c **** /* 'connectionHandle' is handle to store BLE connection parameters */
  59:BLEApplications.c **** CYBLE_CONN_HANDLE_T  				connectionHandle;	
  60:BLEApplications.c **** 
ARM GAS  C:\Users\Jason\AppData\Local\Temp\ccVnieh8.s 			page 3


  61:BLEApplications.c **** /* 'restartAdvertisement' flag provided the present state of power mode in firmware */
  62:BLEApplications.c **** uint8 restartAdvertisement = FALSE;
  63:BLEApplications.c **** 
  64:BLEApplications.c **** /* This flag is used to let application update the CCCD value for correct read 
  65:BLEApplications.c **** * operation by connected Central device */
  66:BLEApplications.c **** uint8 updateNotificationCCCAttribute = FALSE;
  67:BLEApplications.c **** 
  68:BLEApplications.c **** /* Status flag for the Stack Busy state. This flag is used to notify the application 
  69:BLEApplications.c **** * whether there is stack buffer free to push more data or not */
  70:BLEApplications.c **** uint8 busyStatus = 0;
  71:BLEApplications.c **** /****************************************************************************/
  72:BLEApplications.c **** 
  73:BLEApplications.c **** /*******************************************************************************
  74:BLEApplications.c **** * Function Name: CustomEventHandler
  75:BLEApplications.c **** ********************************************************************************
  76:BLEApplications.c **** * Summary:
  77:BLEApplications.c **** *        Call back event function to handle various events from BLE stack
  78:BLEApplications.c **** *
  79:BLEApplications.c **** * Parameters:
  80:BLEApplications.c **** *  event:		event returned
  81:BLEApplications.c **** *  eventParam:	link to value of the event parameter returned
  82:BLEApplications.c **** *
  83:BLEApplications.c **** * Return:
  84:BLEApplications.c **** *  void
  85:BLEApplications.c **** *
  86:BLEApplications.c **** *******************************************************************************/
  87:BLEApplications.c **** void CustomEventHandler(uint32 event, void *eventParam)
  88:BLEApplications.c **** {
  55              		.loc 1 88 0
  56              		.cfi_startproc
  57              		@ args = 0, pretend = 0, frame = 16
  58              		@ frame_needed = 1, uses_anonymous_args = 0
  59 0000 80B5     		push	{r7, lr}
  60              		.cfi_def_cfa_offset 8
  61              		.cfi_offset 7, -8
  62              		.cfi_offset 14, -4
  63 0002 84B0     		sub	sp, sp, #16
  64              		.cfi_def_cfa_offset 24
  65 0004 00AF     		add	r7, sp, #0
  66              		.cfi_def_cfa_register 7
  67 0006 7860     		str	r0, [r7, #4]
  68 0008 3960     		str	r1, [r7]
  89:BLEApplications.c ****     CYBLE_GATTS_WRITE_REQ_PARAM_T *wrReqParam;
  90:BLEApplications.c **** 	
  91:BLEApplications.c ****     switch(event)
  69              		.loc 1 91 0
  70 000a 7B68     		ldr	r3, [r7, #4]
  71 000c 4C2B     		cmp	r3, #76
  72 000e 53D8     		bhi	.L16
  73 0010 7B68     		ldr	r3, [r7, #4]
  74 0012 9A00     		lsls	r2, r3, #2
  75 0014 2C4B     		ldr	r3, .L18
  76 0016 D318     		adds	r3, r2, r3
  77 0018 1B68     		ldr	r3, [r3]
  78 001a 9F46     		mov	pc, r3
  79              		.section	.rodata
  80              		.align	2
ARM GAS  C:\Users\Jason\AppData\Local\Temp\ccVnieh8.s 			page 4


  81              	.L4:
  82 0000 B8000000 		.word	.L16
  83 0004 1C000000 		.word	.L3
  84 0008 24000000 		.word	.L5
  85 000c B8000000 		.word	.L16
  86 0010 B8000000 		.word	.L16
  87 0014 AE000000 		.word	.L6
  88 0018 B8000000 		.word	.L16
  89 001c B8000000 		.word	.L16
  90 0020 B8000000 		.word	.L16
  91 0024 B8000000 		.word	.L16
  92 0028 B8000000 		.word	.L16
  93 002c B8000000 		.word	.L16
  94 0030 B8000000 		.word	.L16
  95 0034 B8000000 		.word	.L16
  96 0038 B8000000 		.word	.L16
  97 003c B8000000 		.word	.L16
  98 0040 B8000000 		.word	.L16
  99 0044 B8000000 		.word	.L16
 100 0048 B8000000 		.word	.L16
 101 004c B8000000 		.word	.L16
 102 0050 B8000000 		.word	.L16
 103 0054 B8000000 		.word	.L16
 104 0058 B8000000 		.word	.L16
 105 005c B8000000 		.word	.L16
 106 0060 B8000000 		.word	.L16
 107 0064 B8000000 		.word	.L16
 108 0068 B8000000 		.word	.L16
 109 006c B8000000 		.word	.L16
 110 0070 B8000000 		.word	.L16
 111 0074 B8000000 		.word	.L16
 112 0078 B8000000 		.word	.L16
 113 007c B8000000 		.word	.L16
 114 0080 B8000000 		.word	.L16
 115 0084 B8000000 		.word	.L16
 116 0088 B8000000 		.word	.L16
 117 008c B8000000 		.word	.L16
 118 0090 B8000000 		.word	.L16
 119 0094 B8000000 		.word	.L16
 120 0098 2C000000 		.word	.L7
 121 009c B8000000 		.word	.L16
 122 00a0 3C000000 		.word	.L9
 123 00a4 B8000000 		.word	.L16
 124 00a8 B8000000 		.word	.L16
 125 00ac B8000000 		.word	.L16
 126 00b0 B8000000 		.word	.L16
 127 00b4 B8000000 		.word	.L16
 128 00b8 B8000000 		.word	.L16
 129 00bc B8000000 		.word	.L16
 130 00c0 B8000000 		.word	.L16
 131 00c4 B8000000 		.word	.L16
 132 00c8 B8000000 		.word	.L16
 133 00cc B8000000 		.word	.L16
 134 00d0 B8000000 		.word	.L16
 135 00d4 B8000000 		.word	.L16
 136 00d8 B8000000 		.word	.L16
 137 00dc B8000000 		.word	.L16
ARM GAS  C:\Users\Jason\AppData\Local\Temp\ccVnieh8.s 			page 5


 138 00e0 B8000000 		.word	.L16
 139 00e4 B8000000 		.word	.L16
 140 00e8 B8000000 		.word	.L16
 141 00ec B8000000 		.word	.L16
 142 00f0 B8000000 		.word	.L16
 143 00f4 B8000000 		.word	.L16
 144 00f8 B8000000 		.word	.L16
 145 00fc B8000000 		.word	.L16
 146 0100 B8000000 		.word	.L16
 147 0104 44000000 		.word	.L10
 148 0108 5C000000 		.word	.L11
 149 010c B8000000 		.word	.L16
 150 0110 B8000000 		.word	.L16
 151 0114 B8000000 		.word	.L16
 152 0118 B8000000 		.word	.L16
 153 011c B8000000 		.word	.L16
 154 0120 B8000000 		.word	.L16
 155 0124 B8000000 		.word	.L16
 156 0128 B8000000 		.word	.L16
 157 012c B8000000 		.word	.L16
 158 0130 74000000 		.word	.L12
 159              		.section	.text.CustomEventHandler
 160              	.L3:
  92:BLEApplications.c **** 	{
  93:BLEApplications.c ****         /**********************************************************
  94:BLEApplications.c ****         *                       General Events
  95:BLEApplications.c ****         ***********************************************************/
  96:BLEApplications.c **** 		case CYBLE_EVT_STACK_ON:
  97:BLEApplications.c **** 			/* This event is received when component is Started */
  98:BLEApplications.c **** 			
  99:BLEApplications.c **** 			/* Set restartAdvertisement flag to allow calling Advertisement 
 100:BLEApplications.c **** 			* API from main function */
 101:BLEApplications.c **** 			restartAdvertisement = TRUE;
 161              		.loc 1 101 0
 162 001c 2B4B     		ldr	r3, .L18+4
 163 001e 0122     		movs	r2, #1
 164 0020 1A70     		strb	r2, [r3]
 102:BLEApplications.c **** 			
 103:BLEApplications.c **** 			break;
 165              		.loc 1 103 0
 166 0022 4CE0     		b	.L13
 167              	.L5:
 104:BLEApplications.c **** 		
 105:BLEApplications.c **** 		case CYBLE_EVT_TIMEOUT:
 106:BLEApplications.c **** 			/* Event Handling for Timeout  */
 107:BLEApplications.c **** 		    restartAdvertisement = TRUE;
 168              		.loc 1 107 0
 169 0024 294B     		ldr	r3, .L18+4
 170 0026 0122     		movs	r2, #1
 171 0028 1A70     		strb	r2, [r3]
 108:BLEApplications.c **** 			break;
 172              		.loc 1 108 0
 173 002a 48E0     		b	.L13
 174              	.L7:
 109:BLEApplications.c **** 			
 110:BLEApplications.c ****         /**********************************************************
 111:BLEApplications.c ****         *                       GAP Events
ARM GAS  C:\Users\Jason\AppData\Local\Temp\ccVnieh8.s 			page 6


 112:BLEApplications.c ****         ***********************************************************/
 113:BLEApplications.c **** 		
 114:BLEApplications.c ****         case CYBLE_EVT_GAPP_ADVERTISEMENT_START_STOP:
 115:BLEApplications.c **** 			
 116:BLEApplications.c **** 			if(CyBle_GetState() == CYBLE_STATE_DISCONNECTED)
 175              		.loc 1 116 0
 176 002c 284B     		ldr	r3, .L18+8
 177 002e 1B78     		ldrb	r3, [r3]
 178 0030 042B     		cmp	r3, #4
 179 0032 43D1     		bne	.L17
 117:BLEApplications.c **** 			{
 118:BLEApplications.c **** 				/* Set restartAdvertisement flag to allow calling Advertisement 
 119:BLEApplications.c **** 				* API from main function */
 120:BLEApplications.c **** 				restartAdvertisement = TRUE;
 180              		.loc 1 120 0
 181 0034 254B     		ldr	r3, .L18+4
 182 0036 0122     		movs	r2, #1
 183 0038 1A70     		strb	r2, [r3]
 121:BLEApplications.c **** 			}
 122:BLEApplications.c **** 			break;
 184              		.loc 1 122 0
 185 003a 3FE0     		b	.L17
 186              	.L9:
 123:BLEApplications.c **** 			
 124:BLEApplications.c **** 		case CYBLE_EVT_GAP_DEVICE_CONNECTED:		
 125:BLEApplications.c **** 			/* This event is received when device is connected over GAP layer */
 126:BLEApplications.c **** 
 127:BLEApplications.c **** 			break;
 128:BLEApplications.c **** 			
 129:BLEApplications.c ****         case CYBLE_EVT_GAP_DEVICE_DISCONNECTED:		
 130:BLEApplications.c **** 			/* This event is received when device is disconnected */
 131:BLEApplications.c **** 			
 132:BLEApplications.c **** 			/* Set restartAdvertisement flag to allow calling Advertisement 
 133:BLEApplications.c **** 			* API from main function */
 134:BLEApplications.c **** 			restartAdvertisement = TRUE;
 187              		.loc 1 134 0
 188 003c 234B     		ldr	r3, .L18+4
 189 003e 0122     		movs	r2, #1
 190 0040 1A70     		strb	r2, [r3]
 135:BLEApplications.c **** 
 136:BLEApplications.c ****             break;
 191              		.loc 1 136 0
 192 0042 3CE0     		b	.L13
 193              	.L10:
 137:BLEApplications.c **** 
 138:BLEApplications.c ****         /**********************************************************
 139:BLEApplications.c ****         *                       GATT Events
 140:BLEApplications.c ****         ***********************************************************/
 141:BLEApplications.c ****         case CYBLE_EVT_GATT_CONNECT_IND:
 142:BLEApplications.c **** 			/* This event is received when device is connected over GATT level */
 143:BLEApplications.c **** 			
 144:BLEApplications.c **** 			/* Update attribute handle on GATT Connection*/
 145:BLEApplications.c ****             connectionHandle = *(CYBLE_CONN_HANDLE_T *)eventParam;	
 194              		.loc 1 145 0
 195 0044 234A     		ldr	r2, .L18+12
 196 0046 3B68     		ldr	r3, [r7]
 197 0048 1000     		movs	r0, r2
ARM GAS  C:\Users\Jason\AppData\Local\Temp\ccVnieh8.s 			page 7


 198 004a 1900     		movs	r1, r3
 199 004c 0223     		movs	r3, #2
 200 004e 1A00     		movs	r2, r3
 201 0050 FFF7FEFF 		bl	memcpy
 146:BLEApplications.c **** 			
 147:BLEApplications.c **** 			/* This flag is used in application to check connection status */
 148:BLEApplications.c **** 			deviceConnected = TRUE;	
 202              		.loc 1 148 0
 203 0054 204B     		ldr	r3, .L18+16
 204 0056 0122     		movs	r2, #1
 205 0058 1A70     		strb	r2, [r3]
 149:BLEApplications.c **** 	
 150:BLEApplications.c ****             break;
 206              		.loc 1 150 0
 207 005a 30E0     		b	.L13
 208              	.L11:
 151:BLEApplications.c **** 			
 152:BLEApplications.c ****         case CYBLE_EVT_GATT_DISCONNECT_IND:	
 153:BLEApplications.c **** 			/*This event is received when device is disconnected. 
 154:BLEApplications.c **** 			* Update connection flag accordingly */
 155:BLEApplications.c **** 			deviceConnected = FALSE;
 209              		.loc 1 155 0
 210 005c 1E4B     		ldr	r3, .L18+16
 211 005e 0022     		movs	r2, #0
 212 0060 1A70     		strb	r2, [r3]
 156:BLEApplications.c **** 			
 157:BLEApplications.c **** 			/* Reset notification flag to prevent further notifications
 158:BLEApplications.c **** 			 * being sent to Central device after next connection. */
 159:BLEApplications.c **** 			startNotification = FALSE;
 213              		.loc 1 159 0
 214 0062 1E4B     		ldr	r3, .L18+20
 215 0064 0022     		movs	r2, #0
 216 0066 1A70     		strb	r2, [r3]
 160:BLEApplications.c **** 			
 161:BLEApplications.c **** 			/* Reset the CCCD value to disable notifications */
 162:BLEApplications.c **** 			updateNotificationCCCAttribute = TRUE;
 217              		.loc 1 162 0
 218 0068 1D4B     		ldr	r3, .L18+24
 219 006a 0122     		movs	r2, #1
 220 006c 1A70     		strb	r2, [r3]
 163:BLEApplications.c **** 			UpdateNotificationCCCD();
 221              		.loc 1 163 0
 222 006e FFF7FEFF 		bl	UpdateNotificationCCCD
 164:BLEApplications.c **** 			
 165:BLEApplications.c **** 			break;    
 223              		.loc 1 165 0
 224 0072 24E0     		b	.L13
 225              	.L12:
 166:BLEApplications.c ****             
 167:BLEApplications.c ****         case CYBLE_EVT_GATTS_WRITE_REQ:				
 168:BLEApplications.c **** 			/*When this event is triggered, the peripheral has received 
 169:BLEApplications.c **** 			* a write command on the custom characteristic */
 170:BLEApplications.c **** 			
 171:BLEApplications.c **** 			/* Extract the write value from the event parameter */
 172:BLEApplications.c ****             wrReqParam = (CYBLE_GATTS_WRITE_REQ_PARAM_T *) eventParam;
 226              		.loc 1 172 0
 227 0074 3B68     		ldr	r3, [r7]
ARM GAS  C:\Users\Jason\AppData\Local\Temp\ccVnieh8.s 			page 8


 228 0076 FB60     		str	r3, [r7, #12]
 173:BLEApplications.c **** 			
 174:BLEApplications.c **** 			/* Check if the returned handle is matching to CapSense proximity Client custom configuration*/
 175:BLEApplications.c ****             if(CYBLE_CAPSENSE_CAPSENSE_PROXIMITY_CLIENT_CHARACTERISTIC_CONFIGURATION_DESC_HANDLE ==
 229              		.loc 1 175 0
 230 0078 FB68     		ldr	r3, [r7, #12]
 231 007a 9B89     		ldrh	r3, [r3, #12]
 232 007c 0F2B     		cmp	r3, #15
 233 007e 07D1     		bne	.L15
 176:BLEApplications.c ****             {
 177:BLEApplications.c ****                 /* Set flag so that application can start  sending notifications.*/
 178:BLEApplications.c **** 				startNotification = wrReqParam->handleValPair.value.val[CYBLE_CAPSENSE_CAPSENSE_PROXIMITY_CLIEN
 234              		.loc 1 178 0
 235 0080 FB68     		ldr	r3, [r7, #12]
 236 0082 5B68     		ldr	r3, [r3, #4]
 237 0084 1A78     		ldrb	r2, [r3]
 238 0086 154B     		ldr	r3, .L18+20
 239 0088 1A70     		strb	r2, [r3]
 179:BLEApplications.c **** 				
 180:BLEApplications.c **** 				/* Set flag to allow CCCD to be updated for next read operation */
 181:BLEApplications.c **** 				updateNotificationCCCAttribute = TRUE;
 240              		.loc 1 181 0
 241 008a 154B     		ldr	r3, .L18+24
 242 008c 0122     		movs	r2, #1
 243 008e 1A70     		strb	r2, [r3]
 244              	.L15:
 182:BLEApplications.c **** 			}
 183:BLEApplications.c ****             
 184:BLEApplications.c **** 			/* Send the response to the write command received. */
 185:BLEApplications.c **** 			CyBle_GattsWriteRsp(connectionHandle);
 245              		.loc 1 185 0
 246 0090 104B     		ldr	r3, .L18+12
 247 0092 1A78     		ldrb	r2, [r3]
 248 0094 5B78     		ldrb	r3, [r3, #1]
 249 0096 1B02     		lsls	r3, r3, #8
 250 0098 1A43     		orrs	r2, r3
 251 009a 0023     		movs	r3, #0
 252 009c 1204     		lsls	r2, r2, #16
 253 009e 120C     		lsrs	r2, r2, #16
 254 00a0 1B0C     		lsrs	r3, r3, #16
 255 00a2 1B04     		lsls	r3, r3, #16
 256 00a4 1343     		orrs	r3, r2
 257 00a6 1800     		movs	r0, r3
 258 00a8 FFF7FEFF 		bl	CyBle_GattsWriteRsp
 186:BLEApplications.c **** 			
 187:BLEApplications.c ****             break;
 259              		.loc 1 187 0
 260 00ac 07E0     		b	.L13
 261              	.L6:
 188:BLEApplications.c **** 			
 189:BLEApplications.c **** 		case CYBLE_EVT_STACK_BUSY_STATUS:
 190:BLEApplications.c **** 			/* This event is generated when the internal stack buffer is full and no more
 191:BLEApplications.c **** 			* data can be accepted or the stack has buffer available and can accept data.
 192:BLEApplications.c **** 			* This event is used by application to prevent pushing lot of data to stack. */
 193:BLEApplications.c **** 			
 194:BLEApplications.c **** 			/* Extract the present stack status */
 195:BLEApplications.c ****             busyStatus = * (uint8*)eventParam;
ARM GAS  C:\Users\Jason\AppData\Local\Temp\ccVnieh8.s 			page 9


 262              		.loc 1 195 0
 263 00ae 3B68     		ldr	r3, [r7]
 264 00b0 1A78     		ldrb	r2, [r3]
 265 00b2 0C4B     		ldr	r3, .L18+28
 266 00b4 1A70     		strb	r2, [r3]
 196:BLEApplications.c ****             break;
 267              		.loc 1 196 0
 268 00b6 02E0     		b	.L13
 269              	.L16:
 197:BLEApplications.c **** 			
 198:BLEApplications.c ****         default:
 199:BLEApplications.c ****                         
 200:BLEApplications.c ****             break;
 270              		.loc 1 200 0
 271 00b8 C046     		nop
 272 00ba 00E0     		b	.L13
 273              	.L17:
 122:BLEApplications.c **** 			
 274              		.loc 1 122 0
 275 00bc C046     		nop
 276              	.L13:
 201:BLEApplications.c **** 	} /* switch(event)*/
 202:BLEApplications.c **** }
 277              		.loc 1 202 0
 278 00be C046     		nop
 279 00c0 BD46     		mov	sp, r7
 280 00c2 04B0     		add	sp, sp, #16
 281              		@ sp needed
 282 00c4 80BD     		pop	{r7, pc}
 283              	.L19:
 284 00c6 C046     		.align	2
 285              	.L18:
 286 00c8 00000000 		.word	.L4
 287 00cc 00000000 		.word	restartAdvertisement
 288 00d0 00000000 		.word	cyBle_state
 289 00d4 00000000 		.word	connectionHandle
 290 00d8 00000000 		.word	deviceConnected
 291 00dc 00000000 		.word	startNotification
 292 00e0 00000000 		.word	updateNotificationCCCAttribute
 293 00e4 00000000 		.word	busyStatus
 294              		.cfi_endproc
 295              	.LFE35:
 296              		.size	CustomEventHandler, .-CustomEventHandler
 297              		.section	.text.SendDataOverCapSenseNotification,"ax",%progbits
 298              		.align	2
 299              		.global	SendDataOverCapSenseNotification
 300              		.code	16
 301              		.thumb_func
 302              		.type	SendDataOverCapSenseNotification, %function
 303              	SendDataOverCapSenseNotification:
 304              	.LFB36:
 203:BLEApplications.c **** 
 204:BLEApplications.c **** /*******************************************************************************
 205:BLEApplications.c **** * Function Name: SendDataOverCapSenseNotification
 206:BLEApplications.c **** ********************************************************************************
 207:BLEApplications.c **** * Summary:
 208:BLEApplications.c **** *        Update the data handle for notification and report it to BLE so that
ARM GAS  C:\Users\Jason\AppData\Local\Temp\ccVnieh8.s 			page 10


 209:BLEApplications.c **** *	data can be sent over notifications
 210:BLEApplications.c **** *
 211:BLEApplications.c **** * Parameters:
 212:BLEApplications.c **** *  proximityValue: Proximity range data; value between 1-100
 213:BLEApplications.c **** *
 214:BLEApplications.c **** * Return:
 215:BLEApplications.c **** *  void
 216:BLEApplications.c **** *
 217:BLEApplications.c **** *******************************************************************************/
 218:BLEApplications.c **** void SendDataOverCapSenseNotification(uint8 proximityValue)
 219:BLEApplications.c **** {
 305              		.loc 1 219 0
 306              		.cfi_startproc
 307              		@ args = 0, pretend = 0, frame = 24
 308              		@ frame_needed = 1, uses_anonymous_args = 0
 309 0000 80B5     		push	{r7, lr}
 310              		.cfi_def_cfa_offset 8
 311              		.cfi_offset 7, -8
 312              		.cfi_offset 14, -4
 313 0002 86B0     		sub	sp, sp, #24
 314              		.cfi_def_cfa_offset 32
 315 0004 00AF     		add	r7, sp, #0
 316              		.cfi_def_cfa_register 7
 317 0006 0200     		movs	r2, r0
 318 0008 FB1D     		adds	r3, r7, #7
 319 000a 1A70     		strb	r2, [r3]
 220:BLEApplications.c **** 	/* 'notificationHandle' is handle to store notification data parameters */
 221:BLEApplications.c **** 	CYBLE_GATTS_HANDLE_VALUE_NTF_T		notificationHandle; 
 222:BLEApplications.c **** 	
 223:BLEApplications.c **** 	/* If stack is not busy, then send the notification */
 224:BLEApplications.c **** 	if(busyStatus == CYBLE_STACK_STATE_FREE)
 320              		.loc 1 224 0
 321 000c 114B     		ldr	r3, .L23
 322 000e 1B78     		ldrb	r3, [r3]
 323 0010 002B     		cmp	r3, #0
 324 0012 1BD1     		bne	.L22
 225:BLEApplications.c **** 	{
 226:BLEApplications.c **** 		/* Update Notification handle with proximity data*/
 227:BLEApplications.c **** 		notificationHandle.attrHandle = CYBLE_CAPSENSE_CAPSENSE_PROXIMITY_CHAR_HANDLE;				
 325              		.loc 1 227 0
 326 0014 0C23     		movs	r3, #12
 327 0016 FB18     		adds	r3, r7, r3
 328 0018 0E22     		movs	r2, #14
 329 001a 1A81     		strh	r2, [r3, #8]
 228:BLEApplications.c **** 		notificationHandle.value.val = &proximityValue;
 330              		.loc 1 228 0
 331 001c 0C23     		movs	r3, #12
 332 001e FB18     		adds	r3, r7, r3
 333 0020 FA1D     		adds	r2, r7, #7
 334 0022 1A60     		str	r2, [r3]
 229:BLEApplications.c **** 		notificationHandle.value.len = CAPSENSE_NOTIFICATION_DATA_LEN;
 335              		.loc 1 229 0
 336 0024 0C23     		movs	r3, #12
 337 0026 FB18     		adds	r3, r7, r3
 338 0028 0122     		movs	r2, #1
 339 002a 9A80     		strh	r2, [r3, #4]
 230:BLEApplications.c **** 		
ARM GAS  C:\Users\Jason\AppData\Local\Temp\ccVnieh8.s 			page 11


 231:BLEApplications.c **** 		/* Report data to BLE component for sending data by notifications*/
 232:BLEApplications.c **** 		CyBle_GattsNotification(connectionHandle,&notificationHandle);
 340              		.loc 1 232 0
 341 002c 0C23     		movs	r3, #12
 342 002e F918     		adds	r1, r7, r3
 343 0030 094B     		ldr	r3, .L23+4
 344 0032 1A78     		ldrb	r2, [r3]
 345 0034 5B78     		ldrb	r3, [r3, #1]
 346 0036 1B02     		lsls	r3, r3, #8
 347 0038 1A43     		orrs	r2, r3
 348 003a 0023     		movs	r3, #0
 349 003c 1204     		lsls	r2, r2, #16
 350 003e 120C     		lsrs	r2, r2, #16
 351 0040 1B0C     		lsrs	r3, r3, #16
 352 0042 1B04     		lsls	r3, r3, #16
 353 0044 1343     		orrs	r3, r2
 354 0046 1800     		movs	r0, r3
 355 0048 FFF7FEFF 		bl	CyBle_GattsNotification
 356              	.L22:
 233:BLEApplications.c **** 	}
 234:BLEApplications.c **** }
 357              		.loc 1 234 0
 358 004c C046     		nop
 359 004e BD46     		mov	sp, r7
 360 0050 06B0     		add	sp, sp, #24
 361              		@ sp needed
 362 0052 80BD     		pop	{r7, pc}
 363              	.L24:
 364              		.align	2
 365              	.L23:
 366 0054 00000000 		.word	busyStatus
 367 0058 00000000 		.word	connectionHandle
 368              		.cfi_endproc
 369              	.LFE36:
 370              		.size	SendDataOverCapSenseNotification, .-SendDataOverCapSenseNotification
 371              		.section	.text.UpdateNotificationCCCD,"ax",%progbits
 372              		.align	2
 373              		.global	UpdateNotificationCCCD
 374              		.code	16
 375              		.thumb_func
 376              		.type	UpdateNotificationCCCD, %function
 377              	UpdateNotificationCCCD:
 378              	.LFB37:
 235:BLEApplications.c **** 
 236:BLEApplications.c **** /*******************************************************************************
 237:BLEApplications.c **** * Function Name: UpdateNotificationCCCD
 238:BLEApplications.c **** ********************************************************************************
 239:BLEApplications.c **** * Summary:
 240:BLEApplications.c **** *        Update the data handle for notification status and report it to BLE 
 241:BLEApplications.c **** *	component so that it can be read by Central device.
 242:BLEApplications.c **** *
 243:BLEApplications.c **** * Parameters:
 244:BLEApplications.c **** *  void
 245:BLEApplications.c **** *
 246:BLEApplications.c **** * Return:
 247:BLEApplications.c **** *  void
 248:BLEApplications.c **** *
ARM GAS  C:\Users\Jason\AppData\Local\Temp\ccVnieh8.s 			page 12


 249:BLEApplications.c **** *******************************************************************************/
 250:BLEApplications.c **** void UpdateNotificationCCCD(void)
 251:BLEApplications.c **** {
 379              		.loc 1 251 0
 380              		.cfi_startproc
 381              		@ args = 0, pretend = 0, frame = 16
 382              		@ frame_needed = 1, uses_anonymous_args = 0
 383 0000 80B5     		push	{r7, lr}
 384              		.cfi_def_cfa_offset 8
 385              		.cfi_offset 7, -8
 386              		.cfi_offset 14, -4
 387 0002 84B0     		sub	sp, sp, #16
 388              		.cfi_def_cfa_offset 24
 389 0004 00AF     		add	r7, sp, #0
 390              		.cfi_def_cfa_register 7
 252:BLEApplications.c **** 	/* Local variable to store the current CCCD value */
 253:BLEApplications.c **** 	uint8 CCCDvalue[2];
 254:BLEApplications.c **** 	
 255:BLEApplications.c **** 	/* Handle value to update the CCCD */
 256:BLEApplications.c **** 	CYBLE_GATT_HANDLE_VALUE_PAIR_T notificationCCCDhandle;
 257:BLEApplications.c **** 
 258:BLEApplications.c **** 	/* Update notification attribute only when there has been change */
 259:BLEApplications.c **** 	if(updateNotificationCCCAttribute)
 391              		.loc 1 259 0
 392 0006 124B     		ldr	r3, .L28
 393 0008 1B78     		ldrb	r3, [r3]
 394 000a 002B     		cmp	r3, #0
 395 000c 1BD0     		beq	.L27
 260:BLEApplications.c **** 	{
 261:BLEApplications.c **** 		updateNotificationCCCAttribute = FALSE;
 396              		.loc 1 261 0
 397 000e 104B     		ldr	r3, .L28
 398 0010 0022     		movs	r2, #0
 399 0012 1A70     		strb	r2, [r3]
 262:BLEApplications.c **** 	
 263:BLEApplications.c **** 		/* Write the present notification status to the local variable */
 264:BLEApplications.c **** 		CCCDvalue[0] = startNotification;
 400              		.loc 1 264 0
 401 0014 0F4B     		ldr	r3, .L28+4
 402 0016 1A78     		ldrb	r2, [r3]
 403 0018 0C23     		movs	r3, #12
 404 001a FB18     		adds	r3, r7, r3
 405 001c 1A70     		strb	r2, [r3]
 265:BLEApplications.c **** 		CCCDvalue[1] = 0x00;
 406              		.loc 1 265 0
 407 001e 0C23     		movs	r3, #12
 408 0020 FB18     		adds	r3, r7, r3
 409 0022 0022     		movs	r2, #0
 410 0024 5A70     		strb	r2, [r3, #1]
 266:BLEApplications.c **** 		
 267:BLEApplications.c **** 		/* Update CCCD handle with notification status data*/
 268:BLEApplications.c **** 		notificationCCCDhandle.attrHandle = CYBLE_CAPSENSE_CAPSENSE_PROXIMITY_CLIENT_CHARACTERISTIC_CONFI
 411              		.loc 1 268 0
 412 0026 3B00     		movs	r3, r7
 413 0028 0F22     		movs	r2, #15
 414 002a 1A81     		strh	r2, [r3, #8]
 269:BLEApplications.c **** 		notificationCCCDhandle.value.val = CCCDvalue;
ARM GAS  C:\Users\Jason\AppData\Local\Temp\ccVnieh8.s 			page 13


 415              		.loc 1 269 0
 416 002c 3B00     		movs	r3, r7
 417 002e 0C22     		movs	r2, #12
 418 0030 BA18     		adds	r2, r7, r2
 419 0032 1A60     		str	r2, [r3]
 270:BLEApplications.c **** 		notificationCCCDhandle.value.len = CCC_DATA_LEN;
 420              		.loc 1 270 0
 421 0034 3B00     		movs	r3, r7
 422 0036 0222     		movs	r2, #2
 423 0038 9A80     		strh	r2, [r3, #4]
 271:BLEApplications.c **** 		
 272:BLEApplications.c **** 		/* Report data to BLE component for sending data when read by Central device */
 273:BLEApplications.c **** 		CyBle_GattsWriteAttributeValue(&notificationCCCDhandle, ZERO, &connectionHandle, CYBLE_GATT_DB_LO
 424              		.loc 1 273 0
 425 003a 074A     		ldr	r2, .L28+8
 426 003c 3800     		movs	r0, r7
 427 003e 0023     		movs	r3, #0
 428 0040 0021     		movs	r1, #0
 429 0042 FFF7FEFF 		bl	CyBle_GattsWriteAttributeValue
 430              	.L27:
 274:BLEApplications.c **** 	}	
 275:BLEApplications.c **** }
 431              		.loc 1 275 0
 432 0046 C046     		nop
 433 0048 BD46     		mov	sp, r7
 434 004a 04B0     		add	sp, sp, #16
 435              		@ sp needed
 436 004c 80BD     		pop	{r7, pc}
 437              	.L29:
 438 004e C046     		.align	2
 439              	.L28:
 440 0050 00000000 		.word	updateNotificationCCCAttribute
 441 0054 00000000 		.word	startNotification
 442 0058 00000000 		.word	connectionHandle
 443              		.cfi_endproc
 444              	.LFE37:
 445              		.size	UpdateNotificationCCCD, .-UpdateNotificationCCCD
 446              		.section	.text.HandleStatusLED,"ax",%progbits
 447              		.align	2
 448              		.global	HandleStatusLED
 449              		.code	16
 450              		.thumb_func
 451              		.type	HandleStatusLED, %function
 452              	HandleStatusLED:
 453              	.LFB38:
 276:BLEApplications.c **** 
 277:BLEApplications.c **** /*******************************************************************************
 278:BLEApplications.c **** * Function Name: HandleStatusLED
 279:BLEApplications.c **** ********************************************************************************
 280:BLEApplications.c **** * Summary:
 281:BLEApplications.c **** *        Handle LED status, such as blinking, ON or OFF depending on BLE state.
 282:BLEApplications.c **** *
 283:BLEApplications.c **** * Parameters:
 284:BLEApplications.c **** *  void
 285:BLEApplications.c **** *
 286:BLEApplications.c **** * Return:
 287:BLEApplications.c **** *  void
ARM GAS  C:\Users\Jason\AppData\Local\Temp\ccVnieh8.s 			page 14


 288:BLEApplications.c **** *
 289:BLEApplications.c **** *******************************************************************************/
 290:BLEApplications.c **** void HandleStatusLED(void)
 291:BLEApplications.c **** {
 454              		.loc 1 291 0
 455              		.cfi_startproc
 456              		@ args = 0, pretend = 0, frame = 8
 457              		@ frame_needed = 1, uses_anonymous_args = 0
 458 0000 80B5     		push	{r7, lr}
 459              		.cfi_def_cfa_offset 8
 460              		.cfi_offset 7, -8
 461              		.cfi_offset 14, -4
 462 0002 82B0     		sub	sp, sp, #8
 463              		.cfi_def_cfa_offset 16
 464 0004 00AF     		add	r7, sp, #0
 465              		.cfi_def_cfa_register 7
 292:BLEApplications.c **** 	/* Local static counter to handle the periodic toggling of LED or keeping LED ON
 293:BLEApplications.c **** 	* for some time. */
 294:BLEApplications.c **** 	static uint32 led_counter = TRUE;
 295:BLEApplications.c **** 	
 296:BLEApplications.c **** 	/* Local static variable that stores the last BLE state in which firmware was */
 297:BLEApplications.c **** 	static uint8 state = 0xFF;
 298:BLEApplications.c **** 	
 299:BLEApplications.c **** 	/* Flag to indicate that the state of BLE has changed from the last known value */
 300:BLEApplications.c **** 	uint8 state_changed = FALSE;
 466              		.loc 1 300 0
 467 0006 FB1D     		adds	r3, r7, #7
 468 0008 0022     		movs	r2, #0
 469 000a 1A70     		strb	r2, [r3]
 301:BLEApplications.c **** 	
 302:BLEApplications.c **** 	if(state != CyBle_GetState())
 470              		.loc 1 302 0
 471 000c 2C4B     		ldr	r3, .L42
 472 000e 1A78     		ldrb	r2, [r3]
 473 0010 2C4B     		ldr	r3, .L42+4
 474 0012 1B78     		ldrb	r3, [r3]
 475 0014 9A42     		cmp	r2, r3
 476 0016 09D0     		beq	.L31
 303:BLEApplications.c **** 	{
 304:BLEApplications.c **** 		/* If the present BLE state is different from the new BLE state, set the 
 305:BLEApplications.c **** 		* state_changed flag and reset the local counter */
 306:BLEApplications.c **** 		state_changed = TRUE;
 477              		.loc 1 306 0
 478 0018 FB1D     		adds	r3, r7, #7
 479 001a 0122     		movs	r2, #1
 480 001c 1A70     		strb	r2, [r3]
 307:BLEApplications.c **** 				
 308:BLEApplications.c **** 		if(CyBle_GetState() == CYBLE_STATE_ADVERTISING)
 481              		.loc 1 308 0
 482 001e 294B     		ldr	r3, .L42+4
 483 0020 1B78     		ldrb	r3, [r3]
 484 0022 032B     		cmp	r3, #3
 485 0024 02D1     		bne	.L31
 309:BLEApplications.c **** 		{
 310:BLEApplications.c **** 			led_counter = TRUE;
 486              		.loc 1 310 0
 487 0026 284B     		ldr	r3, .L42+8
ARM GAS  C:\Users\Jason\AppData\Local\Temp\ccVnieh8.s 			page 15


 488 0028 0122     		movs	r2, #1
 489 002a 1A60     		str	r2, [r3]
 490              	.L31:
 311:BLEApplications.c **** 		}
 312:BLEApplications.c **** 	}
 313:BLEApplications.c **** 	
 314:BLEApplications.c **** 	/* Store the new BLE state into the present state variable */
 315:BLEApplications.c **** 	state = CyBle_GetState();
 491              		.loc 1 315 0
 492 002c 254B     		ldr	r3, .L42+4
 493 002e 1A78     		ldrb	r2, [r3]
 494 0030 234B     		ldr	r3, .L42
 495 0032 1A70     		strb	r2, [r3]
 316:BLEApplications.c **** 		
 317:BLEApplications.c **** 	switch(state)
 496              		.loc 1 317 0
 497 0034 224B     		ldr	r3, .L42
 498 0036 1B78     		ldrb	r3, [r3]
 499 0038 032B     		cmp	r3, #3
 500 003a 0FD0     		beq	.L33
 501 003c 042B     		cmp	r3, #4
 502 003e 2ED0     		beq	.L34
 503 0040 022B     		cmp	r3, #2
 504 0042 00D0     		beq	.L35
 318:BLEApplications.c **** 	{
 319:BLEApplications.c **** 		case CYBLE_STATE_CONNECTED:
 320:BLEApplications.c **** 			if(state_changed)
 321:BLEApplications.c **** 			{
 322:BLEApplications.c **** 				/* Reset the flag for state change */
 323:BLEApplications.c **** 				state_changed = FALSE;
 324:BLEApplications.c **** 				
 325:BLEApplications.c **** 				/* Set the drive mode of LED to Strong to allow driving the LED */
 326:BLEApplications.c **** 				Status_LED_SetDriveMode(Status_LED_DM_ALG_HIZ);
 327:BLEApplications.c **** 			}
 328:BLEApplications.c **** 		break;
 329:BLEApplications.c **** 		
 330:BLEApplications.c **** 		case CYBLE_STATE_ADVERTISING:
 331:BLEApplications.c **** 			/* If the present BLE state is advertising, toggle the LED
 332:BLEApplications.c **** 			* at pre-determined period to indicate advertising. */
 333:BLEApplications.c **** 			if((--led_counter) == FALSE)
 334:BLEApplications.c **** 			{
 335:BLEApplications.c **** 				Status_LED_SetDriveMode(Status_LED_DM_STRONG);
 336:BLEApplications.c **** 				
 337:BLEApplications.c **** 				if(Status_LED_Read() == LED_OFF)
 338:BLEApplications.c **** 				{
 339:BLEApplications.c **** 					Status_LED_Write(LED_ON);
 340:BLEApplications.c **** 					led_counter	= LED_ADV_BLINK_PERIOD_ON;
 341:BLEApplications.c **** 				}
 342:BLEApplications.c **** 				else
 343:BLEApplications.c **** 				{
 344:BLEApplications.c **** 					Status_LED_Write(LED_OFF);
 345:BLEApplications.c **** 					led_counter	= LED_ADV_BLINK_PERIOD_OFF;
 346:BLEApplications.c **** 				}
 347:BLEApplications.c **** 			}
 348:BLEApplications.c **** 		break;
 349:BLEApplications.c **** 		
 350:BLEApplications.c **** 		case CYBLE_STATE_DISCONNECTED:
ARM GAS  C:\Users\Jason\AppData\Local\Temp\ccVnieh8.s 			page 16


 351:BLEApplications.c **** 			/* If the present BLE state is disconnected, switch off LED
 352:BLEApplications.c **** 			* and set the drive mode of LED to Hi-Z (Analog)*/
 353:BLEApplications.c **** 			Status_LED_Write(LED_OFF);
 354:BLEApplications.c **** 			Status_LED_SetDriveMode(Status_LED_DM_ALG_HIZ);
 355:BLEApplications.c **** 		break;
 356:BLEApplications.c **** 		
 357:BLEApplications.c **** 		default:
 358:BLEApplications.c **** 
 359:BLEApplications.c **** 		break;
 505              		.loc 1 359 0
 506 0044 35E0     		b	.L37
 507              	.L35:
 320:BLEApplications.c **** 			{
 508              		.loc 1 320 0
 509 0046 FB1D     		adds	r3, r7, #7
 510 0048 1B78     		ldrb	r3, [r3]
 511 004a 002B     		cmp	r3, #0
 512 004c 2ED0     		beq	.L40
 323:BLEApplications.c **** 				
 513              		.loc 1 323 0
 514 004e FB1D     		adds	r3, r7, #7
 515 0050 0022     		movs	r2, #0
 516 0052 1A70     		strb	r2, [r3]
 326:BLEApplications.c **** 			}
 517              		.loc 1 326 0
 518 0054 0020     		movs	r0, #0
 519 0056 FFF7FEFF 		bl	Status_LED_SetDriveMode
 328:BLEApplications.c **** 		
 520              		.loc 1 328 0
 521 005a 27E0     		b	.L40
 522              	.L33:
 333:BLEApplications.c **** 			{
 523              		.loc 1 333 0
 524 005c 1A4B     		ldr	r3, .L42+8
 525 005e 1B68     		ldr	r3, [r3]
 526 0060 5A1E     		subs	r2, r3, #1
 527 0062 194B     		ldr	r3, .L42+8
 528 0064 1A60     		str	r2, [r3]
 529 0066 184B     		ldr	r3, .L42+8
 530 0068 1B68     		ldr	r3, [r3]
 531 006a 002B     		cmp	r3, #0
 532 006c 20D1     		bne	.L41
 335:BLEApplications.c **** 				
 533              		.loc 1 335 0
 534 006e 0620     		movs	r0, #6
 535 0070 FFF7FEFF 		bl	Status_LED_SetDriveMode
 337:BLEApplications.c **** 				{
 536              		.loc 1 337 0
 537 0074 FFF7FEFF 		bl	Status_LED_Read
 538 0078 0300     		movs	r3, r0
 539 007a 012B     		cmp	r3, #1
 540 007c 07D1     		bne	.L39
 339:BLEApplications.c **** 					led_counter	= LED_ADV_BLINK_PERIOD_ON;
 541              		.loc 1 339 0
 542 007e 0020     		movs	r0, #0
 543 0080 FFF7FEFF 		bl	Status_LED_Write
 340:BLEApplications.c **** 				}
ARM GAS  C:\Users\Jason\AppData\Local\Temp\ccVnieh8.s 			page 17


 544              		.loc 1 340 0
 545 0084 104B     		ldr	r3, .L42+8
 546 0086 FA22     		movs	r2, #250
 547 0088 5201     		lsls	r2, r2, #5
 548 008a 1A60     		str	r2, [r3]
 348:BLEApplications.c **** 		
 549              		.loc 1 348 0
 550 008c 10E0     		b	.L41
 551              	.L39:
 344:BLEApplications.c **** 					led_counter	= LED_ADV_BLINK_PERIOD_OFF;
 552              		.loc 1 344 0
 553 008e 0120     		movs	r0, #1
 554 0090 FFF7FEFF 		bl	Status_LED_Write
 345:BLEApplications.c **** 				}
 555              		.loc 1 345 0
 556 0094 0C4B     		ldr	r3, .L42+8
 557 0096 FA22     		movs	r2, #250
 558 0098 5201     		lsls	r2, r2, #5
 559 009a 1A60     		str	r2, [r3]
 348:BLEApplications.c **** 		
 560              		.loc 1 348 0
 561 009c 08E0     		b	.L41
 562              	.L34:
 353:BLEApplications.c **** 			Status_LED_SetDriveMode(Status_LED_DM_ALG_HIZ);
 563              		.loc 1 353 0
 564 009e 0120     		movs	r0, #1
 565 00a0 FFF7FEFF 		bl	Status_LED_Write
 354:BLEApplications.c **** 		break;
 566              		.loc 1 354 0
 567 00a4 0020     		movs	r0, #0
 568 00a6 FFF7FEFF 		bl	Status_LED_SetDriveMode
 355:BLEApplications.c **** 		
 569              		.loc 1 355 0
 570 00aa 02E0     		b	.L37
 571              	.L40:
 328:BLEApplications.c **** 		
 572              		.loc 1 328 0
 573 00ac C046     		nop
 574 00ae 00E0     		b	.L37
 575              	.L41:
 348:BLEApplications.c **** 		
 576              		.loc 1 348 0
 577 00b0 C046     		nop
 578              	.L37:
 360:BLEApplications.c **** 	}
 361:BLEApplications.c **** 	
 362:BLEApplications.c **** 	/* Reset the state changed flag. */
 363:BLEApplications.c **** 	state_changed = FALSE;
 579              		.loc 1 363 0
 580 00b2 FB1D     		adds	r3, r7, #7
 581 00b4 0022     		movs	r2, #0
 582 00b6 1A70     		strb	r2, [r3]
 364:BLEApplications.c **** }
 583              		.loc 1 364 0
 584 00b8 C046     		nop
 585 00ba BD46     		mov	sp, r7
 586 00bc 02B0     		add	sp, sp, #8
ARM GAS  C:\Users\Jason\AppData\Local\Temp\ccVnieh8.s 			page 18


 587              		@ sp needed
 588 00be 80BD     		pop	{r7, pc}
 589              	.L43:
 590              		.align	2
 591              	.L42:
 592 00c0 00000000 		.word	state.7620
 593 00c4 00000000 		.word	cyBle_state
 594 00c8 04000000 		.word	led_counter.7619
 595              		.cfi_endproc
 596              	.LFE38:
 597              		.size	HandleStatusLED, .-HandleStatusLED
 598              		.data
 599              		.type	state.7620, %object
 600              		.size	state.7620, 1
 601              	state.7620:
 602 0000 FF       		.byte	-1
 603 0001 000000   		.align	2
 604              		.type	led_counter.7619, %object
 605              		.size	led_counter.7619, 4
 606              	led_counter.7619:
 607 0004 01000000 		.word	1
 608              		.text
 609              	.Letext0:
 610              		.file 2 "Generated_Source\\PSoC4/cytypes.h"
 611              		.file 3 "Generated_Source\\PSoC4/BLE_StackGatt.h"
 612              		.file 4 "Generated_Source\\PSoC4/BLE_StackGattServer.h"
 613              		.file 5 "Generated_Source\\PSoC4/BLE_Stack.h"
 614              		.file 6 "Generated_Source\\PSoC4/BLE_eventHandler.h"