ARM GAS  C:\Users\Jason\AppData\Local\Temp\ccssYdtp.s 			page 1


   1              		.syntax unified
   2              		.cpu cortex-m0
   3              		.fpu softvfp
   4              		.eabi_attribute 20, 1
   5              		.eabi_attribute 21, 1
   6              		.eabi_attribute 23, 3
   7              		.eabi_attribute 24, 1
   8              		.eabi_attribute 25, 1
   9              		.eabi_attribute 26, 1
  10              		.eabi_attribute 30, 6
  11              		.eabi_attribute 34, 0
  12              		.eabi_attribute 18, 4
  13              		.thumb
  14              		.syntax unified
  15              		.file	"event_groups.c"
  16              		.text
  17              	.Ltext0:
  18              		.cfi_sections	.debug_frame
  19              		.comm	x,2,2
  20              		.section	.text.xEventGroupCreateStatic,"ax",%progbits
  21              		.align	2
  22              		.global	xEventGroupCreateStatic
  23              		.code	16
  24              		.thumb_func
  25              		.type	xEventGroupCreateStatic, %function
  26              	xEventGroupCreateStatic:
  27              	.LFB0:
  28              		.file 1 "..\\FreeRTOS\\Source\\event_groups.c"
   1:..\FreeRTOS\Source/event_groups.c **** /*
   2:..\FreeRTOS\Source/event_groups.c ****  * FreeRTOS Kernel V10.4.3
   3:..\FreeRTOS\Source/event_groups.c ****  * Copyright (C) 2020 Amazon.com, Inc. or its affiliates.  All Rights Reserved.
   4:..\FreeRTOS\Source/event_groups.c ****  *
   5:..\FreeRTOS\Source/event_groups.c ****  * Permission is hereby granted, free of charge, to any person obtaining a copy of
   6:..\FreeRTOS\Source/event_groups.c ****  * this software and associated documentation files (the "Software"), to deal in
   7:..\FreeRTOS\Source/event_groups.c ****  * the Software without restriction, including without limitation the rights to
   8:..\FreeRTOS\Source/event_groups.c ****  * use, copy, modify, merge, publish, distribute, sublicense, and/or sell copies of
   9:..\FreeRTOS\Source/event_groups.c ****  * the Software, and to permit persons to whom the Software is furnished to do so,
  10:..\FreeRTOS\Source/event_groups.c ****  * subject to the following conditions:
  11:..\FreeRTOS\Source/event_groups.c ****  *
  12:..\FreeRTOS\Source/event_groups.c ****  * The above copyright notice and this permission notice shall be included in all
  13:..\FreeRTOS\Source/event_groups.c ****  * copies or substantial portions of the Software.
  14:..\FreeRTOS\Source/event_groups.c ****  *
  15:..\FreeRTOS\Source/event_groups.c ****  * THE SOFTWARE IS PROVIDED "AS IS", WITHOUT WARRANTY OF ANY KIND, EXPRESS OR
  16:..\FreeRTOS\Source/event_groups.c ****  * IMPLIED, INCLUDING BUT NOT LIMITED TO THE WARRANTIES OF MERCHANTABILITY, FITNESS
  17:..\FreeRTOS\Source/event_groups.c ****  * FOR A PARTICULAR PURPOSE AND NONINFRINGEMENT. IN NO EVENT SHALL THE AUTHORS OR
  18:..\FreeRTOS\Source/event_groups.c ****  * COPYRIGHT HOLDERS BE LIABLE FOR ANY CLAIM, DAMAGES OR OTHER LIABILITY, WHETHER
  19:..\FreeRTOS\Source/event_groups.c ****  * IN AN ACTION OF CONTRACT, TORT OR OTHERWISE, ARISING FROM, OUT OF OR IN
  20:..\FreeRTOS\Source/event_groups.c ****  * CONNECTION WITH THE SOFTWARE OR THE USE OR OTHER DEALINGS IN THE SOFTWARE.
  21:..\FreeRTOS\Source/event_groups.c ****  *
  22:..\FreeRTOS\Source/event_groups.c ****  * https://www.FreeRTOS.org
  23:..\FreeRTOS\Source/event_groups.c ****  * https://github.com/FreeRTOS
  24:..\FreeRTOS\Source/event_groups.c ****  *
  25:..\FreeRTOS\Source/event_groups.c ****  */
  26:..\FreeRTOS\Source/event_groups.c **** 
  27:..\FreeRTOS\Source/event_groups.c **** /* Standard includes. */
  28:..\FreeRTOS\Source/event_groups.c **** #include <stdlib.h>
  29:..\FreeRTOS\Source/event_groups.c **** 
ARM GAS  C:\Users\Jason\AppData\Local\Temp\ccssYdtp.s 			page 2


  30:..\FreeRTOS\Source/event_groups.c **** /* Defining MPU_WRAPPERS_INCLUDED_FROM_API_FILE prevents task.h from redefining
  31:..\FreeRTOS\Source/event_groups.c ****  * all the API functions to use the MPU wrappers.  That should only be done when
  32:..\FreeRTOS\Source/event_groups.c ****  * task.h is included from an application file. */
  33:..\FreeRTOS\Source/event_groups.c **** #define MPU_WRAPPERS_INCLUDED_FROM_API_FILE
  34:..\FreeRTOS\Source/event_groups.c **** 
  35:..\FreeRTOS\Source/event_groups.c **** /* FreeRTOS includes. */
  36:..\FreeRTOS\Source/event_groups.c **** #include "FreeRTOS.h"
  37:..\FreeRTOS\Source/event_groups.c **** #include "task.h"
  38:..\FreeRTOS\Source/event_groups.c **** #include "timers.h"
  39:..\FreeRTOS\Source/event_groups.c **** #include "event_groups.h"
  40:..\FreeRTOS\Source/event_groups.c **** 
  41:..\FreeRTOS\Source/event_groups.c **** /* Lint e961, e750 and e9021 are suppressed as a MISRA exception justified
  42:..\FreeRTOS\Source/event_groups.c ****  * because the MPU ports require MPU_WRAPPERS_INCLUDED_FROM_API_FILE to be defined
  43:..\FreeRTOS\Source/event_groups.c ****  * for the header files above, but not in this file, in order to generate the
  44:..\FreeRTOS\Source/event_groups.c ****  * correct privileged Vs unprivileged linkage and placement. */
  45:..\FreeRTOS\Source/event_groups.c **** #undef MPU_WRAPPERS_INCLUDED_FROM_API_FILE /*lint !e961 !e750 !e9021 See comment above. */
  46:..\FreeRTOS\Source/event_groups.c **** 
  47:..\FreeRTOS\Source/event_groups.c **** /* The following bit fields convey control information in a task's event list
  48:..\FreeRTOS\Source/event_groups.c ****  * item value.  It is important they don't clash with the
  49:..\FreeRTOS\Source/event_groups.c ****  * taskEVENT_LIST_ITEM_VALUE_IN_USE definition. */
  50:..\FreeRTOS\Source/event_groups.c **** #if configUSE_16_BIT_TICKS == 1
  51:..\FreeRTOS\Source/event_groups.c ****     #define eventCLEAR_EVENTS_ON_EXIT_BIT    0x0100U
  52:..\FreeRTOS\Source/event_groups.c ****     #define eventUNBLOCKED_DUE_TO_BIT_SET    0x0200U
  53:..\FreeRTOS\Source/event_groups.c ****     #define eventWAIT_FOR_ALL_BITS           0x0400U
  54:..\FreeRTOS\Source/event_groups.c ****     #define eventEVENT_BITS_CONTROL_BYTES    0xff00U
  55:..\FreeRTOS\Source/event_groups.c **** #else
  56:..\FreeRTOS\Source/event_groups.c ****     #define eventCLEAR_EVENTS_ON_EXIT_BIT    0x01000000UL
  57:..\FreeRTOS\Source/event_groups.c ****     #define eventUNBLOCKED_DUE_TO_BIT_SET    0x02000000UL
  58:..\FreeRTOS\Source/event_groups.c ****     #define eventWAIT_FOR_ALL_BITS           0x04000000UL
  59:..\FreeRTOS\Source/event_groups.c ****     #define eventEVENT_BITS_CONTROL_BYTES    0xff000000UL
  60:..\FreeRTOS\Source/event_groups.c **** #endif
  61:..\FreeRTOS\Source/event_groups.c **** 
  62:..\FreeRTOS\Source/event_groups.c **** typedef struct EventGroupDef_t
  63:..\FreeRTOS\Source/event_groups.c **** {
  64:..\FreeRTOS\Source/event_groups.c ****     EventBits_t uxEventBits;
  65:..\FreeRTOS\Source/event_groups.c ****     List_t xTasksWaitingForBits; /*< List of tasks waiting for a bit to be set. */
  66:..\FreeRTOS\Source/event_groups.c **** 
  67:..\FreeRTOS\Source/event_groups.c ****     #if ( configUSE_TRACE_FACILITY == 1 )
  68:..\FreeRTOS\Source/event_groups.c ****         UBaseType_t uxEventGroupNumber;
  69:..\FreeRTOS\Source/event_groups.c ****     #endif
  70:..\FreeRTOS\Source/event_groups.c **** 
  71:..\FreeRTOS\Source/event_groups.c ****     #if ( ( configSUPPORT_STATIC_ALLOCATION == 1 ) && ( configSUPPORT_DYNAMIC_ALLOCATION == 1 ) )
  72:..\FreeRTOS\Source/event_groups.c ****         uint8_t ucStaticallyAllocated; /*< Set to pdTRUE if the event group is statically allocated
  73:..\FreeRTOS\Source/event_groups.c ****     #endif
  74:..\FreeRTOS\Source/event_groups.c **** } EventGroup_t;
  75:..\FreeRTOS\Source/event_groups.c **** 
  76:..\FreeRTOS\Source/event_groups.c **** /*-----------------------------------------------------------*/
  77:..\FreeRTOS\Source/event_groups.c **** 
  78:..\FreeRTOS\Source/event_groups.c **** /*
  79:..\FreeRTOS\Source/event_groups.c ****  * Test the bits set in uxCurrentEventBits to see if the wait condition is met.
  80:..\FreeRTOS\Source/event_groups.c ****  * The wait condition is defined by xWaitForAllBits.  If xWaitForAllBits is
  81:..\FreeRTOS\Source/event_groups.c ****  * pdTRUE then the wait condition is met if all the bits set in uxBitsToWaitFor
  82:..\FreeRTOS\Source/event_groups.c ****  * are also set in uxCurrentEventBits.  If xWaitForAllBits is pdFALSE then the
  83:..\FreeRTOS\Source/event_groups.c ****  * wait condition is met if any of the bits set in uxBitsToWait for are also set
  84:..\FreeRTOS\Source/event_groups.c ****  * in uxCurrentEventBits.
  85:..\FreeRTOS\Source/event_groups.c ****  */
  86:..\FreeRTOS\Source/event_groups.c **** static BaseType_t prvTestWaitCondition( const EventBits_t uxCurrentEventBits,
ARM GAS  C:\Users\Jason\AppData\Local\Temp\ccssYdtp.s 			page 3


  87:..\FreeRTOS\Source/event_groups.c ****                                         const EventBits_t uxBitsToWaitFor,
  88:..\FreeRTOS\Source/event_groups.c ****                                         const BaseType_t xWaitForAllBits ) PRIVILEGED_FUNCTION;
  89:..\FreeRTOS\Source/event_groups.c **** 
  90:..\FreeRTOS\Source/event_groups.c **** /*-----------------------------------------------------------*/
  91:..\FreeRTOS\Source/event_groups.c **** 
  92:..\FreeRTOS\Source/event_groups.c **** #if ( configSUPPORT_STATIC_ALLOCATION == 1 )
  93:..\FreeRTOS\Source/event_groups.c **** 
  94:..\FreeRTOS\Source/event_groups.c ****     EventGroupHandle_t xEventGroupCreateStatic( StaticEventGroup_t * pxEventGroupBuffer )
  95:..\FreeRTOS\Source/event_groups.c ****     {
  29              		.loc 1 95 0
  30              		.cfi_startproc
  31              		@ args = 0, pretend = 0, frame = 16
  32              		@ frame_needed = 1, uses_anonymous_args = 0
  33 0000 80B5     		push	{r7, lr}
  34              		.cfi_def_cfa_offset 8
  35              		.cfi_offset 7, -8
  36              		.cfi_offset 14, -4
  37 0002 84B0     		sub	sp, sp, #16
  38              		.cfi_def_cfa_offset 24
  39 0004 00AF     		add	r7, sp, #0
  40              		.cfi_def_cfa_register 7
  41 0006 7860     		str	r0, [r7, #4]
  96:..\FreeRTOS\Source/event_groups.c ****         EventGroup_t * pxEventBits;
  97:..\FreeRTOS\Source/event_groups.c **** 
  98:..\FreeRTOS\Source/event_groups.c ****         /* A StaticEventGroup_t object must be provided. */
  99:..\FreeRTOS\Source/event_groups.c ****         configASSERT( pxEventGroupBuffer );
  42              		.loc 1 99 0
  43 0008 114B     		ldr	r3, .L8
  44 000a 1B88     		ldrh	r3, [r3]
  45 000c 002B     		cmp	r3, #0
  46 000e 01D1     		bne	.L2
  47              		.loc 1 99 0 is_stmt 0 discriminator 1
  48              		.syntax divided
  49              	@ 99 "..\FreeRTOS\Source\event_groups.c" 1
  50 0010 72B6     		 cpsid i 
  51              	@ 0 "" 2
  52              		.thumb
  53              		.syntax unified
  54              	.L3:
  55 0012 FEE7     		b	.L3
  56              	.L2:
  57              	.LBB2:
 100:..\FreeRTOS\Source/event_groups.c **** 
 101:..\FreeRTOS\Source/event_groups.c ****         #if ( configASSERT_DEFINED == 1 )
 102:..\FreeRTOS\Source/event_groups.c ****             {
 103:..\FreeRTOS\Source/event_groups.c ****                 /* Sanity check that the size of the structure used to declare a
 104:..\FreeRTOS\Source/event_groups.c ****                  * variable of type StaticEventGroup_t equals the size of the real
 105:..\FreeRTOS\Source/event_groups.c ****                  * event group structure. */
 106:..\FreeRTOS\Source/event_groups.c ****                 volatile size_t xSize = sizeof( StaticEventGroup_t );
  58              		.loc 1 106 0 is_stmt 1
  59 0014 1C23     		movs	r3, #28
  60 0016 BB60     		str	r3, [r7, #8]
 107:..\FreeRTOS\Source/event_groups.c ****                 configASSERT( xSize == sizeof( EventGroup_t ) );
  61              		.loc 1 107 0
  62 0018 0D4B     		ldr	r3, .L8
  63 001a 1B88     		ldrh	r3, [r3]
  64 001c 002B     		cmp	r3, #0
ARM GAS  C:\Users\Jason\AppData\Local\Temp\ccssYdtp.s 			page 4


  65 001e 01D1     		bne	.L4
  66              		.loc 1 107 0 is_stmt 0 discriminator 1
  67              		.syntax divided
  68              	@ 107 "..\FreeRTOS\Source\event_groups.c" 1
  69 0020 72B6     		 cpsid i 
  70              	@ 0 "" 2
  71              		.thumb
  72              		.syntax unified
  73              	.L5:
  74              		.loc 1 107 0 discriminator 2
  75 0022 FEE7     		b	.L5
  76              	.L4:
  77 0024 BB68     		ldr	r3, [r7, #8]
  78              	.LBE2:
 108:..\FreeRTOS\Source/event_groups.c ****             } /*lint !e529 xSize is referenced if configASSERT() is defined. */
 109:..\FreeRTOS\Source/event_groups.c ****         #endif /* configASSERT_DEFINED */
 110:..\FreeRTOS\Source/event_groups.c **** 
 111:..\FreeRTOS\Source/event_groups.c ****         /* The user has provided a statically allocated event group - use it. */
 112:..\FreeRTOS\Source/event_groups.c ****         pxEventBits = ( EventGroup_t * ) pxEventGroupBuffer; /*lint !e740 !e9087 EventGroup_t and S
  79              		.loc 1 112 0 is_stmt 1 discriminator 2
  80 0026 7B68     		ldr	r3, [r7, #4]
  81 0028 FB60     		str	r3, [r7, #12]
 113:..\FreeRTOS\Source/event_groups.c **** 
 114:..\FreeRTOS\Source/event_groups.c ****         if( pxEventBits != NULL )
  82              		.loc 1 114 0 discriminator 2
  83 002a FB68     		ldr	r3, [r7, #12]
  84 002c 002B     		cmp	r3, #0
  85 002e 0AD0     		beq	.L6
 115:..\FreeRTOS\Source/event_groups.c ****         {
 116:..\FreeRTOS\Source/event_groups.c ****             pxEventBits->uxEventBits = 0;
  86              		.loc 1 116 0
  87 0030 FB68     		ldr	r3, [r7, #12]
  88 0032 0022     		movs	r2, #0
  89 0034 1A60     		str	r2, [r3]
 117:..\FreeRTOS\Source/event_groups.c ****             vListInitialise( &( pxEventBits->xTasksWaitingForBits ) );
  90              		.loc 1 117 0
  91 0036 FB68     		ldr	r3, [r7, #12]
  92 0038 0433     		adds	r3, r3, #4
  93 003a 1800     		movs	r0, r3
  94 003c FFF7FEFF 		bl	vListInitialise
 118:..\FreeRTOS\Source/event_groups.c **** 
 119:..\FreeRTOS\Source/event_groups.c ****             #if ( configSUPPORT_DYNAMIC_ALLOCATION == 1 )
 120:..\FreeRTOS\Source/event_groups.c ****                 {
 121:..\FreeRTOS\Source/event_groups.c ****                     /* Both static and dynamic allocation can be used, so note that
 122:..\FreeRTOS\Source/event_groups.c ****                      * this event group was created statically in case the event group
 123:..\FreeRTOS\Source/event_groups.c ****                      * is later deleted. */
 124:..\FreeRTOS\Source/event_groups.c ****                     pxEventBits->ucStaticallyAllocated = pdTRUE;
  95              		.loc 1 124 0
  96 0040 FB68     		ldr	r3, [r7, #12]
  97 0042 0122     		movs	r2, #1
  98 0044 1A76     		strb	r2, [r3, #24]
  99              	.L6:
 125:..\FreeRTOS\Source/event_groups.c ****                 }
 126:..\FreeRTOS\Source/event_groups.c ****             #endif /* configSUPPORT_DYNAMIC_ALLOCATION */
 127:..\FreeRTOS\Source/event_groups.c **** 
 128:..\FreeRTOS\Source/event_groups.c ****             traceEVENT_GROUP_CREATE( pxEventBits );
 129:..\FreeRTOS\Source/event_groups.c ****         }
ARM GAS  C:\Users\Jason\AppData\Local\Temp\ccssYdtp.s 			page 5


 130:..\FreeRTOS\Source/event_groups.c ****         else
 131:..\FreeRTOS\Source/event_groups.c ****         {
 132:..\FreeRTOS\Source/event_groups.c ****             /* xEventGroupCreateStatic should only ever be called with
 133:..\FreeRTOS\Source/event_groups.c ****              * pxEventGroupBuffer pointing to a pre-allocated (compile time
 134:..\FreeRTOS\Source/event_groups.c ****              * allocated) StaticEventGroup_t variable. */
 135:..\FreeRTOS\Source/event_groups.c ****             traceEVENT_GROUP_CREATE_FAILED();
 136:..\FreeRTOS\Source/event_groups.c ****         }
 137:..\FreeRTOS\Source/event_groups.c **** 
 138:..\FreeRTOS\Source/event_groups.c ****         return pxEventBits;
 100              		.loc 1 138 0
 101 0046 FB68     		ldr	r3, [r7, #12]
 139:..\FreeRTOS\Source/event_groups.c ****     }
 102              		.loc 1 139 0
 103 0048 1800     		movs	r0, r3
 104 004a BD46     		mov	sp, r7
 105 004c 04B0     		add	sp, sp, #16
 106              		@ sp needed
 107 004e 80BD     		pop	{r7, pc}
 108              	.L9:
 109              		.align	2
 110              	.L8:
 111 0050 00000000 		.word	x
 112              		.cfi_endproc
 113              	.LFE0:
 114              		.size	xEventGroupCreateStatic, .-xEventGroupCreateStatic
 115              		.section	.text.xEventGroupCreate,"ax",%progbits
 116              		.align	2
 117              		.global	xEventGroupCreate
 118              		.code	16
 119              		.thumb_func
 120              		.type	xEventGroupCreate, %function
 121              	xEventGroupCreate:
 122              	.LFB1:
 140:..\FreeRTOS\Source/event_groups.c **** 
 141:..\FreeRTOS\Source/event_groups.c **** #endif /* configSUPPORT_STATIC_ALLOCATION */
 142:..\FreeRTOS\Source/event_groups.c **** /*-----------------------------------------------------------*/
 143:..\FreeRTOS\Source/event_groups.c **** 
 144:..\FreeRTOS\Source/event_groups.c **** #if ( configSUPPORT_DYNAMIC_ALLOCATION == 1 )
 145:..\FreeRTOS\Source/event_groups.c **** 
 146:..\FreeRTOS\Source/event_groups.c ****     EventGroupHandle_t xEventGroupCreate( void )
 147:..\FreeRTOS\Source/event_groups.c ****     {
 123              		.loc 1 147 0
 124              		.cfi_startproc
 125              		@ args = 0, pretend = 0, frame = 8
 126              		@ frame_needed = 1, uses_anonymous_args = 0
 127 0000 80B5     		push	{r7, lr}
 128              		.cfi_def_cfa_offset 8
 129              		.cfi_offset 7, -8
 130              		.cfi_offset 14, -4
 131 0002 82B0     		sub	sp, sp, #8
 132              		.cfi_def_cfa_offset 16
 133 0004 00AF     		add	r7, sp, #0
 134              		.cfi_def_cfa_register 7
 148:..\FreeRTOS\Source/event_groups.c ****         EventGroup_t * pxEventBits;
 149:..\FreeRTOS\Source/event_groups.c **** 
 150:..\FreeRTOS\Source/event_groups.c ****         /* Allocate the event group.  Justification for MISRA deviation as
 151:..\FreeRTOS\Source/event_groups.c ****          * follows:  pvPortMalloc() always ensures returned memory blocks are
ARM GAS  C:\Users\Jason\AppData\Local\Temp\ccssYdtp.s 			page 6


 152:..\FreeRTOS\Source/event_groups.c ****          * aligned per the requirements of the MCU stack.  In this case
 153:..\FreeRTOS\Source/event_groups.c ****          * pvPortMalloc() must return a pointer that is guaranteed to meet the
 154:..\FreeRTOS\Source/event_groups.c ****          * alignment requirements of the EventGroup_t structure - which (if you
 155:..\FreeRTOS\Source/event_groups.c ****          * follow it through) is the alignment requirements of the TickType_t type
 156:..\FreeRTOS\Source/event_groups.c ****          * (EventBits_t being of TickType_t itself).  Therefore, whenever the
 157:..\FreeRTOS\Source/event_groups.c ****          * stack alignment requirements are greater than or equal to the
 158:..\FreeRTOS\Source/event_groups.c ****          * TickType_t alignment requirements the cast is safe.  In other cases,
 159:..\FreeRTOS\Source/event_groups.c ****          * where the natural word size of the architecture is less than
 160:..\FreeRTOS\Source/event_groups.c ****          * sizeof( TickType_t ), the TickType_t variables will be accessed in two
 161:..\FreeRTOS\Source/event_groups.c ****          * or more reads operations, and the alignment requirements is only that
 162:..\FreeRTOS\Source/event_groups.c ****          * of each individual read. */
 163:..\FreeRTOS\Source/event_groups.c ****         pxEventBits = ( EventGroup_t * ) pvPortMalloc( sizeof( EventGroup_t ) ); /*lint !e9087 !e90
 135              		.loc 1 163 0
 136 0006 1C20     		movs	r0, #28
 137 0008 FFF7FEFF 		bl	pvPortMalloc
 138 000c 0300     		movs	r3, r0
 139 000e 7B60     		str	r3, [r7, #4]
 164:..\FreeRTOS\Source/event_groups.c **** 
 165:..\FreeRTOS\Source/event_groups.c ****         if( pxEventBits != NULL )
 140              		.loc 1 165 0
 141 0010 7B68     		ldr	r3, [r7, #4]
 142 0012 002B     		cmp	r3, #0
 143 0014 0AD0     		beq	.L11
 166:..\FreeRTOS\Source/event_groups.c ****         {
 167:..\FreeRTOS\Source/event_groups.c ****             pxEventBits->uxEventBits = 0;
 144              		.loc 1 167 0
 145 0016 7B68     		ldr	r3, [r7, #4]
 146 0018 0022     		movs	r2, #0
 147 001a 1A60     		str	r2, [r3]
 168:..\FreeRTOS\Source/event_groups.c ****             vListInitialise( &( pxEventBits->xTasksWaitingForBits ) );
 148              		.loc 1 168 0
 149 001c 7B68     		ldr	r3, [r7, #4]
 150 001e 0433     		adds	r3, r3, #4
 151 0020 1800     		movs	r0, r3
 152 0022 FFF7FEFF 		bl	vListInitialise
 169:..\FreeRTOS\Source/event_groups.c **** 
 170:..\FreeRTOS\Source/event_groups.c ****             #if ( configSUPPORT_STATIC_ALLOCATION == 1 )
 171:..\FreeRTOS\Source/event_groups.c ****                 {
 172:..\FreeRTOS\Source/event_groups.c ****                     /* Both static and dynamic allocation can be used, so note this
 173:..\FreeRTOS\Source/event_groups.c ****                      * event group was allocated statically in case the event group is
 174:..\FreeRTOS\Source/event_groups.c ****                      * later deleted. */
 175:..\FreeRTOS\Source/event_groups.c ****                     pxEventBits->ucStaticallyAllocated = pdFALSE;
 153              		.loc 1 175 0
 154 0026 7B68     		ldr	r3, [r7, #4]
 155 0028 0022     		movs	r2, #0
 156 002a 1A76     		strb	r2, [r3, #24]
 157              	.L11:
 176:..\FreeRTOS\Source/event_groups.c ****                 }
 177:..\FreeRTOS\Source/event_groups.c ****             #endif /* configSUPPORT_STATIC_ALLOCATION */
 178:..\FreeRTOS\Source/event_groups.c **** 
 179:..\FreeRTOS\Source/event_groups.c ****             traceEVENT_GROUP_CREATE( pxEventBits );
 180:..\FreeRTOS\Source/event_groups.c ****         }
 181:..\FreeRTOS\Source/event_groups.c ****         else
 182:..\FreeRTOS\Source/event_groups.c ****         {
 183:..\FreeRTOS\Source/event_groups.c ****             traceEVENT_GROUP_CREATE_FAILED(); /*lint !e9063 Else branch only exists to allow tracin
 184:..\FreeRTOS\Source/event_groups.c ****         }
 185:..\FreeRTOS\Source/event_groups.c **** 
ARM GAS  C:\Users\Jason\AppData\Local\Temp\ccssYdtp.s 			page 7


 186:..\FreeRTOS\Source/event_groups.c ****         return pxEventBits;
 158              		.loc 1 186 0
 159 002c 7B68     		ldr	r3, [r7, #4]
 187:..\FreeRTOS\Source/event_groups.c ****     }
 160              		.loc 1 187 0
 161 002e 1800     		movs	r0, r3
 162 0030 BD46     		mov	sp, r7
 163 0032 02B0     		add	sp, sp, #8
 164              		@ sp needed
 165 0034 80BD     		pop	{r7, pc}
 166              		.cfi_endproc
 167              	.LFE1:
 168              		.size	xEventGroupCreate, .-xEventGroupCreate
 169 0036 C046     		.section	.text.xEventGroupSync,"ax",%progbits
 170              		.align	2
 171              		.global	xEventGroupSync
 172              		.code	16
 173              		.thumb_func
 174              		.type	xEventGroupSync, %function
 175              	xEventGroupSync:
 176              	.LFB2:
 188:..\FreeRTOS\Source/event_groups.c **** 
 189:..\FreeRTOS\Source/event_groups.c **** #endif /* configSUPPORT_DYNAMIC_ALLOCATION */
 190:..\FreeRTOS\Source/event_groups.c **** /*-----------------------------------------------------------*/
 191:..\FreeRTOS\Source/event_groups.c **** 
 192:..\FreeRTOS\Source/event_groups.c **** EventBits_t xEventGroupSync( EventGroupHandle_t xEventGroup,
 193:..\FreeRTOS\Source/event_groups.c ****                              const EventBits_t uxBitsToSet,
 194:..\FreeRTOS\Source/event_groups.c ****                              const EventBits_t uxBitsToWaitFor,
 195:..\FreeRTOS\Source/event_groups.c ****                              TickType_t xTicksToWait )
 196:..\FreeRTOS\Source/event_groups.c **** {
 177              		.loc 1 196 0
 178              		.cfi_startproc
 179              		@ args = 0, pretend = 0, frame = 40
 180              		@ frame_needed = 1, uses_anonymous_args = 0
 181 0000 80B5     		push	{r7, lr}
 182              		.cfi_def_cfa_offset 8
 183              		.cfi_offset 7, -8
 184              		.cfi_offset 14, -4
 185 0002 8AB0     		sub	sp, sp, #40
 186              		.cfi_def_cfa_offset 48
 187 0004 00AF     		add	r7, sp, #0
 188              		.cfi_def_cfa_register 7
 189 0006 F860     		str	r0, [r7, #12]
 190 0008 B960     		str	r1, [r7, #8]
 191 000a 7A60     		str	r2, [r7, #4]
 192 000c 3B60     		str	r3, [r7]
 197:..\FreeRTOS\Source/event_groups.c ****     EventBits_t uxOriginalBitValue, uxReturn;
 198:..\FreeRTOS\Source/event_groups.c ****     EventGroup_t * pxEventBits = xEventGroup;
 193              		.loc 1 198 0
 194 000e FB68     		ldr	r3, [r7, #12]
 195 0010 3B62     		str	r3, [r7, #32]
 199:..\FreeRTOS\Source/event_groups.c ****     BaseType_t xAlreadyYielded;
 200:..\FreeRTOS\Source/event_groups.c ****     BaseType_t xTimeoutOccurred = pdFALSE;
 196              		.loc 1 200 0
 197 0012 0023     		movs	r3, #0
 198 0014 FB61     		str	r3, [r7, #28]
 201:..\FreeRTOS\Source/event_groups.c **** 
ARM GAS  C:\Users\Jason\AppData\Local\Temp\ccssYdtp.s 			page 8


 202:..\FreeRTOS\Source/event_groups.c ****     configASSERT( ( uxBitsToWaitFor & eventEVENT_BITS_CONTROL_BYTES ) == 0 );
 199              		.loc 1 202 0
 200 0016 404B     		ldr	r3, .L31
 201 0018 1B88     		ldrh	r3, [r3]
 202 001a 002B     		cmp	r3, #0
 203 001c 01D1     		bne	.L14
 204              		.loc 1 202 0 is_stmt 0 discriminator 1
 205              		.syntax divided
 206              	@ 202 "..\FreeRTOS\Source\event_groups.c" 1
 207 001e 72B6     		 cpsid i 
 208              	@ 0 "" 2
 209              		.thumb
 210              		.syntax unified
 211              	.L15:
 212 0020 FEE7     		b	.L15
 213              	.L14:
 203:..\FreeRTOS\Source/event_groups.c ****     configASSERT( uxBitsToWaitFor != 0 );
 214              		.loc 1 203 0 is_stmt 1 discriminator 2
 215 0022 3D4B     		ldr	r3, .L31
 216 0024 1B88     		ldrh	r3, [r3]
 217 0026 002B     		cmp	r3, #0
 218 0028 01D1     		bne	.L16
 219              		.loc 1 203 0 is_stmt 0 discriminator 1
 220              		.syntax divided
 221              	@ 203 "..\FreeRTOS\Source\event_groups.c" 1
 222 002a 72B6     		 cpsid i 
 223              	@ 0 "" 2
 224              		.thumb
 225              		.syntax unified
 226              	.L17:
 227              		.loc 1 203 0 discriminator 2
 228 002c FEE7     		b	.L17
 229              	.L16:
 204:..\FreeRTOS\Source/event_groups.c ****     #if ( ( INCLUDE_xTaskGetSchedulerState == 1 ) || ( configUSE_TIMERS == 1 ) )
 205:..\FreeRTOS\Source/event_groups.c ****         {
 206:..\FreeRTOS\Source/event_groups.c ****             configASSERT( !( ( xTaskGetSchedulerState() == taskSCHEDULER_SUSPENDED ) && ( xTicksToW
 230              		.loc 1 206 0 is_stmt 1
 231 002e 3A4B     		ldr	r3, .L31
 232 0030 1B88     		ldrh	r3, [r3]
 233 0032 002B     		cmp	r3, #0
 234 0034 01D1     		bne	.L18
 235              		.loc 1 206 0 is_stmt 0 discriminator 1
 236              		.syntax divided
 237              	@ 206 "..\FreeRTOS\Source\event_groups.c" 1
 238 0036 72B6     		 cpsid i 
 239              	@ 0 "" 2
 240              		.thumb
 241              		.syntax unified
 242              	.L19:
 243              		.loc 1 206 0 discriminator 3
 244 0038 FEE7     		b	.L19
 245              	.L18:
 246              		.loc 1 206 0 discriminator 2
 247 003a FFF7FEFF 		bl	xTaskGetSchedulerState
 248 003e 0300     		movs	r3, r0
 249 0040 C046     		nop
 207:..\FreeRTOS\Source/event_groups.c ****         }
ARM GAS  C:\Users\Jason\AppData\Local\Temp\ccssYdtp.s 			page 9


 208:..\FreeRTOS\Source/event_groups.c ****     #endif
 209:..\FreeRTOS\Source/event_groups.c **** 
 210:..\FreeRTOS\Source/event_groups.c ****     vTaskSuspendAll();
 250              		.loc 1 210 0 is_stmt 1 discriminator 2
 251 0042 FFF7FEFF 		bl	vTaskSuspendAll
 211:..\FreeRTOS\Source/event_groups.c ****     {
 212:..\FreeRTOS\Source/event_groups.c ****         uxOriginalBitValue = pxEventBits->uxEventBits;
 252              		.loc 1 212 0 discriminator 2
 253 0046 3B6A     		ldr	r3, [r7, #32]
 254 0048 1B68     		ldr	r3, [r3]
 255 004a BB61     		str	r3, [r7, #24]
 213:..\FreeRTOS\Source/event_groups.c **** 
 214:..\FreeRTOS\Source/event_groups.c ****         ( void ) xEventGroupSetBits( xEventGroup, uxBitsToSet );
 256              		.loc 1 214 0 discriminator 2
 257 004c BA68     		ldr	r2, [r7, #8]
 258 004e FB68     		ldr	r3, [r7, #12]
 259 0050 1100     		movs	r1, r2
 260 0052 1800     		movs	r0, r3
 261 0054 FFF7FEFF 		bl	xEventGroupSetBits
 215:..\FreeRTOS\Source/event_groups.c **** 
 216:..\FreeRTOS\Source/event_groups.c ****         if( ( ( uxOriginalBitValue | uxBitsToSet ) & uxBitsToWaitFor ) == uxBitsToWaitFor )
 262              		.loc 1 216 0 discriminator 2
 263 0058 BA69     		ldr	r2, [r7, #24]
 264 005a BB68     		ldr	r3, [r7, #8]
 265 005c 1343     		orrs	r3, r2
 266 005e 7A68     		ldr	r2, [r7, #4]
 267 0060 1A40     		ands	r2, r3
 268 0062 7B68     		ldr	r3, [r7, #4]
 269 0064 9A42     		cmp	r2, r3
 270 0066 0DD1     		bne	.L23
 217:..\FreeRTOS\Source/event_groups.c ****         {
 218:..\FreeRTOS\Source/event_groups.c ****             /* All the rendezvous bits are now set - no need to block. */
 219:..\FreeRTOS\Source/event_groups.c ****             uxReturn = ( uxOriginalBitValue | uxBitsToSet );
 271              		.loc 1 219 0
 272 0068 BA69     		ldr	r2, [r7, #24]
 273 006a BB68     		ldr	r3, [r7, #8]
 274 006c 1343     		orrs	r3, r2
 275 006e 7B62     		str	r3, [r7, #36]
 220:..\FreeRTOS\Source/event_groups.c **** 
 221:..\FreeRTOS\Source/event_groups.c ****             /* Rendezvous always clear the bits.  They will have been cleared
 222:..\FreeRTOS\Source/event_groups.c ****              * already unless this is the only task in the rendezvous. */
 223:..\FreeRTOS\Source/event_groups.c ****             pxEventBits->uxEventBits &= ~uxBitsToWaitFor;
 276              		.loc 1 223 0
 277 0070 3B6A     		ldr	r3, [r7, #32]
 278 0072 1B68     		ldr	r3, [r3]
 279 0074 7A68     		ldr	r2, [r7, #4]
 280 0076 D243     		mvns	r2, r2
 281 0078 1A40     		ands	r2, r3
 282 007a 3B6A     		ldr	r3, [r7, #32]
 283 007c 1A60     		str	r2, [r3]
 224:..\FreeRTOS\Source/event_groups.c **** 
 225:..\FreeRTOS\Source/event_groups.c ****             xTicksToWait = 0;
 284              		.loc 1 225 0
 285 007e 0023     		movs	r3, #0
 286 0080 3B60     		str	r3, [r7]
 287 0082 14E0     		b	.L24
 288              	.L23:
ARM GAS  C:\Users\Jason\AppData\Local\Temp\ccssYdtp.s 			page 10


 226:..\FreeRTOS\Source/event_groups.c ****         }
 227:..\FreeRTOS\Source/event_groups.c ****         else
 228:..\FreeRTOS\Source/event_groups.c ****         {
 229:..\FreeRTOS\Source/event_groups.c ****             if( xTicksToWait != ( TickType_t ) 0 )
 289              		.loc 1 229 0
 290 0084 3B68     		ldr	r3, [r7]
 291 0086 002B     		cmp	r3, #0
 292 0088 0CD0     		beq	.L25
 230:..\FreeRTOS\Source/event_groups.c ****             {
 231:..\FreeRTOS\Source/event_groups.c ****                 traceEVENT_GROUP_SYNC_BLOCK( xEventGroup, uxBitsToSet, uxBitsToWaitFor );
 232:..\FreeRTOS\Source/event_groups.c **** 
 233:..\FreeRTOS\Source/event_groups.c ****                 /* Store the bits that the calling task is waiting for in the
 234:..\FreeRTOS\Source/event_groups.c ****                  * task's event list item so the kernel knows when a match is
 235:..\FreeRTOS\Source/event_groups.c ****                  * found.  Then enter the blocked state. */
 236:..\FreeRTOS\Source/event_groups.c ****                 vTaskPlaceOnUnorderedEventList( &( pxEventBits->xTasksWaitingForBits ), ( uxBitsToW
 293              		.loc 1 236 0
 294 008a 3B6A     		ldr	r3, [r7, #32]
 295 008c 181D     		adds	r0, r3, #4
 296 008e 7B68     		ldr	r3, [r7, #4]
 297 0090 A022     		movs	r2, #160
 298 0092 D204     		lsls	r2, r2, #19
 299 0094 1343     		orrs	r3, r2
 300 0096 3A68     		ldr	r2, [r7]
 301 0098 1900     		movs	r1, r3
 302 009a FFF7FEFF 		bl	vTaskPlaceOnUnorderedEventList
 237:..\FreeRTOS\Source/event_groups.c **** 
 238:..\FreeRTOS\Source/event_groups.c ****                 /* This assignment is obsolete as uxReturn will get set after
 239:..\FreeRTOS\Source/event_groups.c ****                  * the task unblocks, but some compilers mistakenly generate a
 240:..\FreeRTOS\Source/event_groups.c ****                  * warning about uxReturn being returned without being set if the
 241:..\FreeRTOS\Source/event_groups.c ****                  * assignment is omitted. */
 242:..\FreeRTOS\Source/event_groups.c ****                 uxReturn = 0;
 303              		.loc 1 242 0
 304 009e 0023     		movs	r3, #0
 305 00a0 7B62     		str	r3, [r7, #36]
 306 00a2 04E0     		b	.L24
 307              	.L25:
 243:..\FreeRTOS\Source/event_groups.c ****             }
 244:..\FreeRTOS\Source/event_groups.c ****             else
 245:..\FreeRTOS\Source/event_groups.c ****             {
 246:..\FreeRTOS\Source/event_groups.c ****                 /* The rendezvous bits were not set, but no block time was
 247:..\FreeRTOS\Source/event_groups.c ****                  * specified - just return the current event bit value. */
 248:..\FreeRTOS\Source/event_groups.c ****                 uxReturn = pxEventBits->uxEventBits;
 308              		.loc 1 248 0
 309 00a4 3B6A     		ldr	r3, [r7, #32]
 310 00a6 1B68     		ldr	r3, [r3]
 311 00a8 7B62     		str	r3, [r7, #36]
 249:..\FreeRTOS\Source/event_groups.c ****                 xTimeoutOccurred = pdTRUE;
 312              		.loc 1 249 0
 313 00aa 0123     		movs	r3, #1
 314 00ac FB61     		str	r3, [r7, #28]
 315              	.L24:
 250:..\FreeRTOS\Source/event_groups.c ****             }
 251:..\FreeRTOS\Source/event_groups.c ****         }
 252:..\FreeRTOS\Source/event_groups.c ****     }
 253:..\FreeRTOS\Source/event_groups.c ****     xAlreadyYielded = xTaskResumeAll();
 316              		.loc 1 253 0
 317 00ae FFF7FEFF 		bl	xTaskResumeAll
ARM GAS  C:\Users\Jason\AppData\Local\Temp\ccssYdtp.s 			page 11


 318 00b2 0300     		movs	r3, r0
 319 00b4 7B61     		str	r3, [r7, #20]
 254:..\FreeRTOS\Source/event_groups.c **** 
 255:..\FreeRTOS\Source/event_groups.c ****     if( xTicksToWait != ( TickType_t ) 0 )
 320              		.loc 1 255 0
 321 00b6 3B68     		ldr	r3, [r7]
 322 00b8 002B     		cmp	r3, #0
 323 00ba 27D0     		beq	.L26
 256:..\FreeRTOS\Source/event_groups.c ****     {
 257:..\FreeRTOS\Source/event_groups.c ****         if( xAlreadyYielded == pdFALSE )
 324              		.loc 1 257 0
 325 00bc 7B69     		ldr	r3, [r7, #20]
 326 00be 002B     		cmp	r3, #0
 327 00c0 01D1     		bne	.L27
 258:..\FreeRTOS\Source/event_groups.c ****         {
 259:..\FreeRTOS\Source/event_groups.c ****             portYIELD_WITHIN_API();
 328              		.loc 1 259 0
 329 00c2 FFF7FEFF 		bl	vPortYield
 330              	.L27:
 260:..\FreeRTOS\Source/event_groups.c ****         }
 261:..\FreeRTOS\Source/event_groups.c ****         else
 262:..\FreeRTOS\Source/event_groups.c ****         {
 263:..\FreeRTOS\Source/event_groups.c ****             mtCOVERAGE_TEST_MARKER();
 264:..\FreeRTOS\Source/event_groups.c ****         }
 265:..\FreeRTOS\Source/event_groups.c **** 
 266:..\FreeRTOS\Source/event_groups.c ****         /* The task blocked to wait for its required bits to be set - at this
 267:..\FreeRTOS\Source/event_groups.c ****          * point either the required bits were set or the block time expired.  If
 268:..\FreeRTOS\Source/event_groups.c ****          * the required bits were set they will have been stored in the task's
 269:..\FreeRTOS\Source/event_groups.c ****          * event list item, and they should now be retrieved then cleared. */
 270:..\FreeRTOS\Source/event_groups.c ****         uxReturn = uxTaskResetEventItemValue();
 331              		.loc 1 270 0
 332 00c6 FFF7FEFF 		bl	uxTaskResetEventItemValue
 333 00ca 0300     		movs	r3, r0
 334 00cc 7B62     		str	r3, [r7, #36]
 271:..\FreeRTOS\Source/event_groups.c **** 
 272:..\FreeRTOS\Source/event_groups.c ****         if( ( uxReturn & eventUNBLOCKED_DUE_TO_BIT_SET ) == ( EventBits_t ) 0 )
 335              		.loc 1 272 0
 336 00ce 7A6A     		ldr	r2, [r7, #36]
 337 00d0 8023     		movs	r3, #128
 338 00d2 9B04     		lsls	r3, r3, #18
 339 00d4 1340     		ands	r3, r2
 340 00d6 15D1     		bne	.L28
 273:..\FreeRTOS\Source/event_groups.c ****         {
 274:..\FreeRTOS\Source/event_groups.c ****             /* The task timed out, just return the current event bit value. */
 275:..\FreeRTOS\Source/event_groups.c ****             taskENTER_CRITICAL();
 341              		.loc 1 275 0
 342 00d8 FFF7FEFF 		bl	vPortEnterCritical
 276:..\FreeRTOS\Source/event_groups.c ****             {
 277:..\FreeRTOS\Source/event_groups.c ****                 uxReturn = pxEventBits->uxEventBits;
 343              		.loc 1 277 0
 344 00dc 3B6A     		ldr	r3, [r7, #32]
 345 00de 1B68     		ldr	r3, [r3]
 346 00e0 7B62     		str	r3, [r7, #36]
 278:..\FreeRTOS\Source/event_groups.c **** 
 279:..\FreeRTOS\Source/event_groups.c ****                 /* Although the task got here because it timed out before the
 280:..\FreeRTOS\Source/event_groups.c ****                  * bits it was waiting for were set, it is possible that since it
 281:..\FreeRTOS\Source/event_groups.c ****                  * unblocked another task has set the bits.  If this is the case
ARM GAS  C:\Users\Jason\AppData\Local\Temp\ccssYdtp.s 			page 12


 282:..\FreeRTOS\Source/event_groups.c ****                  * then it needs to clear the bits before exiting. */
 283:..\FreeRTOS\Source/event_groups.c ****                 if( ( uxReturn & uxBitsToWaitFor ) == uxBitsToWaitFor )
 347              		.loc 1 283 0
 348 00e2 7B6A     		ldr	r3, [r7, #36]
 349 00e4 7A68     		ldr	r2, [r7, #4]
 350 00e6 1A40     		ands	r2, r3
 351 00e8 7B68     		ldr	r3, [r7, #4]
 352 00ea 9A42     		cmp	r2, r3
 353 00ec 06D1     		bne	.L29
 284:..\FreeRTOS\Source/event_groups.c ****                 {
 285:..\FreeRTOS\Source/event_groups.c ****                     pxEventBits->uxEventBits &= ~uxBitsToWaitFor;
 354              		.loc 1 285 0
 355 00ee 3B6A     		ldr	r3, [r7, #32]
 356 00f0 1B68     		ldr	r3, [r3]
 357 00f2 7A68     		ldr	r2, [r7, #4]
 358 00f4 D243     		mvns	r2, r2
 359 00f6 1A40     		ands	r2, r3
 360 00f8 3B6A     		ldr	r3, [r7, #32]
 361 00fa 1A60     		str	r2, [r3]
 362              	.L29:
 286:..\FreeRTOS\Source/event_groups.c ****                 }
 287:..\FreeRTOS\Source/event_groups.c ****                 else
 288:..\FreeRTOS\Source/event_groups.c ****                 {
 289:..\FreeRTOS\Source/event_groups.c ****                     mtCOVERAGE_TEST_MARKER();
 290:..\FreeRTOS\Source/event_groups.c ****                 }
 291:..\FreeRTOS\Source/event_groups.c ****             }
 292:..\FreeRTOS\Source/event_groups.c ****             taskEXIT_CRITICAL();
 363              		.loc 1 292 0
 364 00fc FFF7FEFF 		bl	vPortExitCritical
 293:..\FreeRTOS\Source/event_groups.c **** 
 294:..\FreeRTOS\Source/event_groups.c ****             xTimeoutOccurred = pdTRUE;
 365              		.loc 1 294 0
 366 0100 0123     		movs	r3, #1
 367 0102 FB61     		str	r3, [r7, #28]
 368              	.L28:
 295:..\FreeRTOS\Source/event_groups.c ****         }
 296:..\FreeRTOS\Source/event_groups.c ****         else
 297:..\FreeRTOS\Source/event_groups.c ****         {
 298:..\FreeRTOS\Source/event_groups.c ****             /* The task unblocked because the bits were set. */
 299:..\FreeRTOS\Source/event_groups.c ****         }
 300:..\FreeRTOS\Source/event_groups.c **** 
 301:..\FreeRTOS\Source/event_groups.c ****         /* Control bits might be set as the task had blocked should not be
 302:..\FreeRTOS\Source/event_groups.c ****          * returned. */
 303:..\FreeRTOS\Source/event_groups.c ****         uxReturn &= ~eventEVENT_BITS_CONTROL_BYTES;
 369              		.loc 1 303 0
 370 0104 7B6A     		ldr	r3, [r7, #36]
 371 0106 1B02     		lsls	r3, r3, #8
 372 0108 1B0A     		lsrs	r3, r3, #8
 373 010a 7B62     		str	r3, [r7, #36]
 374              	.L26:
 304:..\FreeRTOS\Source/event_groups.c ****     }
 305:..\FreeRTOS\Source/event_groups.c **** 
 306:..\FreeRTOS\Source/event_groups.c ****     traceEVENT_GROUP_SYNC_END( xEventGroup, uxBitsToSet, uxBitsToWaitFor, xTimeoutOccurred );
 307:..\FreeRTOS\Source/event_groups.c **** 
 308:..\FreeRTOS\Source/event_groups.c ****     /* Prevent compiler warnings when trace macros are not used. */
 309:..\FreeRTOS\Source/event_groups.c ****     ( void ) xTimeoutOccurred;
 310:..\FreeRTOS\Source/event_groups.c **** 
ARM GAS  C:\Users\Jason\AppData\Local\Temp\ccssYdtp.s 			page 13


 311:..\FreeRTOS\Source/event_groups.c ****     return uxReturn;
 375              		.loc 1 311 0
 376 010c 7B6A     		ldr	r3, [r7, #36]
 312:..\FreeRTOS\Source/event_groups.c **** }
 377              		.loc 1 312 0
 378 010e 1800     		movs	r0, r3
 379 0110 BD46     		mov	sp, r7
 380 0112 0AB0     		add	sp, sp, #40
 381              		@ sp needed
 382 0114 80BD     		pop	{r7, pc}
 383              	.L32:
 384 0116 C046     		.align	2
 385              	.L31:
 386 0118 00000000 		.word	x
 387              		.cfi_endproc
 388              	.LFE2:
 389              		.size	xEventGroupSync, .-xEventGroupSync
 390              		.section	.text.xEventGroupWaitBits,"ax",%progbits
 391              		.align	2
 392              		.global	xEventGroupWaitBits
 393              		.code	16
 394              		.thumb_func
 395              		.type	xEventGroupWaitBits, %function
 396              	xEventGroupWaitBits:
 397              	.LFB3:
 313:..\FreeRTOS\Source/event_groups.c **** /*-----------------------------------------------------------*/
 314:..\FreeRTOS\Source/event_groups.c **** 
 315:..\FreeRTOS\Source/event_groups.c **** EventBits_t xEventGroupWaitBits( EventGroupHandle_t xEventGroup,
 316:..\FreeRTOS\Source/event_groups.c ****                                  const EventBits_t uxBitsToWaitFor,
 317:..\FreeRTOS\Source/event_groups.c ****                                  const BaseType_t xClearOnExit,
 318:..\FreeRTOS\Source/event_groups.c ****                                  const BaseType_t xWaitForAllBits,
 319:..\FreeRTOS\Source/event_groups.c ****                                  TickType_t xTicksToWait )
 320:..\FreeRTOS\Source/event_groups.c **** {
 398              		.loc 1 320 0
 399              		.cfi_startproc
 400              		@ args = 4, pretend = 0, frame = 48
 401              		@ frame_needed = 1, uses_anonymous_args = 0
 402 0000 80B5     		push	{r7, lr}
 403              		.cfi_def_cfa_offset 8
 404              		.cfi_offset 7, -8
 405              		.cfi_offset 14, -4
 406 0002 8CB0     		sub	sp, sp, #48
 407              		.cfi_def_cfa_offset 56
 408 0004 00AF     		add	r7, sp, #0
 409              		.cfi_def_cfa_register 7
 410 0006 F860     		str	r0, [r7, #12]
 411 0008 B960     		str	r1, [r7, #8]
 412 000a 7A60     		str	r2, [r7, #4]
 413 000c 3B60     		str	r3, [r7]
 321:..\FreeRTOS\Source/event_groups.c ****     EventGroup_t * pxEventBits = xEventGroup;
 414              		.loc 1 321 0
 415 000e FB68     		ldr	r3, [r7, #12]
 416 0010 7B62     		str	r3, [r7, #36]
 322:..\FreeRTOS\Source/event_groups.c ****     EventBits_t uxReturn, uxControlBits = 0;
 417              		.loc 1 322 0
 418 0012 0023     		movs	r3, #0
 419 0014 BB62     		str	r3, [r7, #40]
ARM GAS  C:\Users\Jason\AppData\Local\Temp\ccssYdtp.s 			page 14


 323:..\FreeRTOS\Source/event_groups.c ****     BaseType_t xWaitConditionMet, xAlreadyYielded;
 324:..\FreeRTOS\Source/event_groups.c ****     BaseType_t xTimeoutOccurred = pdFALSE;
 420              		.loc 1 324 0
 421 0016 0023     		movs	r3, #0
 422 0018 3B62     		str	r3, [r7, #32]
 325:..\FreeRTOS\Source/event_groups.c **** 
 326:..\FreeRTOS\Source/event_groups.c ****     /* Check the user is not attempting to wait on the bits used by the kernel
 327:..\FreeRTOS\Source/event_groups.c ****      * itself, and that at least one bit is being requested. */
 328:..\FreeRTOS\Source/event_groups.c ****     configASSERT( xEventGroup );
 423              		.loc 1 328 0
 424 001a 4B4B     		ldr	r3, .L55
 425 001c 1B88     		ldrh	r3, [r3]
 426 001e 002B     		cmp	r3, #0
 427 0020 01D1     		bne	.L34
 428              		.loc 1 328 0 is_stmt 0 discriminator 1
 429              		.syntax divided
 430              	@ 328 "..\FreeRTOS\Source\event_groups.c" 1
 431 0022 72B6     		 cpsid i 
 432              	@ 0 "" 2
 433              		.thumb
 434              		.syntax unified
 435              	.L35:
 436 0024 FEE7     		b	.L35
 437              	.L34:
 329:..\FreeRTOS\Source/event_groups.c ****     configASSERT( ( uxBitsToWaitFor & eventEVENT_BITS_CONTROL_BYTES ) == 0 );
 438              		.loc 1 329 0 is_stmt 1
 439 0026 484B     		ldr	r3, .L55
 440 0028 1B88     		ldrh	r3, [r3]
 441 002a 002B     		cmp	r3, #0
 442 002c 01D1     		bne	.L36
 443              		.loc 1 329 0 is_stmt 0 discriminator 1
 444              		.syntax divided
 445              	@ 329 "..\FreeRTOS\Source\event_groups.c" 1
 446 002e 72B6     		 cpsid i 
 447              	@ 0 "" 2
 448              		.thumb
 449              		.syntax unified
 450              	.L37:
 451              		.loc 1 329 0 discriminator 2
 452 0030 FEE7     		b	.L37
 453              	.L36:
 330:..\FreeRTOS\Source/event_groups.c ****     configASSERT( uxBitsToWaitFor != 0 );
 454              		.loc 1 330 0 is_stmt 1 discriminator 2
 455 0032 454B     		ldr	r3, .L55
 456 0034 1B88     		ldrh	r3, [r3]
 457 0036 002B     		cmp	r3, #0
 458 0038 01D1     		bne	.L38
 459              		.loc 1 330 0 is_stmt 0 discriminator 1
 460              		.syntax divided
 461              	@ 330 "..\FreeRTOS\Source\event_groups.c" 1
 462 003a 72B6     		 cpsid i 
 463              	@ 0 "" 2
 464              		.thumb
 465              		.syntax unified
 466              	.L39:
 467              		.loc 1 330 0 discriminator 3
 468 003c FEE7     		b	.L39
ARM GAS  C:\Users\Jason\AppData\Local\Temp\ccssYdtp.s 			page 15


 469              	.L38:
 331:..\FreeRTOS\Source/event_groups.c ****     #if ( ( INCLUDE_xTaskGetSchedulerState == 1 ) || ( configUSE_TIMERS == 1 ) )
 332:..\FreeRTOS\Source/event_groups.c ****         {
 333:..\FreeRTOS\Source/event_groups.c ****             configASSERT( !( ( xTaskGetSchedulerState() == taskSCHEDULER_SUSPENDED ) && ( xTicksToW
 470              		.loc 1 333 0 is_stmt 1
 471 003e 424B     		ldr	r3, .L55
 472 0040 1B88     		ldrh	r3, [r3]
 473 0042 002B     		cmp	r3, #0
 474 0044 01D1     		bne	.L40
 475              		.loc 1 333 0 is_stmt 0 discriminator 1
 476              		.syntax divided
 477              	@ 333 "..\FreeRTOS\Source\event_groups.c" 1
 478 0046 72B6     		 cpsid i 
 479              	@ 0 "" 2
 480              		.thumb
 481              		.syntax unified
 482              	.L41:
 483              		.loc 1 333 0 discriminator 4
 484 0048 FEE7     		b	.L41
 485              	.L40:
 486              		.loc 1 333 0 discriminator 2
 487 004a FFF7FEFF 		bl	xTaskGetSchedulerState
 488 004e 0300     		movs	r3, r0
 489 0050 C046     		nop
 334:..\FreeRTOS\Source/event_groups.c ****         }
 335:..\FreeRTOS\Source/event_groups.c ****     #endif
 336:..\FreeRTOS\Source/event_groups.c **** 
 337:..\FreeRTOS\Source/event_groups.c ****     vTaskSuspendAll();
 490              		.loc 1 337 0 is_stmt 1 discriminator 2
 491 0052 FFF7FEFF 		bl	vTaskSuspendAll
 492              	.LBB3:
 338:..\FreeRTOS\Source/event_groups.c ****     {
 339:..\FreeRTOS\Source/event_groups.c ****         const EventBits_t uxCurrentEventBits = pxEventBits->uxEventBits;
 493              		.loc 1 339 0 discriminator 2
 494 0056 7B6A     		ldr	r3, [r7, #36]
 495 0058 1B68     		ldr	r3, [r3]
 496 005a FB61     		str	r3, [r7, #28]
 340:..\FreeRTOS\Source/event_groups.c **** 
 341:..\FreeRTOS\Source/event_groups.c ****         /* Check to see if the wait condition is already met or not. */
 342:..\FreeRTOS\Source/event_groups.c ****         xWaitConditionMet = prvTestWaitCondition( uxCurrentEventBits, uxBitsToWaitFor, xWaitForAllB
 497              		.loc 1 342 0 discriminator 2
 498 005c 3A68     		ldr	r2, [r7]
 499 005e B968     		ldr	r1, [r7, #8]
 500 0060 FB69     		ldr	r3, [r7, #28]
 501 0062 1800     		movs	r0, r3
 502 0064 FFF7FEFF 		bl	prvTestWaitCondition
 503 0068 0300     		movs	r3, r0
 504 006a BB61     		str	r3, [r7, #24]
 343:..\FreeRTOS\Source/event_groups.c **** 
 344:..\FreeRTOS\Source/event_groups.c ****         if( xWaitConditionMet != pdFALSE )
 505              		.loc 1 344 0 discriminator 2
 506 006c BB69     		ldr	r3, [r7, #24]
 507 006e 002B     		cmp	r3, #0
 508 0070 0ED0     		beq	.L45
 345:..\FreeRTOS\Source/event_groups.c ****         {
 346:..\FreeRTOS\Source/event_groups.c ****             /* The wait condition has already been met so there is no need to
 347:..\FreeRTOS\Source/event_groups.c ****              * block. */
ARM GAS  C:\Users\Jason\AppData\Local\Temp\ccssYdtp.s 			page 16


 348:..\FreeRTOS\Source/event_groups.c ****             uxReturn = uxCurrentEventBits;
 509              		.loc 1 348 0
 510 0072 FB69     		ldr	r3, [r7, #28]
 511 0074 FB62     		str	r3, [r7, #44]
 349:..\FreeRTOS\Source/event_groups.c ****             xTicksToWait = ( TickType_t ) 0;
 512              		.loc 1 349 0
 513 0076 0023     		movs	r3, #0
 514 0078 BB63     		str	r3, [r7, #56]
 350:..\FreeRTOS\Source/event_groups.c **** 
 351:..\FreeRTOS\Source/event_groups.c ****             /* Clear the wait bits if requested to do so. */
 352:..\FreeRTOS\Source/event_groups.c ****             if( xClearOnExit != pdFALSE )
 515              		.loc 1 352 0
 516 007a 7B68     		ldr	r3, [r7, #4]
 517 007c 002B     		cmp	r3, #0
 518 007e 2AD0     		beq	.L46
 353:..\FreeRTOS\Source/event_groups.c ****             {
 354:..\FreeRTOS\Source/event_groups.c ****                 pxEventBits->uxEventBits &= ~uxBitsToWaitFor;
 519              		.loc 1 354 0
 520 0080 7B6A     		ldr	r3, [r7, #36]
 521 0082 1B68     		ldr	r3, [r3]
 522 0084 BA68     		ldr	r2, [r7, #8]
 523 0086 D243     		mvns	r2, r2
 524 0088 1A40     		ands	r2, r3
 525 008a 7B6A     		ldr	r3, [r7, #36]
 526 008c 1A60     		str	r2, [r3]
 527 008e 22E0     		b	.L46
 528              	.L45:
 355:..\FreeRTOS\Source/event_groups.c ****             }
 356:..\FreeRTOS\Source/event_groups.c ****             else
 357:..\FreeRTOS\Source/event_groups.c ****             {
 358:..\FreeRTOS\Source/event_groups.c ****                 mtCOVERAGE_TEST_MARKER();
 359:..\FreeRTOS\Source/event_groups.c ****             }
 360:..\FreeRTOS\Source/event_groups.c ****         }
 361:..\FreeRTOS\Source/event_groups.c ****         else if( xTicksToWait == ( TickType_t ) 0 )
 529              		.loc 1 361 0
 530 0090 BB6B     		ldr	r3, [r7, #56]
 531 0092 002B     		cmp	r3, #0
 532 0094 04D1     		bne	.L47
 362:..\FreeRTOS\Source/event_groups.c ****         {
 363:..\FreeRTOS\Source/event_groups.c ****             /* The wait condition has not been met, but no block time was
 364:..\FreeRTOS\Source/event_groups.c ****              * specified, so just return the current value. */
 365:..\FreeRTOS\Source/event_groups.c ****             uxReturn = uxCurrentEventBits;
 533              		.loc 1 365 0
 534 0096 FB69     		ldr	r3, [r7, #28]
 535 0098 FB62     		str	r3, [r7, #44]
 366:..\FreeRTOS\Source/event_groups.c ****             xTimeoutOccurred = pdTRUE;
 536              		.loc 1 366 0
 537 009a 0123     		movs	r3, #1
 538 009c 3B62     		str	r3, [r7, #32]
 539 009e 1AE0     		b	.L46
 540              	.L47:
 367:..\FreeRTOS\Source/event_groups.c ****         }
 368:..\FreeRTOS\Source/event_groups.c ****         else
 369:..\FreeRTOS\Source/event_groups.c ****         {
 370:..\FreeRTOS\Source/event_groups.c ****             /* The task is going to block to wait for its required bits to be
 371:..\FreeRTOS\Source/event_groups.c ****              * set.  uxControlBits are used to remember the specified behaviour of
 372:..\FreeRTOS\Source/event_groups.c ****              * this call to xEventGroupWaitBits() - for use when the event bits
ARM GAS  C:\Users\Jason\AppData\Local\Temp\ccssYdtp.s 			page 17


 373:..\FreeRTOS\Source/event_groups.c ****              * unblock the task. */
 374:..\FreeRTOS\Source/event_groups.c ****             if( xClearOnExit != pdFALSE )
 541              		.loc 1 374 0
 542 00a0 7B68     		ldr	r3, [r7, #4]
 543 00a2 002B     		cmp	r3, #0
 544 00a4 04D0     		beq	.L48
 375:..\FreeRTOS\Source/event_groups.c ****             {
 376:..\FreeRTOS\Source/event_groups.c ****                 uxControlBits |= eventCLEAR_EVENTS_ON_EXIT_BIT;
 545              		.loc 1 376 0
 546 00a6 BB6A     		ldr	r3, [r7, #40]
 547 00a8 8022     		movs	r2, #128
 548 00aa 5204     		lsls	r2, r2, #17
 549 00ac 1343     		orrs	r3, r2
 550 00ae BB62     		str	r3, [r7, #40]
 551              	.L48:
 377:..\FreeRTOS\Source/event_groups.c ****             }
 378:..\FreeRTOS\Source/event_groups.c ****             else
 379:..\FreeRTOS\Source/event_groups.c ****             {
 380:..\FreeRTOS\Source/event_groups.c ****                 mtCOVERAGE_TEST_MARKER();
 381:..\FreeRTOS\Source/event_groups.c ****             }
 382:..\FreeRTOS\Source/event_groups.c **** 
 383:..\FreeRTOS\Source/event_groups.c ****             if( xWaitForAllBits != pdFALSE )
 552              		.loc 1 383 0
 553 00b0 3B68     		ldr	r3, [r7]
 554 00b2 002B     		cmp	r3, #0
 555 00b4 04D0     		beq	.L49
 384:..\FreeRTOS\Source/event_groups.c ****             {
 385:..\FreeRTOS\Source/event_groups.c ****                 uxControlBits |= eventWAIT_FOR_ALL_BITS;
 556              		.loc 1 385 0
 557 00b6 BB6A     		ldr	r3, [r7, #40]
 558 00b8 8022     		movs	r2, #128
 559 00ba D204     		lsls	r2, r2, #19
 560 00bc 1343     		orrs	r3, r2
 561 00be BB62     		str	r3, [r7, #40]
 562              	.L49:
 386:..\FreeRTOS\Source/event_groups.c ****             }
 387:..\FreeRTOS\Source/event_groups.c ****             else
 388:..\FreeRTOS\Source/event_groups.c ****             {
 389:..\FreeRTOS\Source/event_groups.c ****                 mtCOVERAGE_TEST_MARKER();
 390:..\FreeRTOS\Source/event_groups.c ****             }
 391:..\FreeRTOS\Source/event_groups.c **** 
 392:..\FreeRTOS\Source/event_groups.c ****             /* Store the bits that the calling task is waiting for in the
 393:..\FreeRTOS\Source/event_groups.c ****              * task's event list item so the kernel knows when a match is
 394:..\FreeRTOS\Source/event_groups.c ****              * found.  Then enter the blocked state. */
 395:..\FreeRTOS\Source/event_groups.c ****             vTaskPlaceOnUnorderedEventList( &( pxEventBits->xTasksWaitingForBits ), ( uxBitsToWaitF
 563              		.loc 1 395 0
 564 00c0 7B6A     		ldr	r3, [r7, #36]
 565 00c2 181D     		adds	r0, r3, #4
 566 00c4 BA68     		ldr	r2, [r7, #8]
 567 00c6 BB6A     		ldr	r3, [r7, #40]
 568 00c8 1343     		orrs	r3, r2
 569 00ca BA6B     		ldr	r2, [r7, #56]
 570 00cc 1900     		movs	r1, r3
 571 00ce FFF7FEFF 		bl	vTaskPlaceOnUnorderedEventList
 396:..\FreeRTOS\Source/event_groups.c **** 
 397:..\FreeRTOS\Source/event_groups.c ****             /* This is obsolete as it will get set after the task unblocks, but
 398:..\FreeRTOS\Source/event_groups.c ****              * some compilers mistakenly generate a warning about the variable
ARM GAS  C:\Users\Jason\AppData\Local\Temp\ccssYdtp.s 			page 18


 399:..\FreeRTOS\Source/event_groups.c ****              * being returned without being set if it is not done. */
 400:..\FreeRTOS\Source/event_groups.c ****             uxReturn = 0;
 572              		.loc 1 400 0
 573 00d2 0023     		movs	r3, #0
 574 00d4 FB62     		str	r3, [r7, #44]
 575              	.L46:
 576              	.LBE3:
 401:..\FreeRTOS\Source/event_groups.c **** 
 402:..\FreeRTOS\Source/event_groups.c ****             traceEVENT_GROUP_WAIT_BITS_BLOCK( xEventGroup, uxBitsToWaitFor );
 403:..\FreeRTOS\Source/event_groups.c ****         }
 404:..\FreeRTOS\Source/event_groups.c ****     }
 405:..\FreeRTOS\Source/event_groups.c ****     xAlreadyYielded = xTaskResumeAll();
 577              		.loc 1 405 0
 578 00d6 FFF7FEFF 		bl	xTaskResumeAll
 579 00da 0300     		movs	r3, r0
 580 00dc 7B61     		str	r3, [r7, #20]
 406:..\FreeRTOS\Source/event_groups.c **** 
 407:..\FreeRTOS\Source/event_groups.c ****     if( xTicksToWait != ( TickType_t ) 0 )
 581              		.loc 1 407 0
 582 00de BB6B     		ldr	r3, [r7, #56]
 583 00e0 002B     		cmp	r3, #0
 584 00e2 2CD0     		beq	.L50
 408:..\FreeRTOS\Source/event_groups.c ****     {
 409:..\FreeRTOS\Source/event_groups.c ****         if( xAlreadyYielded == pdFALSE )
 585              		.loc 1 409 0
 586 00e4 7B69     		ldr	r3, [r7, #20]
 587 00e6 002B     		cmp	r3, #0
 588 00e8 01D1     		bne	.L51
 410:..\FreeRTOS\Source/event_groups.c ****         {
 411:..\FreeRTOS\Source/event_groups.c ****             portYIELD_WITHIN_API();
 589              		.loc 1 411 0
 590 00ea FFF7FEFF 		bl	vPortYield
 591              	.L51:
 412:..\FreeRTOS\Source/event_groups.c ****         }
 413:..\FreeRTOS\Source/event_groups.c ****         else
 414:..\FreeRTOS\Source/event_groups.c ****         {
 415:..\FreeRTOS\Source/event_groups.c ****             mtCOVERAGE_TEST_MARKER();
 416:..\FreeRTOS\Source/event_groups.c ****         }
 417:..\FreeRTOS\Source/event_groups.c **** 
 418:..\FreeRTOS\Source/event_groups.c ****         /* The task blocked to wait for its required bits to be set - at this
 419:..\FreeRTOS\Source/event_groups.c ****          * point either the required bits were set or the block time expired.  If
 420:..\FreeRTOS\Source/event_groups.c ****          * the required bits were set they will have been stored in the task's
 421:..\FreeRTOS\Source/event_groups.c ****          * event list item, and they should now be retrieved then cleared. */
 422:..\FreeRTOS\Source/event_groups.c ****         uxReturn = uxTaskResetEventItemValue();
 592              		.loc 1 422 0
 593 00ee FFF7FEFF 		bl	uxTaskResetEventItemValue
 594 00f2 0300     		movs	r3, r0
 595 00f4 FB62     		str	r3, [r7, #44]
 423:..\FreeRTOS\Source/event_groups.c **** 
 424:..\FreeRTOS\Source/event_groups.c ****         if( ( uxReturn & eventUNBLOCKED_DUE_TO_BIT_SET ) == ( EventBits_t ) 0 )
 596              		.loc 1 424 0
 597 00f6 FA6A     		ldr	r2, [r7, #44]
 598 00f8 8023     		movs	r3, #128
 599 00fa 9B04     		lsls	r3, r3, #18
 600 00fc 1340     		ands	r3, r2
 601 00fe 1AD1     		bne	.L52
 425:..\FreeRTOS\Source/event_groups.c ****         {
ARM GAS  C:\Users\Jason\AppData\Local\Temp\ccssYdtp.s 			page 19


 426:..\FreeRTOS\Source/event_groups.c ****             taskENTER_CRITICAL();
 602              		.loc 1 426 0
 603 0100 FFF7FEFF 		bl	vPortEnterCritical
 427:..\FreeRTOS\Source/event_groups.c ****             {
 428:..\FreeRTOS\Source/event_groups.c ****                 /* The task timed out, just return the current event bit value. */
 429:..\FreeRTOS\Source/event_groups.c ****                 uxReturn = pxEventBits->uxEventBits;
 604              		.loc 1 429 0
 605 0104 7B6A     		ldr	r3, [r7, #36]
 606 0106 1B68     		ldr	r3, [r3]
 607 0108 FB62     		str	r3, [r7, #44]
 430:..\FreeRTOS\Source/event_groups.c **** 
 431:..\FreeRTOS\Source/event_groups.c ****                 /* It is possible that the event bits were updated between this
 432:..\FreeRTOS\Source/event_groups.c ****                  * task leaving the Blocked state and running again. */
 433:..\FreeRTOS\Source/event_groups.c ****                 if( prvTestWaitCondition( uxReturn, uxBitsToWaitFor, xWaitForAllBits ) != pdFALSE )
 608              		.loc 1 433 0
 609 010a 3A68     		ldr	r2, [r7]
 610 010c B968     		ldr	r1, [r7, #8]
 611 010e FB6A     		ldr	r3, [r7, #44]
 612 0110 1800     		movs	r0, r3
 613 0112 FFF7FEFF 		bl	prvTestWaitCondition
 614 0116 031E     		subs	r3, r0, #0
 615 0118 09D0     		beq	.L53
 434:..\FreeRTOS\Source/event_groups.c ****                 {
 435:..\FreeRTOS\Source/event_groups.c ****                     if( xClearOnExit != pdFALSE )
 616              		.loc 1 435 0
 617 011a 7B68     		ldr	r3, [r7, #4]
 618 011c 002B     		cmp	r3, #0
 619 011e 06D0     		beq	.L53
 436:..\FreeRTOS\Source/event_groups.c ****                     {
 437:..\FreeRTOS\Source/event_groups.c ****                         pxEventBits->uxEventBits &= ~uxBitsToWaitFor;
 620              		.loc 1 437 0
 621 0120 7B6A     		ldr	r3, [r7, #36]
 622 0122 1B68     		ldr	r3, [r3]
 623 0124 BA68     		ldr	r2, [r7, #8]
 624 0126 D243     		mvns	r2, r2
 625 0128 1A40     		ands	r2, r3
 626 012a 7B6A     		ldr	r3, [r7, #36]
 627 012c 1A60     		str	r2, [r3]
 628              	.L53:
 438:..\FreeRTOS\Source/event_groups.c ****                     }
 439:..\FreeRTOS\Source/event_groups.c ****                     else
 440:..\FreeRTOS\Source/event_groups.c ****                     {
 441:..\FreeRTOS\Source/event_groups.c ****                         mtCOVERAGE_TEST_MARKER();
 442:..\FreeRTOS\Source/event_groups.c ****                     }
 443:..\FreeRTOS\Source/event_groups.c ****                 }
 444:..\FreeRTOS\Source/event_groups.c ****                 else
 445:..\FreeRTOS\Source/event_groups.c ****                 {
 446:..\FreeRTOS\Source/event_groups.c ****                     mtCOVERAGE_TEST_MARKER();
 447:..\FreeRTOS\Source/event_groups.c ****                 }
 448:..\FreeRTOS\Source/event_groups.c **** 
 449:..\FreeRTOS\Source/event_groups.c ****                 xTimeoutOccurred = pdTRUE;
 629              		.loc 1 449 0
 630 012e 0123     		movs	r3, #1
 631 0130 3B62     		str	r3, [r7, #32]
 450:..\FreeRTOS\Source/event_groups.c ****             }
 451:..\FreeRTOS\Source/event_groups.c ****             taskEXIT_CRITICAL();
 632              		.loc 1 451 0
ARM GAS  C:\Users\Jason\AppData\Local\Temp\ccssYdtp.s 			page 20


 633 0132 FFF7FEFF 		bl	vPortExitCritical
 634              	.L52:
 452:..\FreeRTOS\Source/event_groups.c ****         }
 453:..\FreeRTOS\Source/event_groups.c ****         else
 454:..\FreeRTOS\Source/event_groups.c ****         {
 455:..\FreeRTOS\Source/event_groups.c ****             /* The task unblocked because the bits were set. */
 456:..\FreeRTOS\Source/event_groups.c ****         }
 457:..\FreeRTOS\Source/event_groups.c **** 
 458:..\FreeRTOS\Source/event_groups.c ****         /* The task blocked so control bits may have been set. */
 459:..\FreeRTOS\Source/event_groups.c ****         uxReturn &= ~eventEVENT_BITS_CONTROL_BYTES;
 635              		.loc 1 459 0
 636 0136 FB6A     		ldr	r3, [r7, #44]
 637 0138 1B02     		lsls	r3, r3, #8
 638 013a 1B0A     		lsrs	r3, r3, #8
 639 013c FB62     		str	r3, [r7, #44]
 640              	.L50:
 460:..\FreeRTOS\Source/event_groups.c ****     }
 461:..\FreeRTOS\Source/event_groups.c **** 
 462:..\FreeRTOS\Source/event_groups.c ****     traceEVENT_GROUP_WAIT_BITS_END( xEventGroup, uxBitsToWaitFor, xTimeoutOccurred );
 463:..\FreeRTOS\Source/event_groups.c **** 
 464:..\FreeRTOS\Source/event_groups.c ****     /* Prevent compiler warnings when trace macros are not used. */
 465:..\FreeRTOS\Source/event_groups.c ****     ( void ) xTimeoutOccurred;
 466:..\FreeRTOS\Source/event_groups.c **** 
 467:..\FreeRTOS\Source/event_groups.c ****     return uxReturn;
 641              		.loc 1 467 0
 642 013e FB6A     		ldr	r3, [r7, #44]
 468:..\FreeRTOS\Source/event_groups.c **** }
 643              		.loc 1 468 0
 644 0140 1800     		movs	r0, r3
 645 0142 BD46     		mov	sp, r7
 646 0144 0CB0     		add	sp, sp, #48
 647              		@ sp needed
 648 0146 80BD     		pop	{r7, pc}
 649              	.L56:
 650              		.align	2
 651              	.L55:
 652 0148 00000000 		.word	x
 653              		.cfi_endproc
 654              	.LFE3:
 655              		.size	xEventGroupWaitBits, .-xEventGroupWaitBits
 656              		.section	.text.xEventGroupClearBits,"ax",%progbits
 657              		.align	2
 658              		.global	xEventGroupClearBits
 659              		.code	16
 660              		.thumb_func
 661              		.type	xEventGroupClearBits, %function
 662              	xEventGroupClearBits:
 663              	.LFB4:
 469:..\FreeRTOS\Source/event_groups.c **** /*-----------------------------------------------------------*/
 470:..\FreeRTOS\Source/event_groups.c **** 
 471:..\FreeRTOS\Source/event_groups.c **** EventBits_t xEventGroupClearBits( EventGroupHandle_t xEventGroup,
 472:..\FreeRTOS\Source/event_groups.c ****                                   const EventBits_t uxBitsToClear )
 473:..\FreeRTOS\Source/event_groups.c **** {
 664              		.loc 1 473 0
 665              		.cfi_startproc
 666              		@ args = 0, pretend = 0, frame = 16
 667              		@ frame_needed = 1, uses_anonymous_args = 0
ARM GAS  C:\Users\Jason\AppData\Local\Temp\ccssYdtp.s 			page 21


 668 0000 80B5     		push	{r7, lr}
 669              		.cfi_def_cfa_offset 8
 670              		.cfi_offset 7, -8
 671              		.cfi_offset 14, -4
 672 0002 84B0     		sub	sp, sp, #16
 673              		.cfi_def_cfa_offset 24
 674 0004 00AF     		add	r7, sp, #0
 675              		.cfi_def_cfa_register 7
 676 0006 7860     		str	r0, [r7, #4]
 677 0008 3960     		str	r1, [r7]
 474:..\FreeRTOS\Source/event_groups.c ****     EventGroup_t * pxEventBits = xEventGroup;
 678              		.loc 1 474 0
 679 000a 7B68     		ldr	r3, [r7, #4]
 680 000c FB60     		str	r3, [r7, #12]
 475:..\FreeRTOS\Source/event_groups.c ****     EventBits_t uxReturn;
 476:..\FreeRTOS\Source/event_groups.c **** 
 477:..\FreeRTOS\Source/event_groups.c ****     /* Check the user is not attempting to clear the bits used by the kernel
 478:..\FreeRTOS\Source/event_groups.c ****      * itself. */
 479:..\FreeRTOS\Source/event_groups.c ****     configASSERT( xEventGroup );
 681              		.loc 1 479 0
 682 000e 0F4B     		ldr	r3, .L63
 683 0010 1B88     		ldrh	r3, [r3]
 684 0012 002B     		cmp	r3, #0
 685 0014 01D1     		bne	.L58
 686              		.loc 1 479 0 is_stmt 0 discriminator 1
 687              		.syntax divided
 688              	@ 479 "..\FreeRTOS\Source\event_groups.c" 1
 689 0016 72B6     		 cpsid i 
 690              	@ 0 "" 2
 691              		.thumb
 692              		.syntax unified
 693              	.L59:
 694 0018 FEE7     		b	.L59
 695              	.L58:
 480:..\FreeRTOS\Source/event_groups.c ****     configASSERT( ( uxBitsToClear & eventEVENT_BITS_CONTROL_BYTES ) == 0 );
 696              		.loc 1 480 0 is_stmt 1
 697 001a 0C4B     		ldr	r3, .L63
 698 001c 1B88     		ldrh	r3, [r3]
 699 001e 002B     		cmp	r3, #0
 700 0020 01D1     		bne	.L60
 701              		.loc 1 480 0 is_stmt 0 discriminator 1
 702              		.syntax divided
 703              	@ 480 "..\FreeRTOS\Source\event_groups.c" 1
 704 0022 72B6     		 cpsid i 
 705              	@ 0 "" 2
 706              		.thumb
 707              		.syntax unified
 708              	.L61:
 709              		.loc 1 480 0 discriminator 2
 710 0024 FEE7     		b	.L61
 711              	.L60:
 481:..\FreeRTOS\Source/event_groups.c **** 
 482:..\FreeRTOS\Source/event_groups.c ****     taskENTER_CRITICAL();
 712              		.loc 1 482 0 is_stmt 1 discriminator 2
 713 0026 FFF7FEFF 		bl	vPortEnterCritical
 483:..\FreeRTOS\Source/event_groups.c ****     {
 484:..\FreeRTOS\Source/event_groups.c ****         traceEVENT_GROUP_CLEAR_BITS( xEventGroup, uxBitsToClear );
ARM GAS  C:\Users\Jason\AppData\Local\Temp\ccssYdtp.s 			page 22


 485:..\FreeRTOS\Source/event_groups.c **** 
 486:..\FreeRTOS\Source/event_groups.c ****         /* The value returned is the event group value prior to the bits being
 487:..\FreeRTOS\Source/event_groups.c ****          * cleared. */
 488:..\FreeRTOS\Source/event_groups.c ****         uxReturn = pxEventBits->uxEventBits;
 714              		.loc 1 488 0 discriminator 2
 715 002a FB68     		ldr	r3, [r7, #12]
 716 002c 1B68     		ldr	r3, [r3]
 717 002e BB60     		str	r3, [r7, #8]
 489:..\FreeRTOS\Source/event_groups.c **** 
 490:..\FreeRTOS\Source/event_groups.c ****         /* Clear the bits. */
 491:..\FreeRTOS\Source/event_groups.c ****         pxEventBits->uxEventBits &= ~uxBitsToClear;
 718              		.loc 1 491 0 discriminator 2
 719 0030 FB68     		ldr	r3, [r7, #12]
 720 0032 1B68     		ldr	r3, [r3]
 721 0034 3A68     		ldr	r2, [r7]
 722 0036 D243     		mvns	r2, r2
 723 0038 1A40     		ands	r2, r3
 724 003a FB68     		ldr	r3, [r7, #12]
 725 003c 1A60     		str	r2, [r3]
 492:..\FreeRTOS\Source/event_groups.c ****     }
 493:..\FreeRTOS\Source/event_groups.c ****     taskEXIT_CRITICAL();
 726              		.loc 1 493 0 discriminator 2
 727 003e FFF7FEFF 		bl	vPortExitCritical
 494:..\FreeRTOS\Source/event_groups.c **** 
 495:..\FreeRTOS\Source/event_groups.c ****     return uxReturn;
 728              		.loc 1 495 0 discriminator 2
 729 0042 BB68     		ldr	r3, [r7, #8]
 496:..\FreeRTOS\Source/event_groups.c **** }
 730              		.loc 1 496 0 discriminator 2
 731 0044 1800     		movs	r0, r3
 732 0046 BD46     		mov	sp, r7
 733 0048 04B0     		add	sp, sp, #16
 734              		@ sp needed
 735 004a 80BD     		pop	{r7, pc}
 736              	.L64:
 737              		.align	2
 738              	.L63:
 739 004c 00000000 		.word	x
 740              		.cfi_endproc
 741              	.LFE4:
 742              		.size	xEventGroupClearBits, .-xEventGroupClearBits
 743              		.section	.text.xEventGroupGetBitsFromISR,"ax",%progbits
 744              		.align	2
 745              		.global	xEventGroupGetBitsFromISR
 746              		.code	16
 747              		.thumb_func
 748              		.type	xEventGroupGetBitsFromISR, %function
 749              	xEventGroupGetBitsFromISR:
 750              	.LFB5:
 497:..\FreeRTOS\Source/event_groups.c **** /*-----------------------------------------------------------*/
 498:..\FreeRTOS\Source/event_groups.c **** 
 499:..\FreeRTOS\Source/event_groups.c **** #if ( ( configUSE_TRACE_FACILITY == 1 ) && ( INCLUDE_xTimerPendFunctionCall == 1 ) && ( configUSE_T
 500:..\FreeRTOS\Source/event_groups.c **** 
 501:..\FreeRTOS\Source/event_groups.c ****     BaseType_t xEventGroupClearBitsFromISR( EventGroupHandle_t xEventGroup,
 502:..\FreeRTOS\Source/event_groups.c ****                                             const EventBits_t uxBitsToClear )
 503:..\FreeRTOS\Source/event_groups.c ****     {
 504:..\FreeRTOS\Source/event_groups.c ****         BaseType_t xReturn;
ARM GAS  C:\Users\Jason\AppData\Local\Temp\ccssYdtp.s 			page 23


 505:..\FreeRTOS\Source/event_groups.c **** 
 506:..\FreeRTOS\Source/event_groups.c ****         traceEVENT_GROUP_CLEAR_BITS_FROM_ISR( xEventGroup, uxBitsToClear );
 507:..\FreeRTOS\Source/event_groups.c ****         xReturn = xTimerPendFunctionCallFromISR( vEventGroupClearBitsCallback, ( void * ) xEventGro
 508:..\FreeRTOS\Source/event_groups.c **** 
 509:..\FreeRTOS\Source/event_groups.c ****         return xReturn;
 510:..\FreeRTOS\Source/event_groups.c ****     }
 511:..\FreeRTOS\Source/event_groups.c **** 
 512:..\FreeRTOS\Source/event_groups.c **** #endif /* if ( ( configUSE_TRACE_FACILITY == 1 ) && ( INCLUDE_xTimerPendFunctionCall == 1 ) && ( co
 513:..\FreeRTOS\Source/event_groups.c **** /*-----------------------------------------------------------*/
 514:..\FreeRTOS\Source/event_groups.c **** 
 515:..\FreeRTOS\Source/event_groups.c **** EventBits_t xEventGroupGetBitsFromISR( EventGroupHandle_t xEventGroup )
 516:..\FreeRTOS\Source/event_groups.c **** {
 751              		.loc 1 516 0
 752              		.cfi_startproc
 753              		@ args = 0, pretend = 0, frame = 24
 754              		@ frame_needed = 1, uses_anonymous_args = 0
 755 0000 80B5     		push	{r7, lr}
 756              		.cfi_def_cfa_offset 8
 757              		.cfi_offset 7, -8
 758              		.cfi_offset 14, -4
 759 0002 86B0     		sub	sp, sp, #24
 760              		.cfi_def_cfa_offset 32
 761 0004 00AF     		add	r7, sp, #0
 762              		.cfi_def_cfa_register 7
 763 0006 7860     		str	r0, [r7, #4]
 517:..\FreeRTOS\Source/event_groups.c ****     UBaseType_t uxSavedInterruptStatus;
 518:..\FreeRTOS\Source/event_groups.c ****     EventGroup_t const * const pxEventBits = xEventGroup;
 764              		.loc 1 518 0
 765 0008 7B68     		ldr	r3, [r7, #4]
 766 000a 7B61     		str	r3, [r7, #20]
 519:..\FreeRTOS\Source/event_groups.c ****     EventBits_t uxReturn;
 520:..\FreeRTOS\Source/event_groups.c **** 
 521:..\FreeRTOS\Source/event_groups.c ****     uxSavedInterruptStatus = portSET_INTERRUPT_MASK_FROM_ISR();
 767              		.loc 1 521 0
 768 000c FFF7FEFF 		bl	ulSetInterruptMaskFromISR
 769 0010 0300     		movs	r3, r0
 770 0012 3B61     		str	r3, [r7, #16]
 522:..\FreeRTOS\Source/event_groups.c ****     {
 523:..\FreeRTOS\Source/event_groups.c ****         uxReturn = pxEventBits->uxEventBits;
 771              		.loc 1 523 0
 772 0014 7B69     		ldr	r3, [r7, #20]
 773 0016 1B68     		ldr	r3, [r3]
 774 0018 FB60     		str	r3, [r7, #12]
 524:..\FreeRTOS\Source/event_groups.c ****     }
 525:..\FreeRTOS\Source/event_groups.c ****     portCLEAR_INTERRUPT_MASK_FROM_ISR( uxSavedInterruptStatus );
 775              		.loc 1 525 0
 776 001a 3B69     		ldr	r3, [r7, #16]
 777 001c 1800     		movs	r0, r3
 778 001e FFF7FEFF 		bl	vClearInterruptMaskFromISR
 526:..\FreeRTOS\Source/event_groups.c **** 
 527:..\FreeRTOS\Source/event_groups.c ****     return uxReturn;
 779              		.loc 1 527 0
 780 0022 FB68     		ldr	r3, [r7, #12]
 528:..\FreeRTOS\Source/event_groups.c **** } /*lint !e818 EventGroupHandle_t is a typedef used in other functions to so can't be pointer to co
 781              		.loc 1 528 0
 782 0024 1800     		movs	r0, r3
 783 0026 BD46     		mov	sp, r7
ARM GAS  C:\Users\Jason\AppData\Local\Temp\ccssYdtp.s 			page 24


 784 0028 06B0     		add	sp, sp, #24
 785              		@ sp needed
 786 002a 80BD     		pop	{r7, pc}
 787              		.cfi_endproc
 788              	.LFE5:
 789              		.size	xEventGroupGetBitsFromISR, .-xEventGroupGetBitsFromISR
 790              		.section	.text.xEventGroupSetBits,"ax",%progbits
 791              		.align	2
 792              		.global	xEventGroupSetBits
 793              		.code	16
 794              		.thumb_func
 795              		.type	xEventGroupSetBits, %function
 796              	xEventGroupSetBits:
 797              	.LFB6:
 529:..\FreeRTOS\Source/event_groups.c **** /*-----------------------------------------------------------*/
 530:..\FreeRTOS\Source/event_groups.c **** 
 531:..\FreeRTOS\Source/event_groups.c **** EventBits_t xEventGroupSetBits( EventGroupHandle_t xEventGroup,
 532:..\FreeRTOS\Source/event_groups.c ****                                 const EventBits_t uxBitsToSet )
 533:..\FreeRTOS\Source/event_groups.c **** {
 798              		.loc 1 533 0
 799              		.cfi_startproc
 800              		@ args = 0, pretend = 0, frame = 48
 801              		@ frame_needed = 1, uses_anonymous_args = 0
 802 0000 80B5     		push	{r7, lr}
 803              		.cfi_def_cfa_offset 8
 804              		.cfi_offset 7, -8
 805              		.cfi_offset 14, -4
 806 0002 8CB0     		sub	sp, sp, #48
 807              		.cfi_def_cfa_offset 56
 808 0004 00AF     		add	r7, sp, #0
 809              		.cfi_def_cfa_register 7
 810 0006 7860     		str	r0, [r7, #4]
 811 0008 3960     		str	r1, [r7]
 534:..\FreeRTOS\Source/event_groups.c ****     ListItem_t * pxListItem, * pxNext;
 535:..\FreeRTOS\Source/event_groups.c ****     ListItem_t const * pxListEnd;
 536:..\FreeRTOS\Source/event_groups.c ****     List_t const * pxList;
 537:..\FreeRTOS\Source/event_groups.c ****     EventBits_t uxBitsToClear = 0, uxBitsWaitedFor, uxControlBits;
 812              		.loc 1 537 0
 813 000a 0023     		movs	r3, #0
 814 000c BB62     		str	r3, [r7, #40]
 538:..\FreeRTOS\Source/event_groups.c ****     EventGroup_t * pxEventBits = xEventGroup;
 815              		.loc 1 538 0
 816 000e 7B68     		ldr	r3, [r7, #4]
 817 0010 3B62     		str	r3, [r7, #32]
 539:..\FreeRTOS\Source/event_groups.c ****     BaseType_t xMatchFound = pdFALSE;
 818              		.loc 1 539 0
 819 0012 0023     		movs	r3, #0
 820 0014 7B62     		str	r3, [r7, #36]
 540:..\FreeRTOS\Source/event_groups.c **** 
 541:..\FreeRTOS\Source/event_groups.c ****     /* Check the user is not attempting to set the bits used by the kernel
 542:..\FreeRTOS\Source/event_groups.c ****      * itself. */
 543:..\FreeRTOS\Source/event_groups.c ****     configASSERT( xEventGroup );
 821              		.loc 1 543 0
 822 0016 374B     		ldr	r3, .L79
 823 0018 1B88     		ldrh	r3, [r3]
 824 001a 002B     		cmp	r3, #0
 825 001c 01D1     		bne	.L68
ARM GAS  C:\Users\Jason\AppData\Local\Temp\ccssYdtp.s 			page 25


 826              		.loc 1 543 0 is_stmt 0 discriminator 1
 827              		.syntax divided
 828              	@ 543 "..\FreeRTOS\Source\event_groups.c" 1
 829 001e 72B6     		 cpsid i 
 830              	@ 0 "" 2
 831              		.thumb
 832              		.syntax unified
 833              	.L69:
 834 0020 FEE7     		b	.L69
 835              	.L68:
 544:..\FreeRTOS\Source/event_groups.c ****     configASSERT( ( uxBitsToSet & eventEVENT_BITS_CONTROL_BYTES ) == 0 );
 836              		.loc 1 544 0 is_stmt 1
 837 0022 344B     		ldr	r3, .L79
 838 0024 1B88     		ldrh	r3, [r3]
 839 0026 002B     		cmp	r3, #0
 840 0028 01D1     		bne	.L70
 841              		.loc 1 544 0 is_stmt 0 discriminator 1
 842              		.syntax divided
 843              	@ 544 "..\FreeRTOS\Source\event_groups.c" 1
 844 002a 72B6     		 cpsid i 
 845              	@ 0 "" 2
 846              		.thumb
 847              		.syntax unified
 848              	.L71:
 849              		.loc 1 544 0 discriminator 2
 850 002c FEE7     		b	.L71
 851              	.L70:
 545:..\FreeRTOS\Source/event_groups.c **** 
 546:..\FreeRTOS\Source/event_groups.c ****     pxList = &( pxEventBits->xTasksWaitingForBits );
 852              		.loc 1 546 0 is_stmt 1 discriminator 2
 853 002e 3B6A     		ldr	r3, [r7, #32]
 854 0030 0433     		adds	r3, r3, #4
 855 0032 FB61     		str	r3, [r7, #28]
 547:..\FreeRTOS\Source/event_groups.c ****     pxListEnd = listGET_END_MARKER( pxList ); /*lint !e826 !e740 !e9087 The mini list structure is 
 856              		.loc 1 547 0 discriminator 2
 857 0034 FB69     		ldr	r3, [r7, #28]
 858 0036 0833     		adds	r3, r3, #8
 859 0038 BB61     		str	r3, [r7, #24]
 548:..\FreeRTOS\Source/event_groups.c ****     vTaskSuspendAll();
 860              		.loc 1 548 0 discriminator 2
 861 003a FFF7FEFF 		bl	vTaskSuspendAll
 549:..\FreeRTOS\Source/event_groups.c ****     {
 550:..\FreeRTOS\Source/event_groups.c ****         traceEVENT_GROUP_SET_BITS( xEventGroup, uxBitsToSet );
 551:..\FreeRTOS\Source/event_groups.c **** 
 552:..\FreeRTOS\Source/event_groups.c ****         pxListItem = listGET_HEAD_ENTRY( pxList );
 862              		.loc 1 552 0 discriminator 2
 863 003e FB69     		ldr	r3, [r7, #28]
 864 0040 DB68     		ldr	r3, [r3, #12]
 865 0042 FB62     		str	r3, [r7, #44]
 553:..\FreeRTOS\Source/event_groups.c **** 
 554:..\FreeRTOS\Source/event_groups.c ****         /* Set the bits. */
 555:..\FreeRTOS\Source/event_groups.c ****         pxEventBits->uxEventBits |= uxBitsToSet;
 866              		.loc 1 555 0 discriminator 2
 867 0044 3B6A     		ldr	r3, [r7, #32]
 868 0046 1A68     		ldr	r2, [r3]
 869 0048 3B68     		ldr	r3, [r7]
 870 004a 1A43     		orrs	r2, r3
ARM GAS  C:\Users\Jason\AppData\Local\Temp\ccssYdtp.s 			page 26


 871 004c 3B6A     		ldr	r3, [r7, #32]
 872 004e 1A60     		str	r2, [r3]
 556:..\FreeRTOS\Source/event_groups.c **** 
 557:..\FreeRTOS\Source/event_groups.c ****         /* See if the new bit value should unblock any tasks. */
 558:..\FreeRTOS\Source/event_groups.c ****         while( pxListItem != pxListEnd )
 873              		.loc 1 558 0 discriminator 2
 874 0050 3DE0     		b	.L72
 875              	.L77:
 559:..\FreeRTOS\Source/event_groups.c ****         {
 560:..\FreeRTOS\Source/event_groups.c ****             pxNext = listGET_NEXT( pxListItem );
 876              		.loc 1 560 0
 877 0052 FB6A     		ldr	r3, [r7, #44]
 878 0054 5B68     		ldr	r3, [r3, #4]
 879 0056 7B61     		str	r3, [r7, #20]
 561:..\FreeRTOS\Source/event_groups.c ****             uxBitsWaitedFor = listGET_LIST_ITEM_VALUE( pxListItem );
 880              		.loc 1 561 0
 881 0058 FB6A     		ldr	r3, [r7, #44]
 882 005a 1B68     		ldr	r3, [r3]
 883 005c 3B61     		str	r3, [r7, #16]
 562:..\FreeRTOS\Source/event_groups.c ****             xMatchFound = pdFALSE;
 884              		.loc 1 562 0
 885 005e 0023     		movs	r3, #0
 886 0060 7B62     		str	r3, [r7, #36]
 563:..\FreeRTOS\Source/event_groups.c **** 
 564:..\FreeRTOS\Source/event_groups.c ****             /* Split the bits waited for from the control bits. */
 565:..\FreeRTOS\Source/event_groups.c ****             uxControlBits = uxBitsWaitedFor & eventEVENT_BITS_CONTROL_BYTES;
 887              		.loc 1 565 0
 888 0062 3B69     		ldr	r3, [r7, #16]
 889 0064 1B0E     		lsrs	r3, r3, #24
 890 0066 1B06     		lsls	r3, r3, #24
 891 0068 FB60     		str	r3, [r7, #12]
 566:..\FreeRTOS\Source/event_groups.c ****             uxBitsWaitedFor &= ~eventEVENT_BITS_CONTROL_BYTES;
 892              		.loc 1 566 0
 893 006a 3B69     		ldr	r3, [r7, #16]
 894 006c 1B02     		lsls	r3, r3, #8
 895 006e 1B0A     		lsrs	r3, r3, #8
 896 0070 3B61     		str	r3, [r7, #16]
 567:..\FreeRTOS\Source/event_groups.c **** 
 568:..\FreeRTOS\Source/event_groups.c ****             if( ( uxControlBits & eventWAIT_FOR_ALL_BITS ) == ( EventBits_t ) 0 )
 897              		.loc 1 568 0
 898 0072 FA68     		ldr	r2, [r7, #12]
 899 0074 8023     		movs	r3, #128
 900 0076 DB04     		lsls	r3, r3, #19
 901 0078 1340     		ands	r3, r2
 902 007a 07D1     		bne	.L73
 569:..\FreeRTOS\Source/event_groups.c ****             {
 570:..\FreeRTOS\Source/event_groups.c ****                 /* Just looking for single bit being set. */
 571:..\FreeRTOS\Source/event_groups.c ****                 if( ( uxBitsWaitedFor & pxEventBits->uxEventBits ) != ( EventBits_t ) 0 )
 903              		.loc 1 571 0
 904 007c 3B6A     		ldr	r3, [r7, #32]
 905 007e 1B68     		ldr	r3, [r3]
 906 0080 3A69     		ldr	r2, [r7, #16]
 907 0082 1340     		ands	r3, r2
 908 0084 0BD0     		beq	.L74
 572:..\FreeRTOS\Source/event_groups.c ****                 {
 573:..\FreeRTOS\Source/event_groups.c ****                     xMatchFound = pdTRUE;
 909              		.loc 1 573 0
ARM GAS  C:\Users\Jason\AppData\Local\Temp\ccssYdtp.s 			page 27


 910 0086 0123     		movs	r3, #1
 911 0088 7B62     		str	r3, [r7, #36]
 912 008a 08E0     		b	.L74
 913              	.L73:
 574:..\FreeRTOS\Source/event_groups.c ****                 }
 575:..\FreeRTOS\Source/event_groups.c ****                 else
 576:..\FreeRTOS\Source/event_groups.c ****                 {
 577:..\FreeRTOS\Source/event_groups.c ****                     mtCOVERAGE_TEST_MARKER();
 578:..\FreeRTOS\Source/event_groups.c ****                 }
 579:..\FreeRTOS\Source/event_groups.c ****             }
 580:..\FreeRTOS\Source/event_groups.c ****             else if( ( uxBitsWaitedFor & pxEventBits->uxEventBits ) == uxBitsWaitedFor )
 914              		.loc 1 580 0
 915 008c 3B6A     		ldr	r3, [r7, #32]
 916 008e 1B68     		ldr	r3, [r3]
 917 0090 3A69     		ldr	r2, [r7, #16]
 918 0092 1A40     		ands	r2, r3
 919 0094 3B69     		ldr	r3, [r7, #16]
 920 0096 9A42     		cmp	r2, r3
 921 0098 01D1     		bne	.L74
 581:..\FreeRTOS\Source/event_groups.c ****             {
 582:..\FreeRTOS\Source/event_groups.c ****                 /* All bits are set. */
 583:..\FreeRTOS\Source/event_groups.c ****                 xMatchFound = pdTRUE;
 922              		.loc 1 583 0
 923 009a 0123     		movs	r3, #1
 924 009c 7B62     		str	r3, [r7, #36]
 925              	.L74:
 584:..\FreeRTOS\Source/event_groups.c ****             }
 585:..\FreeRTOS\Source/event_groups.c ****             else
 586:..\FreeRTOS\Source/event_groups.c ****             {
 587:..\FreeRTOS\Source/event_groups.c ****                 /* Need all bits to be set, but not all the bits were set. */
 588:..\FreeRTOS\Source/event_groups.c ****             }
 589:..\FreeRTOS\Source/event_groups.c **** 
 590:..\FreeRTOS\Source/event_groups.c ****             if( xMatchFound != pdFALSE )
 926              		.loc 1 590 0
 927 009e 7B6A     		ldr	r3, [r7, #36]
 928 00a0 002B     		cmp	r3, #0
 929 00a2 12D0     		beq	.L75
 591:..\FreeRTOS\Source/event_groups.c ****             {
 592:..\FreeRTOS\Source/event_groups.c ****                 /* The bits match.  Should the bits be cleared on exit? */
 593:..\FreeRTOS\Source/event_groups.c ****                 if( ( uxControlBits & eventCLEAR_EVENTS_ON_EXIT_BIT ) != ( EventBits_t ) 0 )
 930              		.loc 1 593 0
 931 00a4 FA68     		ldr	r2, [r7, #12]
 932 00a6 8023     		movs	r3, #128
 933 00a8 5B04     		lsls	r3, r3, #17
 934 00aa 1340     		ands	r3, r2
 935 00ac 03D0     		beq	.L76
 594:..\FreeRTOS\Source/event_groups.c ****                 {
 595:..\FreeRTOS\Source/event_groups.c ****                     uxBitsToClear |= uxBitsWaitedFor;
 936              		.loc 1 595 0
 937 00ae BA6A     		ldr	r2, [r7, #40]
 938 00b0 3B69     		ldr	r3, [r7, #16]
 939 00b2 1343     		orrs	r3, r2
 940 00b4 BB62     		str	r3, [r7, #40]
 941              	.L76:
 596:..\FreeRTOS\Source/event_groups.c ****                 }
 597:..\FreeRTOS\Source/event_groups.c ****                 else
 598:..\FreeRTOS\Source/event_groups.c ****                 {
ARM GAS  C:\Users\Jason\AppData\Local\Temp\ccssYdtp.s 			page 28


 599:..\FreeRTOS\Source/event_groups.c ****                     mtCOVERAGE_TEST_MARKER();
 600:..\FreeRTOS\Source/event_groups.c ****                 }
 601:..\FreeRTOS\Source/event_groups.c **** 
 602:..\FreeRTOS\Source/event_groups.c ****                 /* Store the actual event flag value in the task's event list
 603:..\FreeRTOS\Source/event_groups.c ****                  * item before removing the task from the event list.  The
 604:..\FreeRTOS\Source/event_groups.c ****                  * eventUNBLOCKED_DUE_TO_BIT_SET bit is set so the task knows
 605:..\FreeRTOS\Source/event_groups.c ****                  * that is was unblocked due to its required bits matching, rather
 606:..\FreeRTOS\Source/event_groups.c ****                  * than because it timed out. */
 607:..\FreeRTOS\Source/event_groups.c ****                 vTaskRemoveFromUnorderedEventList( pxListItem, pxEventBits->uxEventBits | eventUNBL
 942              		.loc 1 607 0
 943 00b6 3B6A     		ldr	r3, [r7, #32]
 944 00b8 1B68     		ldr	r3, [r3]
 945 00ba 8022     		movs	r2, #128
 946 00bc 9204     		lsls	r2, r2, #18
 947 00be 1A43     		orrs	r2, r3
 948 00c0 FB6A     		ldr	r3, [r7, #44]
 949 00c2 1100     		movs	r1, r2
 950 00c4 1800     		movs	r0, r3
 951 00c6 FFF7FEFF 		bl	vTaskRemoveFromUnorderedEventList
 952              	.L75:
 608:..\FreeRTOS\Source/event_groups.c ****             }
 609:..\FreeRTOS\Source/event_groups.c **** 
 610:..\FreeRTOS\Source/event_groups.c ****             /* Move onto the next list item.  Note pxListItem->pxNext is not
 611:..\FreeRTOS\Source/event_groups.c ****              * used here as the list item may have been removed from the event list
 612:..\FreeRTOS\Source/event_groups.c ****              * and inserted into the ready/pending reading list. */
 613:..\FreeRTOS\Source/event_groups.c ****             pxListItem = pxNext;
 953              		.loc 1 613 0
 954 00ca 7B69     		ldr	r3, [r7, #20]
 955 00cc FB62     		str	r3, [r7, #44]
 956              	.L72:
 558:..\FreeRTOS\Source/event_groups.c ****         {
 957              		.loc 1 558 0
 958 00ce FA6A     		ldr	r2, [r7, #44]
 959 00d0 BB69     		ldr	r3, [r7, #24]
 960 00d2 9A42     		cmp	r2, r3
 961 00d4 BDD1     		bne	.L77
 614:..\FreeRTOS\Source/event_groups.c ****         }
 615:..\FreeRTOS\Source/event_groups.c **** 
 616:..\FreeRTOS\Source/event_groups.c ****         /* Clear any bits that matched when the eventCLEAR_EVENTS_ON_EXIT_BIT
 617:..\FreeRTOS\Source/event_groups.c ****          * bit was set in the control word. */
 618:..\FreeRTOS\Source/event_groups.c ****         pxEventBits->uxEventBits &= ~uxBitsToClear;
 962              		.loc 1 618 0
 963 00d6 3B6A     		ldr	r3, [r7, #32]
 964 00d8 1B68     		ldr	r3, [r3]
 965 00da BA6A     		ldr	r2, [r7, #40]
 966 00dc D243     		mvns	r2, r2
 967 00de 1A40     		ands	r2, r3
 968 00e0 3B6A     		ldr	r3, [r7, #32]
 969 00e2 1A60     		str	r2, [r3]
 619:..\FreeRTOS\Source/event_groups.c ****     }
 620:..\FreeRTOS\Source/event_groups.c ****     ( void ) xTaskResumeAll();
 970              		.loc 1 620 0
 971 00e4 FFF7FEFF 		bl	xTaskResumeAll
 621:..\FreeRTOS\Source/event_groups.c **** 
 622:..\FreeRTOS\Source/event_groups.c ****     return pxEventBits->uxEventBits;
 972              		.loc 1 622 0
 973 00e8 3B6A     		ldr	r3, [r7, #32]
ARM GAS  C:\Users\Jason\AppData\Local\Temp\ccssYdtp.s 			page 29


 974 00ea 1B68     		ldr	r3, [r3]
 623:..\FreeRTOS\Source/event_groups.c **** }
 975              		.loc 1 623 0
 976 00ec 1800     		movs	r0, r3
 977 00ee BD46     		mov	sp, r7
 978 00f0 0CB0     		add	sp, sp, #48
 979              		@ sp needed
 980 00f2 80BD     		pop	{r7, pc}
 981              	.L80:
 982              		.align	2
 983              	.L79:
 984 00f4 00000000 		.word	x
 985              		.cfi_endproc
 986              	.LFE6:
 987              		.size	xEventGroupSetBits, .-xEventGroupSetBits
 988              		.section	.text.vEventGroupDelete,"ax",%progbits
 989              		.align	2
 990              		.global	vEventGroupDelete
 991              		.code	16
 992              		.thumb_func
 993              		.type	vEventGroupDelete, %function
 994              	vEventGroupDelete:
 995              	.LFB7:
 624:..\FreeRTOS\Source/event_groups.c **** /*-----------------------------------------------------------*/
 625:..\FreeRTOS\Source/event_groups.c **** 
 626:..\FreeRTOS\Source/event_groups.c **** void vEventGroupDelete( EventGroupHandle_t xEventGroup )
 627:..\FreeRTOS\Source/event_groups.c **** {
 996              		.loc 1 627 0
 997              		.cfi_startproc
 998              		@ args = 0, pretend = 0, frame = 16
 999              		@ frame_needed = 1, uses_anonymous_args = 0
 1000 0000 80B5     		push	{r7, lr}
 1001              		.cfi_def_cfa_offset 8
 1002              		.cfi_offset 7, -8
 1003              		.cfi_offset 14, -4
 1004 0002 84B0     		sub	sp, sp, #16
 1005              		.cfi_def_cfa_offset 24
 1006 0004 00AF     		add	r7, sp, #0
 1007              		.cfi_def_cfa_register 7
 1008 0006 7860     		str	r0, [r7, #4]
 628:..\FreeRTOS\Source/event_groups.c ****     EventGroup_t * pxEventBits = xEventGroup;
 1009              		.loc 1 628 0
 1010 0008 7B68     		ldr	r3, [r7, #4]
 1011 000a FB60     		str	r3, [r7, #12]
 629:..\FreeRTOS\Source/event_groups.c ****     const List_t * pxTasksWaitingForBits = &( pxEventBits->xTasksWaitingForBits );
 1012              		.loc 1 629 0
 1013 000c FB68     		ldr	r3, [r7, #12]
 1014 000e 0433     		adds	r3, r3, #4
 1015 0010 BB60     		str	r3, [r7, #8]
 630:..\FreeRTOS\Source/event_groups.c **** 
 631:..\FreeRTOS\Source/event_groups.c ****     vTaskSuspendAll();
 1016              		.loc 1 631 0
 1017 0012 FFF7FEFF 		bl	vTaskSuspendAll
 632:..\FreeRTOS\Source/event_groups.c ****     {
 633:..\FreeRTOS\Source/event_groups.c ****         traceEVENT_GROUP_DELETE( xEventGroup );
 634:..\FreeRTOS\Source/event_groups.c **** 
 635:..\FreeRTOS\Source/event_groups.c ****         while( listCURRENT_LIST_LENGTH( pxTasksWaitingForBits ) > ( UBaseType_t ) 0 )
ARM GAS  C:\Users\Jason\AppData\Local\Temp\ccssYdtp.s 			page 30


 1018              		.loc 1 635 0
 1019 0016 0DE0     		b	.L82
 1020              	.L85:
 636:..\FreeRTOS\Source/event_groups.c ****         {
 637:..\FreeRTOS\Source/event_groups.c ****             /* Unblock the task, returning 0 as the event list is being deleted
 638:..\FreeRTOS\Source/event_groups.c ****              * and cannot therefore have any bits set. */
 639:..\FreeRTOS\Source/event_groups.c ****             configASSERT( pxTasksWaitingForBits->xListEnd.pxNext != ( const ListItem_t * ) &( pxTas
 1021              		.loc 1 639 0
 1022 0018 0F4B     		ldr	r3, .L87
 1023 001a 1B88     		ldrh	r3, [r3]
 1024 001c 002B     		cmp	r3, #0
 1025 001e 01D1     		bne	.L83
 1026              		.loc 1 639 0 is_stmt 0 discriminator 1
 1027              		.syntax divided
 1028              	@ 639 "..\FreeRTOS\Source\event_groups.c" 1
 1029 0020 72B6     		 cpsid i 
 1030              	@ 0 "" 2
 1031              		.thumb
 1032              		.syntax unified
 1033              	.L84:
 1034 0022 FEE7     		b	.L84
 1035              	.L83:
 640:..\FreeRTOS\Source/event_groups.c ****             vTaskRemoveFromUnorderedEventList( pxTasksWaitingForBits->xListEnd.pxNext, eventUNBLOCK
 1036              		.loc 1 640 0 is_stmt 1 discriminator 2
 1037 0024 BB68     		ldr	r3, [r7, #8]
 1038 0026 DA68     		ldr	r2, [r3, #12]
 1039 0028 8023     		movs	r3, #128
 1040 002a 9B04     		lsls	r3, r3, #18
 1041 002c 1900     		movs	r1, r3
 1042 002e 1000     		movs	r0, r2
 1043 0030 FFF7FEFF 		bl	vTaskRemoveFromUnorderedEventList
 1044              	.L82:
 635:..\FreeRTOS\Source/event_groups.c ****         {
 1045              		.loc 1 635 0
 1046 0034 BB68     		ldr	r3, [r7, #8]
 1047 0036 1B68     		ldr	r3, [r3]
 1048 0038 002B     		cmp	r3, #0
 1049 003a EDD1     		bne	.L85
 641:..\FreeRTOS\Source/event_groups.c ****         }
 642:..\FreeRTOS\Source/event_groups.c **** 
 643:..\FreeRTOS\Source/event_groups.c ****         #if ( ( configSUPPORT_DYNAMIC_ALLOCATION == 1 ) && ( configSUPPORT_STATIC_ALLOCATION == 0 )
 644:..\FreeRTOS\Source/event_groups.c ****             {
 645:..\FreeRTOS\Source/event_groups.c ****                 /* The event group can only have been allocated dynamically - free
 646:..\FreeRTOS\Source/event_groups.c ****                  * it again. */
 647:..\FreeRTOS\Source/event_groups.c ****                 vPortFree( pxEventBits );
 648:..\FreeRTOS\Source/event_groups.c ****             }
 649:..\FreeRTOS\Source/event_groups.c ****         #elif ( ( configSUPPORT_DYNAMIC_ALLOCATION == 1 ) && ( configSUPPORT_STATIC_ALLOCATION == 1
 650:..\FreeRTOS\Source/event_groups.c ****             {
 651:..\FreeRTOS\Source/event_groups.c ****                 /* The event group could have been allocated statically or
 652:..\FreeRTOS\Source/event_groups.c ****                  * dynamically, so check before attempting to free the memory. */
 653:..\FreeRTOS\Source/event_groups.c ****                 if( pxEventBits->ucStaticallyAllocated == ( uint8_t ) pdFALSE )
 1050              		.loc 1 653 0
 1051 003c FB68     		ldr	r3, [r7, #12]
 1052 003e 1B7E     		ldrb	r3, [r3, #24]
 1053 0040 002B     		cmp	r3, #0
 1054 0042 03D1     		bne	.L86
 654:..\FreeRTOS\Source/event_groups.c ****                 {
ARM GAS  C:\Users\Jason\AppData\Local\Temp\ccssYdtp.s 			page 31


 655:..\FreeRTOS\Source/event_groups.c ****                     vPortFree( pxEventBits );
 1055              		.loc 1 655 0
 1056 0044 FB68     		ldr	r3, [r7, #12]
 1057 0046 1800     		movs	r0, r3
 1058 0048 FFF7FEFF 		bl	vPortFree
 1059              	.L86:
 656:..\FreeRTOS\Source/event_groups.c ****                 }
 657:..\FreeRTOS\Source/event_groups.c ****                 else
 658:..\FreeRTOS\Source/event_groups.c ****                 {
 659:..\FreeRTOS\Source/event_groups.c ****                     mtCOVERAGE_TEST_MARKER();
 660:..\FreeRTOS\Source/event_groups.c ****                 }
 661:..\FreeRTOS\Source/event_groups.c ****             }
 662:..\FreeRTOS\Source/event_groups.c ****         #endif /* configSUPPORT_DYNAMIC_ALLOCATION */
 663:..\FreeRTOS\Source/event_groups.c ****     }
 664:..\FreeRTOS\Source/event_groups.c ****     ( void ) xTaskResumeAll();
 1060              		.loc 1 664 0
 1061 004c FFF7FEFF 		bl	xTaskResumeAll
 665:..\FreeRTOS\Source/event_groups.c **** }
 1062              		.loc 1 665 0
 1063 0050 C046     		nop
 1064 0052 BD46     		mov	sp, r7
 1065 0054 04B0     		add	sp, sp, #16
 1066              		@ sp needed
 1067 0056 80BD     		pop	{r7, pc}
 1068              	.L88:
 1069              		.align	2
 1070              	.L87:
 1071 0058 00000000 		.word	x
 1072              		.cfi_endproc
 1073              	.LFE7:
 1074              		.size	vEventGroupDelete, .-vEventGroupDelete
 1075              		.section	.text.vEventGroupSetBitsCallback,"ax",%progbits
 1076              		.align	2
 1077              		.global	vEventGroupSetBitsCallback
 1078              		.code	16
 1079              		.thumb_func
 1080              		.type	vEventGroupSetBitsCallback, %function
 1081              	vEventGroupSetBitsCallback:
 1082              	.LFB8:
 666:..\FreeRTOS\Source/event_groups.c **** /*-----------------------------------------------------------*/
 667:..\FreeRTOS\Source/event_groups.c **** 
 668:..\FreeRTOS\Source/event_groups.c **** /* For internal use only - execute a 'set bits' command that was pended from
 669:..\FreeRTOS\Source/event_groups.c ****  * an interrupt. */
 670:..\FreeRTOS\Source/event_groups.c **** void vEventGroupSetBitsCallback( void * pvEventGroup,
 671:..\FreeRTOS\Source/event_groups.c ****                                  const uint32_t ulBitsToSet )
 672:..\FreeRTOS\Source/event_groups.c **** {
 1083              		.loc 1 672 0
 1084              		.cfi_startproc
 1085              		@ args = 0, pretend = 0, frame = 8
 1086              		@ frame_needed = 1, uses_anonymous_args = 0
 1087 0000 80B5     		push	{r7, lr}
 1088              		.cfi_def_cfa_offset 8
 1089              		.cfi_offset 7, -8
 1090              		.cfi_offset 14, -4
 1091 0002 82B0     		sub	sp, sp, #8
 1092              		.cfi_def_cfa_offset 16
 1093 0004 00AF     		add	r7, sp, #0
ARM GAS  C:\Users\Jason\AppData\Local\Temp\ccssYdtp.s 			page 32


 1094              		.cfi_def_cfa_register 7
 1095 0006 7860     		str	r0, [r7, #4]
 1096 0008 3960     		str	r1, [r7]
 673:..\FreeRTOS\Source/event_groups.c ****     ( void ) xEventGroupSetBits( pvEventGroup, ( EventBits_t ) ulBitsToSet ); /*lint !e9079 Can't a
 1097              		.loc 1 673 0
 1098 000a 3A68     		ldr	r2, [r7]
 1099 000c 7B68     		ldr	r3, [r7, #4]
 1100 000e 1100     		movs	r1, r2
 1101 0010 1800     		movs	r0, r3
 1102 0012 FFF7FEFF 		bl	xEventGroupSetBits
 674:..\FreeRTOS\Source/event_groups.c **** }
 1103              		.loc 1 674 0
 1104 0016 C046     		nop
 1105 0018 BD46     		mov	sp, r7
 1106 001a 02B0     		add	sp, sp, #8
 1107              		@ sp needed
 1108 001c 80BD     		pop	{r7, pc}
 1109              		.cfi_endproc
 1110              	.LFE8:
 1111              		.size	vEventGroupSetBitsCallback, .-vEventGroupSetBitsCallback
 1112 001e C046     		.section	.text.vEventGroupClearBitsCallback,"ax",%progbits
 1113              		.align	2
 1114              		.global	vEventGroupClearBitsCallback
 1115              		.code	16
 1116              		.thumb_func
 1117              		.type	vEventGroupClearBitsCallback, %function
 1118              	vEventGroupClearBitsCallback:
 1119              	.LFB9:
 675:..\FreeRTOS\Source/event_groups.c **** /*-----------------------------------------------------------*/
 676:..\FreeRTOS\Source/event_groups.c **** 
 677:..\FreeRTOS\Source/event_groups.c **** /* For internal use only - execute a 'clear bits' command that was pended from
 678:..\FreeRTOS\Source/event_groups.c ****  * an interrupt. */
 679:..\FreeRTOS\Source/event_groups.c **** void vEventGroupClearBitsCallback( void * pvEventGroup,
 680:..\FreeRTOS\Source/event_groups.c ****                                    const uint32_t ulBitsToClear )
 681:..\FreeRTOS\Source/event_groups.c **** {
 1120              		.loc 1 681 0
 1121              		.cfi_startproc
 1122              		@ args = 0, pretend = 0, frame = 8
 1123              		@ frame_needed = 1, uses_anonymous_args = 0
 1124 0000 80B5     		push	{r7, lr}
 1125              		.cfi_def_cfa_offset 8
 1126              		.cfi_offset 7, -8
 1127              		.cfi_offset 14, -4
 1128 0002 82B0     		sub	sp, sp, #8
 1129              		.cfi_def_cfa_offset 16
 1130 0004 00AF     		add	r7, sp, #0
 1131              		.cfi_def_cfa_register 7
 1132 0006 7860     		str	r0, [r7, #4]
 1133 0008 3960     		str	r1, [r7]
 682:..\FreeRTOS\Source/event_groups.c ****     ( void ) xEventGroupClearBits( pvEventGroup, ( EventBits_t ) ulBitsToClear ); /*lint !e9079 Can
 1134              		.loc 1 682 0
 1135 000a 3A68     		ldr	r2, [r7]
 1136 000c 7B68     		ldr	r3, [r7, #4]
 1137 000e 1100     		movs	r1, r2
 1138 0010 1800     		movs	r0, r3
 1139 0012 FFF7FEFF 		bl	xEventGroupClearBits
 683:..\FreeRTOS\Source/event_groups.c **** }
ARM GAS  C:\Users\Jason\AppData\Local\Temp\ccssYdtp.s 			page 33


 1140              		.loc 1 683 0
 1141 0016 C046     		nop
 1142 0018 BD46     		mov	sp, r7
 1143 001a 02B0     		add	sp, sp, #8
 1144              		@ sp needed
 1145 001c 80BD     		pop	{r7, pc}
 1146              		.cfi_endproc
 1147              	.LFE9:
 1148              		.size	vEventGroupClearBitsCallback, .-vEventGroupClearBitsCallback
 1149 001e C046     		.section	.text.prvTestWaitCondition,"ax",%progbits
 1150              		.align	2
 1151              		.code	16
 1152              		.thumb_func
 1153              		.type	prvTestWaitCondition, %function
 1154              	prvTestWaitCondition:
 1155              	.LFB10:
 684:..\FreeRTOS\Source/event_groups.c **** /*-----------------------------------------------------------*/
 685:..\FreeRTOS\Source/event_groups.c **** 
 686:..\FreeRTOS\Source/event_groups.c **** static BaseType_t prvTestWaitCondition( const EventBits_t uxCurrentEventBits,
 687:..\FreeRTOS\Source/event_groups.c ****                                         const EventBits_t uxBitsToWaitFor,
 688:..\FreeRTOS\Source/event_groups.c ****                                         const BaseType_t xWaitForAllBits )
 689:..\FreeRTOS\Source/event_groups.c **** {
 1156              		.loc 1 689 0
 1157              		.cfi_startproc
 1158              		@ args = 0, pretend = 0, frame = 24
 1159              		@ frame_needed = 1, uses_anonymous_args = 0
 1160 0000 80B5     		push	{r7, lr}
 1161              		.cfi_def_cfa_offset 8
 1162              		.cfi_offset 7, -8
 1163              		.cfi_offset 14, -4
 1164 0002 86B0     		sub	sp, sp, #24
 1165              		.cfi_def_cfa_offset 32
 1166 0004 00AF     		add	r7, sp, #0
 1167              		.cfi_def_cfa_register 7
 1168 0006 F860     		str	r0, [r7, #12]
 1169 0008 B960     		str	r1, [r7, #8]
 1170 000a 7A60     		str	r2, [r7, #4]
 690:..\FreeRTOS\Source/event_groups.c ****     BaseType_t xWaitConditionMet = pdFALSE;
 1171              		.loc 1 690 0
 1172 000c 0023     		movs	r3, #0
 1173 000e 7B61     		str	r3, [r7, #20]
 691:..\FreeRTOS\Source/event_groups.c **** 
 692:..\FreeRTOS\Source/event_groups.c ****     if( xWaitForAllBits == pdFALSE )
 1174              		.loc 1 692 0
 1175 0010 7B68     		ldr	r3, [r7, #4]
 1176 0012 002B     		cmp	r3, #0
 1177 0014 06D1     		bne	.L92
 693:..\FreeRTOS\Source/event_groups.c ****     {
 694:..\FreeRTOS\Source/event_groups.c ****         /* Task only has to wait for one bit within uxBitsToWaitFor to be
 695:..\FreeRTOS\Source/event_groups.c ****          * set.  Is one already set? */
 696:..\FreeRTOS\Source/event_groups.c ****         if( ( uxCurrentEventBits & uxBitsToWaitFor ) != ( EventBits_t ) 0 )
 1178              		.loc 1 696 0
 1179 0016 FB68     		ldr	r3, [r7, #12]
 1180 0018 BA68     		ldr	r2, [r7, #8]
 1181 001a 1340     		ands	r3, r2
 1182 001c 0AD0     		beq	.L93
 697:..\FreeRTOS\Source/event_groups.c ****         {
ARM GAS  C:\Users\Jason\AppData\Local\Temp\ccssYdtp.s 			page 34


 698:..\FreeRTOS\Source/event_groups.c ****             xWaitConditionMet = pdTRUE;
 1183              		.loc 1 698 0
 1184 001e 0123     		movs	r3, #1
 1185 0020 7B61     		str	r3, [r7, #20]
 1186 0022 07E0     		b	.L93
 1187              	.L92:
 699:..\FreeRTOS\Source/event_groups.c ****         }
 700:..\FreeRTOS\Source/event_groups.c ****         else
 701:..\FreeRTOS\Source/event_groups.c ****         {
 702:..\FreeRTOS\Source/event_groups.c ****             mtCOVERAGE_TEST_MARKER();
 703:..\FreeRTOS\Source/event_groups.c ****         }
 704:..\FreeRTOS\Source/event_groups.c ****     }
 705:..\FreeRTOS\Source/event_groups.c ****     else
 706:..\FreeRTOS\Source/event_groups.c ****     {
 707:..\FreeRTOS\Source/event_groups.c ****         /* Task has to wait for all the bits in uxBitsToWaitFor to be set.
 708:..\FreeRTOS\Source/event_groups.c ****          * Are they set already? */
 709:..\FreeRTOS\Source/event_groups.c ****         if( ( uxCurrentEventBits & uxBitsToWaitFor ) == uxBitsToWaitFor )
 1188              		.loc 1 709 0
 1189 0024 FB68     		ldr	r3, [r7, #12]
 1190 0026 BA68     		ldr	r2, [r7, #8]
 1191 0028 1A40     		ands	r2, r3
 1192 002a BB68     		ldr	r3, [r7, #8]
 1193 002c 9A42     		cmp	r2, r3
 1194 002e 01D1     		bne	.L93
 710:..\FreeRTOS\Source/event_groups.c ****         {
 711:..\FreeRTOS\Source/event_groups.c ****             xWaitConditionMet = pdTRUE;
 1195              		.loc 1 711 0
 1196 0030 0123     		movs	r3, #1
 1197 0032 7B61     		str	r3, [r7, #20]
 1198              	.L93:
 712:..\FreeRTOS\Source/event_groups.c ****         }
 713:..\FreeRTOS\Source/event_groups.c ****         else
 714:..\FreeRTOS\Source/event_groups.c ****         {
 715:..\FreeRTOS\Source/event_groups.c ****             mtCOVERAGE_TEST_MARKER();
 716:..\FreeRTOS\Source/event_groups.c ****         }
 717:..\FreeRTOS\Source/event_groups.c ****     }
 718:..\FreeRTOS\Source/event_groups.c **** 
 719:..\FreeRTOS\Source/event_groups.c ****     return xWaitConditionMet;
 1199              		.loc 1 719 0
 1200 0034 7B69     		ldr	r3, [r7, #20]
 720:..\FreeRTOS\Source/event_groups.c **** }
 1201              		.loc 1 720 0
 1202 0036 1800     		movs	r0, r3
 1203 0038 BD46     		mov	sp, r7
 1204 003a 06B0     		add	sp, sp, #24
 1205              		@ sp needed
 1206 003c 80BD     		pop	{r7, pc}
 1207              		.cfi_endproc
 1208              	.LFE10:
 1209              		.size	prvTestWaitCondition, .-prvTestWaitCondition
 1210 003e C046     		.text
 1211              	.Letext0:
 1212              		.file 2 "d:\\program files (x86)\\cypress\\psoc creator\\4.2\\psoc creator\\import\\gnu\\arm\\5.4.
 1213              		.file 3 "d:\\program files (x86)\\cypress\\psoc creator\\4.2\\psoc creator\\import\\gnu\\arm\\5.4.
 1214              		.file 4 "d:\\program files (x86)\\cypress\\psoc creator\\4.2\\psoc creator\\import\\gnu\\arm\\5.4.
 1215              		.file 5 "..\\FreeRTOS\\Source\\portable\\GCC\\ARM_CM0/portmacro.h"
 1216              		.file 6 "..\\FreeRTOS\\Source\\include/FreeRTOS.h"
ARM GAS  C:\Users\Jason\AppData\Local\Temp\ccssYdtp.s 			page 35


 1217              		.file 7 "..\\FreeRTOS\\Source\\include/list.h"
 1218              		.file 8 "..\\FreeRTOS\\Source\\include/event_groups.h"
 1219              		.file 9 "./FreeRTOSConfig.h"