ARM GAS  C:\Users\Jason\AppData\Local\Temp\ccKC5fmU.s 			page 1


   1              		.syntax unified
   2              		.cpu cortex-m0
   3              		.fpu softvfp
   4              		.eabi_attribute 20, 1
   5              		.eabi_attribute 21, 1
   6              		.eabi_attribute 23, 3
   7              		.eabi_attribute 24, 1
   8              		.eabi_attribute 25, 1
   9              		.eabi_attribute 26, 1
  10              		.eabi_attribute 30, 6
  11              		.eabi_attribute 34, 0
  12              		.eabi_attribute 18, 4
  13              		.thumb
  14              		.syntax unified
  15              		.file	"heap_1.c"
  16              		.text
  17              	.Ltext0:
  18              		.cfi_sections	.debug_frame
  19              		.comm	x,2,2
  20              		.bss
  21              		.align	2
  22              	xNextFreeByte:
  23 0000 00000000 		.space	4
  24              		.section	.text.pvPortMalloc,"ax",%progbits
  25              		.align	2
  26              		.global	pvPortMalloc
  27              		.code	16
  28              		.thumb_func
  29              		.type	pvPortMalloc, %function
  30              	pvPortMalloc:
  31              	.LFB0:
  32              		.file 1 "..\\FreeRTOS\\Source\\portable\\MemMang\\heap_1.c"
   1:..\FreeRTOS\Source\portable\MemMang/heap_1.c **** /*
   2:..\FreeRTOS\Source\portable\MemMang/heap_1.c ****  * FreeRTOS Kernel V10.4.3
   3:..\FreeRTOS\Source\portable\MemMang/heap_1.c ****  * Copyright (C) 2020 Amazon.com, Inc. or its affiliates.  All Rights Reserved.
   4:..\FreeRTOS\Source\portable\MemMang/heap_1.c ****  *
   5:..\FreeRTOS\Source\portable\MemMang/heap_1.c ****  * Permission is hereby granted, free of charge, to any person obtaining a copy of
   6:..\FreeRTOS\Source\portable\MemMang/heap_1.c ****  * this software and associated documentation files (the "Software"), to deal in
   7:..\FreeRTOS\Source\portable\MemMang/heap_1.c ****  * the Software without restriction, including without limitation the rights to
   8:..\FreeRTOS\Source\portable\MemMang/heap_1.c ****  * use, copy, modify, merge, publish, distribute, sublicense, and/or sell copies of
   9:..\FreeRTOS\Source\portable\MemMang/heap_1.c ****  * the Software, and to permit persons to whom the Software is furnished to do so,
  10:..\FreeRTOS\Source\portable\MemMang/heap_1.c ****  * subject to the following conditions:
  11:..\FreeRTOS\Source\portable\MemMang/heap_1.c ****  *
  12:..\FreeRTOS\Source\portable\MemMang/heap_1.c ****  * The above copyright notice and this permission notice shall be included in all
  13:..\FreeRTOS\Source\portable\MemMang/heap_1.c ****  * copies or substantial portions of the Software.
  14:..\FreeRTOS\Source\portable\MemMang/heap_1.c ****  *
  15:..\FreeRTOS\Source\portable\MemMang/heap_1.c ****  * THE SOFTWARE IS PROVIDED "AS IS", WITHOUT WARRANTY OF ANY KIND, EXPRESS OR
  16:..\FreeRTOS\Source\portable\MemMang/heap_1.c ****  * IMPLIED, INCLUDING BUT NOT LIMITED TO THE WARRANTIES OF MERCHANTABILITY, FITNESS
  17:..\FreeRTOS\Source\portable\MemMang/heap_1.c ****  * FOR A PARTICULAR PURPOSE AND NONINFRINGEMENT. IN NO EVENT SHALL THE AUTHORS OR
  18:..\FreeRTOS\Source\portable\MemMang/heap_1.c ****  * COPYRIGHT HOLDERS BE LIABLE FOR ANY CLAIM, DAMAGES OR OTHER LIABILITY, WHETHER
  19:..\FreeRTOS\Source\portable\MemMang/heap_1.c ****  * IN AN ACTION OF CONTRACT, TORT OR OTHERWISE, ARISING FROM, OUT OF OR IN
  20:..\FreeRTOS\Source\portable\MemMang/heap_1.c ****  * CONNECTION WITH THE SOFTWARE OR THE USE OR OTHER DEALINGS IN THE SOFTWARE.
  21:..\FreeRTOS\Source\portable\MemMang/heap_1.c ****  *
  22:..\FreeRTOS\Source\portable\MemMang/heap_1.c ****  * https://www.FreeRTOS.org
  23:..\FreeRTOS\Source\portable\MemMang/heap_1.c ****  * https://github.com/FreeRTOS
  24:..\FreeRTOS\Source\portable\MemMang/heap_1.c ****  *
  25:..\FreeRTOS\Source\portable\MemMang/heap_1.c ****  */
ARM GAS  C:\Users\Jason\AppData\Local\Temp\ccKC5fmU.s 			page 2


  26:..\FreeRTOS\Source\portable\MemMang/heap_1.c **** 
  27:..\FreeRTOS\Source\portable\MemMang/heap_1.c **** 
  28:..\FreeRTOS\Source\portable\MemMang/heap_1.c **** /*
  29:..\FreeRTOS\Source\portable\MemMang/heap_1.c ****  * The simplest possible implementation of pvPortMalloc().  Note that this
  30:..\FreeRTOS\Source\portable\MemMang/heap_1.c ****  * implementation does NOT allow allocated memory to be freed again.
  31:..\FreeRTOS\Source\portable\MemMang/heap_1.c ****  *
  32:..\FreeRTOS\Source\portable\MemMang/heap_1.c ****  * See heap_2.c, heap_3.c and heap_4.c for alternative implementations, and the
  33:..\FreeRTOS\Source\portable\MemMang/heap_1.c ****  * memory management pages of https://www.FreeRTOS.org for more information.
  34:..\FreeRTOS\Source\portable\MemMang/heap_1.c ****  */
  35:..\FreeRTOS\Source\portable\MemMang/heap_1.c **** #include <stdlib.h>
  36:..\FreeRTOS\Source\portable\MemMang/heap_1.c **** 
  37:..\FreeRTOS\Source\portable\MemMang/heap_1.c **** /* Defining MPU_WRAPPERS_INCLUDED_FROM_API_FILE prevents task.h from redefining
  38:..\FreeRTOS\Source\portable\MemMang/heap_1.c ****  * all the API functions to use the MPU wrappers.  That should only be done when
  39:..\FreeRTOS\Source\portable\MemMang/heap_1.c ****  * task.h is included from an application file. */
  40:..\FreeRTOS\Source\portable\MemMang/heap_1.c **** #define MPU_WRAPPERS_INCLUDED_FROM_API_FILE
  41:..\FreeRTOS\Source\portable\MemMang/heap_1.c **** 
  42:..\FreeRTOS\Source\portable\MemMang/heap_1.c **** #include "FreeRTOS.h"
  43:..\FreeRTOS\Source\portable\MemMang/heap_1.c **** #include "task.h"
  44:..\FreeRTOS\Source\portable\MemMang/heap_1.c **** 
  45:..\FreeRTOS\Source\portable\MemMang/heap_1.c **** #undef MPU_WRAPPERS_INCLUDED_FROM_API_FILE
  46:..\FreeRTOS\Source\portable\MemMang/heap_1.c **** 
  47:..\FreeRTOS\Source\portable\MemMang/heap_1.c **** #if ( configSUPPORT_DYNAMIC_ALLOCATION == 0 )
  48:..\FreeRTOS\Source\portable\MemMang/heap_1.c ****     #error This file must not be used if configSUPPORT_DYNAMIC_ALLOCATION is 0
  49:..\FreeRTOS\Source\portable\MemMang/heap_1.c **** #endif
  50:..\FreeRTOS\Source\portable\MemMang/heap_1.c **** 
  51:..\FreeRTOS\Source\portable\MemMang/heap_1.c **** /* A few bytes might be lost to byte aligning the heap start address. */
  52:..\FreeRTOS\Source\portable\MemMang/heap_1.c **** #define configADJUSTED_HEAP_SIZE    ( configTOTAL_HEAP_SIZE - portBYTE_ALIGNMENT )
  53:..\FreeRTOS\Source\portable\MemMang/heap_1.c **** 
  54:..\FreeRTOS\Source\portable\MemMang/heap_1.c **** /* Allocate the memory for the heap. */
  55:..\FreeRTOS\Source\portable\MemMang/heap_1.c **** #if ( configAPPLICATION_ALLOCATED_HEAP == 1 )
  56:..\FreeRTOS\Source\portable\MemMang/heap_1.c **** 
  57:..\FreeRTOS\Source\portable\MemMang/heap_1.c **** /* The application writer has already defined the array used for the RTOS
  58:..\FreeRTOS\Source\portable\MemMang/heap_1.c **** * heap - probably so it can be placed in a special segment or address. */
  59:..\FreeRTOS\Source\portable\MemMang/heap_1.c ****     extern uint8_t ucHeap[ configTOTAL_HEAP_SIZE ];
  60:..\FreeRTOS\Source\portable\MemMang/heap_1.c **** #else
  61:..\FreeRTOS\Source\portable\MemMang/heap_1.c ****     static uint8_t ucHeap[ configTOTAL_HEAP_SIZE ];
  62:..\FreeRTOS\Source\portable\MemMang/heap_1.c **** #endif /* configAPPLICATION_ALLOCATED_HEAP */
  63:..\FreeRTOS\Source\portable\MemMang/heap_1.c **** 
  64:..\FreeRTOS\Source\portable\MemMang/heap_1.c **** /* Index into the ucHeap array. */
  65:..\FreeRTOS\Source\portable\MemMang/heap_1.c **** static size_t xNextFreeByte = ( size_t ) 0;
  66:..\FreeRTOS\Source\portable\MemMang/heap_1.c **** 
  67:..\FreeRTOS\Source\portable\MemMang/heap_1.c **** /*-----------------------------------------------------------*/
  68:..\FreeRTOS\Source\portable\MemMang/heap_1.c **** 
  69:..\FreeRTOS\Source\portable\MemMang/heap_1.c **** void * pvPortMalloc( size_t xWantedSize )
  70:..\FreeRTOS\Source\portable\MemMang/heap_1.c **** {
  33              		.loc 1 70 0
  34              		.cfi_startproc
  35              		@ args = 0, pretend = 0, frame = 16
  36              		@ frame_needed = 1, uses_anonymous_args = 0
  37 0000 80B5     		push	{r7, lr}
  38              		.cfi_def_cfa_offset 8
  39              		.cfi_offset 7, -8
  40              		.cfi_offset 14, -4
  41 0002 84B0     		sub	sp, sp, #16
  42              		.cfi_def_cfa_offset 24
  43 0004 00AF     		add	r7, sp, #0
  44              		.cfi_def_cfa_register 7
ARM GAS  C:\Users\Jason\AppData\Local\Temp\ccKC5fmU.s 			page 3


  45 0006 7860     		str	r0, [r7, #4]
  71:..\FreeRTOS\Source\portable\MemMang/heap_1.c ****     void * pvReturn = NULL;
  46              		.loc 1 71 0
  47 0008 0023     		movs	r3, #0
  48 000a FB60     		str	r3, [r7, #12]
  72:..\FreeRTOS\Source\portable\MemMang/heap_1.c ****     static uint8_t * pucAlignedHeap = NULL;
  73:..\FreeRTOS\Source\portable\MemMang/heap_1.c **** 
  74:..\FreeRTOS\Source\portable\MemMang/heap_1.c ****     /* Ensure that blocks are always aligned. */
  75:..\FreeRTOS\Source\portable\MemMang/heap_1.c ****     #if ( portBYTE_ALIGNMENT != 1 )
  76:..\FreeRTOS\Source\portable\MemMang/heap_1.c ****         {
  77:..\FreeRTOS\Source\portable\MemMang/heap_1.c ****             if( xWantedSize & portBYTE_ALIGNMENT_MASK )
  49              		.loc 1 77 0
  50 000c 7B68     		ldr	r3, [r7, #4]
  51 000e 0722     		movs	r2, #7
  52 0010 1340     		ands	r3, r2
  53 0012 0FD0     		beq	.L2
  78:..\FreeRTOS\Source\portable\MemMang/heap_1.c ****             {
  79:..\FreeRTOS\Source\portable\MemMang/heap_1.c ****                 /* Byte alignment required. Check for overflow. */
  80:..\FreeRTOS\Source\portable\MemMang/heap_1.c ****                 if ( (xWantedSize + ( portBYTE_ALIGNMENT - ( xWantedSize & portBYTE_ALIGNMENT_MASK 
  54              		.loc 1 80 0
  55 0014 7B68     		ldr	r3, [r7, #4]
  56 0016 0722     		movs	r2, #7
  57 0018 9343     		bics	r3, r2
  58 001a 0833     		adds	r3, r3, #8
  59 001c 1A00     		movs	r2, r3
  60 001e 7B68     		ldr	r3, [r7, #4]
  61 0020 9A42     		cmp	r2, r3
  62 0022 05D9     		bls	.L3
  81:..\FreeRTOS\Source\portable\MemMang/heap_1.c ****                 {
  82:..\FreeRTOS\Source\portable\MemMang/heap_1.c ****                     xWantedSize += ( portBYTE_ALIGNMENT - ( xWantedSize & portBYTE_ALIGNMENT_MASK )
  63              		.loc 1 82 0
  64 0024 7B68     		ldr	r3, [r7, #4]
  65 0026 0722     		movs	r2, #7
  66 0028 9343     		bics	r3, r2
  67 002a 0833     		adds	r3, r3, #8
  68 002c 7B60     		str	r3, [r7, #4]
  69 002e 01E0     		b	.L2
  70              	.L3:
  83:..\FreeRTOS\Source\portable\MemMang/heap_1.c ****                 } 
  84:..\FreeRTOS\Source\portable\MemMang/heap_1.c ****                 else 
  85:..\FreeRTOS\Source\portable\MemMang/heap_1.c ****                 {
  86:..\FreeRTOS\Source\portable\MemMang/heap_1.c ****                     xWantedSize = 0;
  71              		.loc 1 86 0
  72 0030 0023     		movs	r3, #0
  73 0032 7B60     		str	r3, [r7, #4]
  74              	.L2:
  87:..\FreeRTOS\Source\portable\MemMang/heap_1.c ****                 }
  88:..\FreeRTOS\Source\portable\MemMang/heap_1.c ****             }
  89:..\FreeRTOS\Source\portable\MemMang/heap_1.c ****         }
  90:..\FreeRTOS\Source\portable\MemMang/heap_1.c ****     #endif
  91:..\FreeRTOS\Source\portable\MemMang/heap_1.c **** 
  92:..\FreeRTOS\Source\portable\MemMang/heap_1.c ****     vTaskSuspendAll();
  75              		.loc 1 92 0
  76 0034 FFF7FEFF 		bl	vTaskSuspendAll
  93:..\FreeRTOS\Source\portable\MemMang/heap_1.c ****     {
  94:..\FreeRTOS\Source\portable\MemMang/heap_1.c ****         if( pucAlignedHeap == NULL )
  77              		.loc 1 94 0
ARM GAS  C:\Users\Jason\AppData\Local\Temp\ccKC5fmU.s 			page 4


  78 0038 174B     		ldr	r3, .L7
  79 003a 1B68     		ldr	r3, [r3]
  80 003c 002B     		cmp	r3, #0
  81 003e 05D1     		bne	.L4
  95:..\FreeRTOS\Source\portable\MemMang/heap_1.c ****         {
  96:..\FreeRTOS\Source\portable\MemMang/heap_1.c ****             /* Ensure the heap starts on a correctly aligned boundary. */
  97:..\FreeRTOS\Source\portable\MemMang/heap_1.c ****             pucAlignedHeap = ( uint8_t * ) ( ( ( portPOINTER_SIZE_TYPE ) & ucHeap[ portBYTE_ALIGNME
  82              		.loc 1 97 0
  83 0040 164B     		ldr	r3, .L7+4
  84 0042 0722     		movs	r2, #7
  85 0044 9343     		bics	r3, r2
  86 0046 1A00     		movs	r2, r3
  87 0048 134B     		ldr	r3, .L7
  88 004a 1A60     		str	r2, [r3]
  89              	.L4:
  98:..\FreeRTOS\Source\portable\MemMang/heap_1.c ****         }
  99:..\FreeRTOS\Source\portable\MemMang/heap_1.c **** 
 100:..\FreeRTOS\Source\portable\MemMang/heap_1.c ****         /* Check there is enough room left for the allocation and. */
 101:..\FreeRTOS\Source\portable\MemMang/heap_1.c ****         if( ( xWantedSize > 0 ) && /* valid size */
  90              		.loc 1 101 0
  91 004c 7B68     		ldr	r3, [r7, #4]
  92 004e 002B     		cmp	r3, #0
  93 0050 1AD0     		beq	.L5
 102:..\FreeRTOS\Source\portable\MemMang/heap_1.c ****             ( ( xNextFreeByte + xWantedSize ) < configADJUSTED_HEAP_SIZE ) &&
  94              		.loc 1 102 0 discriminator 1
  95 0052 134B     		ldr	r3, .L7+8
  96 0054 1A68     		ldr	r2, [r3]
  97 0056 7B68     		ldr	r3, [r7, #4]
  98 0058 D318     		adds	r3, r2, r3
 101:..\FreeRTOS\Source\portable\MemMang/heap_1.c ****             ( ( xNextFreeByte + xWantedSize ) < configADJUSTED_HEAP_SIZE ) &&
  99              		.loc 1 101 0 discriminator 1
 100 005a 124A     		ldr	r2, .L7+12
 101 005c 9342     		cmp	r3, r2
 102 005e 13D8     		bhi	.L5
 103:..\FreeRTOS\Source\portable\MemMang/heap_1.c ****             ( ( xNextFreeByte + xWantedSize ) > xNextFreeByte ) ) /* Check for overflow. */
 103              		.loc 1 103 0
 104 0060 0F4B     		ldr	r3, .L7+8
 105 0062 1A68     		ldr	r2, [r3]
 106 0064 7B68     		ldr	r3, [r7, #4]
 107 0066 D218     		adds	r2, r2, r3
 108 0068 0D4B     		ldr	r3, .L7+8
 109 006a 1B68     		ldr	r3, [r3]
 102:..\FreeRTOS\Source\portable\MemMang/heap_1.c ****             ( ( xNextFreeByte + xWantedSize ) < configADJUSTED_HEAP_SIZE ) &&
 110              		.loc 1 102 0
 111 006c 9A42     		cmp	r2, r3
 112 006e 0BD9     		bls	.L5
 104:..\FreeRTOS\Source\portable\MemMang/heap_1.c ****         {
 105:..\FreeRTOS\Source\portable\MemMang/heap_1.c ****             /* Return the next free byte then increment the index past this
 106:..\FreeRTOS\Source\portable\MemMang/heap_1.c ****              * block. */
 107:..\FreeRTOS\Source\portable\MemMang/heap_1.c ****             pvReturn = pucAlignedHeap + xNextFreeByte;
 113              		.loc 1 107 0
 114 0070 094B     		ldr	r3, .L7
 115 0072 1A68     		ldr	r2, [r3]
 116 0074 0A4B     		ldr	r3, .L7+8
 117 0076 1B68     		ldr	r3, [r3]
 118 0078 D318     		adds	r3, r2, r3
 119 007a FB60     		str	r3, [r7, #12]
ARM GAS  C:\Users\Jason\AppData\Local\Temp\ccKC5fmU.s 			page 5


 108:..\FreeRTOS\Source\portable\MemMang/heap_1.c ****             xNextFreeByte += xWantedSize;
 120              		.loc 1 108 0
 121 007c 084B     		ldr	r3, .L7+8
 122 007e 1A68     		ldr	r2, [r3]
 123 0080 7B68     		ldr	r3, [r7, #4]
 124 0082 D218     		adds	r2, r2, r3
 125 0084 064B     		ldr	r3, .L7+8
 126 0086 1A60     		str	r2, [r3]
 127              	.L5:
 109:..\FreeRTOS\Source\portable\MemMang/heap_1.c ****         }
 110:..\FreeRTOS\Source\portable\MemMang/heap_1.c **** 
 111:..\FreeRTOS\Source\portable\MemMang/heap_1.c ****         traceMALLOC( pvReturn, xWantedSize );
 112:..\FreeRTOS\Source\portable\MemMang/heap_1.c ****     }
 113:..\FreeRTOS\Source\portable\MemMang/heap_1.c ****     ( void ) xTaskResumeAll();
 128              		.loc 1 113 0
 129 0088 FFF7FEFF 		bl	xTaskResumeAll
 114:..\FreeRTOS\Source\portable\MemMang/heap_1.c **** 
 115:..\FreeRTOS\Source\portable\MemMang/heap_1.c ****     #if ( configUSE_MALLOC_FAILED_HOOK == 1 )
 116:..\FreeRTOS\Source\portable\MemMang/heap_1.c ****         {
 117:..\FreeRTOS\Source\portable\MemMang/heap_1.c ****             if( pvReturn == NULL )
 118:..\FreeRTOS\Source\portable\MemMang/heap_1.c ****             {
 119:..\FreeRTOS\Source\portable\MemMang/heap_1.c ****                 extern void vApplicationMallocFailedHook( void );
 120:..\FreeRTOS\Source\portable\MemMang/heap_1.c ****                 vApplicationMallocFailedHook();
 121:..\FreeRTOS\Source\portable\MemMang/heap_1.c ****             }
 122:..\FreeRTOS\Source\portable\MemMang/heap_1.c ****         }
 123:..\FreeRTOS\Source\portable\MemMang/heap_1.c ****     #endif
 124:..\FreeRTOS\Source\portable\MemMang/heap_1.c **** 
 125:..\FreeRTOS\Source\portable\MemMang/heap_1.c ****     return pvReturn;
 130              		.loc 1 125 0
 131 008c FB68     		ldr	r3, [r7, #12]
 126:..\FreeRTOS\Source\portable\MemMang/heap_1.c **** }
 132              		.loc 1 126 0
 133 008e 1800     		movs	r0, r3
 134 0090 BD46     		mov	sp, r7
 135 0092 04B0     		add	sp, sp, #16
 136              		@ sp needed
 137 0094 80BD     		pop	{r7, pc}
 138              	.L8:
 139 0096 C046     		.align	2
 140              	.L7:
 141 0098 04000000 		.word	pucAlignedHeap.5184
 142 009c 08000000 		.word	ucHeap+8
 143 00a0 00000000 		.word	xNextFreeByte
 144 00a4 F7270000 		.word	10231
 145              		.cfi_endproc
 146              	.LFE0:
 147              		.size	pvPortMalloc, .-pvPortMalloc
 148              		.section	.text.vPortFree,"ax",%progbits
 149              		.align	2
 150              		.global	vPortFree
 151              		.code	16
 152              		.thumb_func
 153              		.type	vPortFree, %function
 154              	vPortFree:
 155              	.LFB1:
 127:..\FreeRTOS\Source\portable\MemMang/heap_1.c **** /*-----------------------------------------------------------*/
 128:..\FreeRTOS\Source\portable\MemMang/heap_1.c **** 
ARM GAS  C:\Users\Jason\AppData\Local\Temp\ccKC5fmU.s 			page 6


 129:..\FreeRTOS\Source\portable\MemMang/heap_1.c **** void vPortFree( void * pv )
 130:..\FreeRTOS\Source\portable\MemMang/heap_1.c **** {
 156              		.loc 1 130 0
 157              		.cfi_startproc
 158              		@ args = 0, pretend = 0, frame = 8
 159              		@ frame_needed = 1, uses_anonymous_args = 0
 160 0000 80B5     		push	{r7, lr}
 161              		.cfi_def_cfa_offset 8
 162              		.cfi_offset 7, -8
 163              		.cfi_offset 14, -4
 164 0002 82B0     		sub	sp, sp, #8
 165              		.cfi_def_cfa_offset 16
 166 0004 00AF     		add	r7, sp, #0
 167              		.cfi_def_cfa_register 7
 168 0006 7860     		str	r0, [r7, #4]
 131:..\FreeRTOS\Source\portable\MemMang/heap_1.c ****     /* Memory cannot be freed using this scheme.  See heap_2.c, heap_3.c and
 132:..\FreeRTOS\Source\portable\MemMang/heap_1.c ****      * heap_4.c for alternative implementations, and the memory management pages of
 133:..\FreeRTOS\Source\portable\MemMang/heap_1.c ****      * https://www.FreeRTOS.org for more information. */
 134:..\FreeRTOS\Source\portable\MemMang/heap_1.c ****     ( void ) pv;
 135:..\FreeRTOS\Source\portable\MemMang/heap_1.c **** 
 136:..\FreeRTOS\Source\portable\MemMang/heap_1.c ****     /* Force an assert as it is invalid to call this function. */
 137:..\FreeRTOS\Source\portable\MemMang/heap_1.c ****     configASSERT( pv == NULL );
 169              		.loc 1 137 0
 170 0008 044B     		ldr	r3, .L13
 171 000a 1B88     		ldrh	r3, [r3]
 172 000c 002B     		cmp	r3, #0
 173 000e 01D1     		bne	.L12
 174              		.loc 1 137 0 is_stmt 0 discriminator 1
 175              		.syntax divided
 176              	@ 137 "..\FreeRTOS\Source\portable\MemMang\heap_1.c" 1
 177 0010 72B6     		 cpsid i 
 178              	@ 0 "" 2
 179              		.thumb
 180              		.syntax unified
 181              	.L11:
 182 0012 FEE7     		b	.L11
 183              	.L12:
 138:..\FreeRTOS\Source\portable\MemMang/heap_1.c **** }
 184              		.loc 1 138 0 is_stmt 1
 185 0014 C046     		nop
 186 0016 BD46     		mov	sp, r7
 187 0018 02B0     		add	sp, sp, #8
 188              		@ sp needed
 189 001a 80BD     		pop	{r7, pc}
 190              	.L14:
 191              		.align	2
 192              	.L13:
 193 001c 00000000 		.word	x
 194              		.cfi_endproc
 195              	.LFE1:
 196              		.size	vPortFree, .-vPortFree
 197              		.section	.text.vPortInitialiseBlocks,"ax",%progbits
 198              		.align	2
 199              		.global	vPortInitialiseBlocks
 200              		.code	16
 201              		.thumb_func
 202              		.type	vPortInitialiseBlocks, %function
ARM GAS  C:\Users\Jason\AppData\Local\Temp\ccKC5fmU.s 			page 7


 203              	vPortInitialiseBlocks:
 204              	.LFB2:
 139:..\FreeRTOS\Source\portable\MemMang/heap_1.c **** /*-----------------------------------------------------------*/
 140:..\FreeRTOS\Source\portable\MemMang/heap_1.c **** 
 141:..\FreeRTOS\Source\portable\MemMang/heap_1.c **** void vPortInitialiseBlocks( void )
 142:..\FreeRTOS\Source\portable\MemMang/heap_1.c **** {
 205              		.loc 1 142 0
 206              		.cfi_startproc
 207              		@ args = 0, pretend = 0, frame = 0
 208              		@ frame_needed = 1, uses_anonymous_args = 0
 209 0000 80B5     		push	{r7, lr}
 210              		.cfi_def_cfa_offset 8
 211              		.cfi_offset 7, -8
 212              		.cfi_offset 14, -4
 213 0002 00AF     		add	r7, sp, #0
 214              		.cfi_def_cfa_register 7
 143:..\FreeRTOS\Source\portable\MemMang/heap_1.c ****     /* Only required when static memory is not cleared. */
 144:..\FreeRTOS\Source\portable\MemMang/heap_1.c ****     xNextFreeByte = ( size_t ) 0;
 215              		.loc 1 144 0
 216 0004 024B     		ldr	r3, .L16
 217 0006 0022     		movs	r2, #0
 218 0008 1A60     		str	r2, [r3]
 145:..\FreeRTOS\Source\portable\MemMang/heap_1.c **** }
 219              		.loc 1 145 0
 220 000a C046     		nop
 221 000c BD46     		mov	sp, r7
 222              		@ sp needed
 223 000e 80BD     		pop	{r7, pc}
 224              	.L17:
 225              		.align	2
 226              	.L16:
 227 0010 00000000 		.word	xNextFreeByte
 228              		.cfi_endproc
 229              	.LFE2:
 230              		.size	vPortInitialiseBlocks, .-vPortInitialiseBlocks
 231              		.section	.text.xPortGetFreeHeapSize,"ax",%progbits
 232              		.align	2
 233              		.global	xPortGetFreeHeapSize
 234              		.code	16
 235              		.thumb_func
 236              		.type	xPortGetFreeHeapSize, %function
 237              	xPortGetFreeHeapSize:
 238              	.LFB3:
 146:..\FreeRTOS\Source\portable\MemMang/heap_1.c **** /*-----------------------------------------------------------*/
 147:..\FreeRTOS\Source\portable\MemMang/heap_1.c **** 
 148:..\FreeRTOS\Source\portable\MemMang/heap_1.c **** size_t xPortGetFreeHeapSize( void )
 149:..\FreeRTOS\Source\portable\MemMang/heap_1.c **** {
 239              		.loc 1 149 0
 240              		.cfi_startproc
 241              		@ args = 0, pretend = 0, frame = 0
 242              		@ frame_needed = 1, uses_anonymous_args = 0
 243 0000 80B5     		push	{r7, lr}
 244              		.cfi_def_cfa_offset 8
 245              		.cfi_offset 7, -8
 246              		.cfi_offset 14, -4
 247 0002 00AF     		add	r7, sp, #0
 248              		.cfi_def_cfa_register 7
ARM GAS  C:\Users\Jason\AppData\Local\Temp\ccKC5fmU.s 			page 8


 150:..\FreeRTOS\Source\portable\MemMang/heap_1.c ****     return( configADJUSTED_HEAP_SIZE - xNextFreeByte );
 249              		.loc 1 150 0
 250 0004 034B     		ldr	r3, .L20
 251 0006 1B68     		ldr	r3, [r3]
 252 0008 034A     		ldr	r2, .L20+4
 253 000a D31A     		subs	r3, r2, r3
 151:..\FreeRTOS\Source\portable\MemMang/heap_1.c **** }
 254              		.loc 1 151 0
 255 000c 1800     		movs	r0, r3
 256 000e BD46     		mov	sp, r7
 257              		@ sp needed
 258 0010 80BD     		pop	{r7, pc}
 259              	.L21:
 260 0012 C046     		.align	2
 261              	.L20:
 262 0014 00000000 		.word	xNextFreeByte
 263 0018 F8270000 		.word	10232
 264              		.cfi_endproc
 265              	.LFE3:
 266              		.size	xPortGetFreeHeapSize, .-xPortGetFreeHeapSize
 267              		.bss
 268              		.align	2
 269              	pucAlignedHeap.5184:
 270 0004 00000000 		.space	4
 271              		.text
 272              	.Letext0:
 273              		.file 2 "d:\\program files (x86)\\cypress\\psoc creator\\4.2\\psoc creator\\import\\gnu\\arm\\5.4.
 274              		.file 3 "d:\\program files (x86)\\cypress\\psoc creator\\4.2\\psoc creator\\import\\gnu\\arm\\5.4.
 275              		.file 4 "d:\\program files (x86)\\cypress\\psoc creator\\4.2\\psoc creator\\import\\gnu\\arm\\5.4.
 276              		.file 5 "./FreeRTOSConfig.h"