ARM GAS  C:\Users\Jason\AppData\Local\Temp\cc2s2zGK.s 			page 1


   1              		.syntax unified
   2              		.cpu cortex-m0
   3              		.fpu softvfp
   4              		.eabi_attribute 20, 1
   5              		.eabi_attribute 21, 1
   6              		.eabi_attribute 23, 3
   7              		.eabi_attribute 24, 1
   8              		.eabi_attribute 25, 1
   9              		.eabi_attribute 26, 1
  10              		.eabi_attribute 30, 6
  11              		.eabi_attribute 34, 0
  12              		.eabi_attribute 18, 4
  13              		.thumb
  14              		.syntax unified
  15              		.file	"list.c"
  16              		.text
  17              	.Ltext0:
  18              		.cfi_sections	.debug_frame
  19              		.comm	x,2,2
  20              		.section	.text.vListInitialise,"ax",%progbits
  21              		.align	2
  22              		.global	vListInitialise
  23              		.code	16
  24              		.thumb_func
  25              		.type	vListInitialise, %function
  26              	vListInitialise:
  27              	.LFB0:
  28              		.file 1 "..\\FreeRTOS\\Source\\list.c"
   1:..\FreeRTOS\Source/list.c **** /*
   2:..\FreeRTOS\Source/list.c ****  * FreeRTOS Kernel V10.4.3
   3:..\FreeRTOS\Source/list.c ****  * Copyright (C) 2020 Amazon.com, Inc. or its affiliates.  All Rights Reserved.
   4:..\FreeRTOS\Source/list.c ****  *
   5:..\FreeRTOS\Source/list.c ****  * Permission is hereby granted, free of charge, to any person obtaining a copy of
   6:..\FreeRTOS\Source/list.c ****  * this software and associated documentation files (the "Software"), to deal in
   7:..\FreeRTOS\Source/list.c ****  * the Software without restriction, including without limitation the rights to
   8:..\FreeRTOS\Source/list.c ****  * use, copy, modify, merge, publish, distribute, sublicense, and/or sell copies of
   9:..\FreeRTOS\Source/list.c ****  * the Software, and to permit persons to whom the Software is furnished to do so,
  10:..\FreeRTOS\Source/list.c ****  * subject to the following conditions:
  11:..\FreeRTOS\Source/list.c ****  *
  12:..\FreeRTOS\Source/list.c ****  * The above copyright notice and this permission notice shall be included in all
  13:..\FreeRTOS\Source/list.c ****  * copies or substantial portions of the Software.
  14:..\FreeRTOS\Source/list.c ****  *
  15:..\FreeRTOS\Source/list.c ****  * THE SOFTWARE IS PROVIDED "AS IS", WITHOUT WARRANTY OF ANY KIND, EXPRESS OR
  16:..\FreeRTOS\Source/list.c ****  * IMPLIED, INCLUDING BUT NOT LIMITED TO THE WARRANTIES OF MERCHANTABILITY, FITNESS
  17:..\FreeRTOS\Source/list.c ****  * FOR A PARTICULAR PURPOSE AND NONINFRINGEMENT. IN NO EVENT SHALL THE AUTHORS OR
  18:..\FreeRTOS\Source/list.c ****  * COPYRIGHT HOLDERS BE LIABLE FOR ANY CLAIM, DAMAGES OR OTHER LIABILITY, WHETHER
  19:..\FreeRTOS\Source/list.c ****  * IN AN ACTION OF CONTRACT, TORT OR OTHERWISE, ARISING FROM, OUT OF OR IN
  20:..\FreeRTOS\Source/list.c ****  * CONNECTION WITH THE SOFTWARE OR THE USE OR OTHER DEALINGS IN THE SOFTWARE.
  21:..\FreeRTOS\Source/list.c ****  *
  22:..\FreeRTOS\Source/list.c ****  * https://www.FreeRTOS.org
  23:..\FreeRTOS\Source/list.c ****  * https://github.com/FreeRTOS
  24:..\FreeRTOS\Source/list.c ****  *
  25:..\FreeRTOS\Source/list.c ****  */
  26:..\FreeRTOS\Source/list.c **** 
  27:..\FreeRTOS\Source/list.c **** 
  28:..\FreeRTOS\Source/list.c **** #include <stdlib.h>
  29:..\FreeRTOS\Source/list.c **** 
ARM GAS  C:\Users\Jason\AppData\Local\Temp\cc2s2zGK.s 			page 2


  30:..\FreeRTOS\Source/list.c **** /* Defining MPU_WRAPPERS_INCLUDED_FROM_API_FILE prevents task.h from redefining
  31:..\FreeRTOS\Source/list.c ****  * all the API functions to use the MPU wrappers.  That should only be done when
  32:..\FreeRTOS\Source/list.c ****  * task.h is included from an application file. */
  33:..\FreeRTOS\Source/list.c **** #define MPU_WRAPPERS_INCLUDED_FROM_API_FILE
  34:..\FreeRTOS\Source/list.c **** 
  35:..\FreeRTOS\Source/list.c **** #include "FreeRTOS.h"
  36:..\FreeRTOS\Source/list.c **** #include "list.h"
  37:..\FreeRTOS\Source/list.c **** 
  38:..\FreeRTOS\Source/list.c **** /* Lint e9021, e961 and e750 are suppressed as a MISRA exception justified
  39:..\FreeRTOS\Source/list.c ****  * because the MPU ports require MPU_WRAPPERS_INCLUDED_FROM_API_FILE to be
  40:..\FreeRTOS\Source/list.c ****  * defined for the header files above, but not in this file, in order to
  41:..\FreeRTOS\Source/list.c ****  * generate the correct privileged Vs unprivileged linkage and placement. */
  42:..\FreeRTOS\Source/list.c **** #undef MPU_WRAPPERS_INCLUDED_FROM_API_FILE /*lint !e961 !e750 !e9021. */
  43:..\FreeRTOS\Source/list.c **** 
  44:..\FreeRTOS\Source/list.c **** /*-----------------------------------------------------------
  45:..\FreeRTOS\Source/list.c **** * PUBLIC LIST API documented in list.h
  46:..\FreeRTOS\Source/list.c **** *----------------------------------------------------------*/
  47:..\FreeRTOS\Source/list.c **** 
  48:..\FreeRTOS\Source/list.c **** void vListInitialise( List_t * const pxList )
  49:..\FreeRTOS\Source/list.c **** {
  29              		.loc 1 49 0
  30              		.cfi_startproc
  31              		@ args = 0, pretend = 0, frame = 8
  32              		@ frame_needed = 1, uses_anonymous_args = 0
  33 0000 80B5     		push	{r7, lr}
  34              		.cfi_def_cfa_offset 8
  35              		.cfi_offset 7, -8
  36              		.cfi_offset 14, -4
  37 0002 82B0     		sub	sp, sp, #8
  38              		.cfi_def_cfa_offset 16
  39 0004 00AF     		add	r7, sp, #0
  40              		.cfi_def_cfa_register 7
  41 0006 7860     		str	r0, [r7, #4]
  50:..\FreeRTOS\Source/list.c ****     /* The list structure contains a list item which is used to mark the
  51:..\FreeRTOS\Source/list.c ****      * end of the list.  To initialise the list the list end is inserted
  52:..\FreeRTOS\Source/list.c ****      * as the only list entry. */
  53:..\FreeRTOS\Source/list.c ****     pxList->pxIndex = ( ListItem_t * ) &( pxList->xListEnd ); /*lint !e826 !e740 !e9087 The mini li
  42              		.loc 1 53 0
  43 0008 7B68     		ldr	r3, [r7, #4]
  44 000a 0833     		adds	r3, r3, #8
  45 000c 1A00     		movs	r2, r3
  46 000e 7B68     		ldr	r3, [r7, #4]
  47 0010 5A60     		str	r2, [r3, #4]
  54:..\FreeRTOS\Source/list.c **** 
  55:..\FreeRTOS\Source/list.c ****     /* The list end value is the highest possible value in the list to
  56:..\FreeRTOS\Source/list.c ****      * ensure it remains at the end of the list. */
  57:..\FreeRTOS\Source/list.c ****     pxList->xListEnd.xItemValue = portMAX_DELAY;
  48              		.loc 1 57 0
  49 0012 7B68     		ldr	r3, [r7, #4]
  50 0014 0122     		movs	r2, #1
  51 0016 5242     		rsbs	r2, r2, #0
  52 0018 9A60     		str	r2, [r3, #8]
  58:..\FreeRTOS\Source/list.c **** 
  59:..\FreeRTOS\Source/list.c ****     /* The list end next and previous pointers point to itself so we know
  60:..\FreeRTOS\Source/list.c ****      * when the list is empty. */
  61:..\FreeRTOS\Source/list.c ****     pxList->xListEnd.pxNext = ( ListItem_t * ) &( pxList->xListEnd );     /*lint !e826 !e740 !e9087
  53              		.loc 1 61 0
ARM GAS  C:\Users\Jason\AppData\Local\Temp\cc2s2zGK.s 			page 3


  54 001a 7B68     		ldr	r3, [r7, #4]
  55 001c 0833     		adds	r3, r3, #8
  56 001e 1A00     		movs	r2, r3
  57 0020 7B68     		ldr	r3, [r7, #4]
  58 0022 DA60     		str	r2, [r3, #12]
  62:..\FreeRTOS\Source/list.c ****     pxList->xListEnd.pxPrevious = ( ListItem_t * ) &( pxList->xListEnd ); /*lint !e826 !e740 !e9087
  59              		.loc 1 62 0
  60 0024 7B68     		ldr	r3, [r7, #4]
  61 0026 0833     		adds	r3, r3, #8
  62 0028 1A00     		movs	r2, r3
  63 002a 7B68     		ldr	r3, [r7, #4]
  64 002c 1A61     		str	r2, [r3, #16]
  63:..\FreeRTOS\Source/list.c **** 
  64:..\FreeRTOS\Source/list.c ****     pxList->uxNumberOfItems = ( UBaseType_t ) 0U;
  65              		.loc 1 64 0
  66 002e 7B68     		ldr	r3, [r7, #4]
  67 0030 0022     		movs	r2, #0
  68 0032 1A60     		str	r2, [r3]
  65:..\FreeRTOS\Source/list.c **** 
  66:..\FreeRTOS\Source/list.c ****     /* Write known values into the list if
  67:..\FreeRTOS\Source/list.c ****      * configUSE_LIST_DATA_INTEGRITY_CHECK_BYTES is set to 1. */
  68:..\FreeRTOS\Source/list.c ****     listSET_LIST_INTEGRITY_CHECK_1_VALUE( pxList );
  69:..\FreeRTOS\Source/list.c ****     listSET_LIST_INTEGRITY_CHECK_2_VALUE( pxList );
  70:..\FreeRTOS\Source/list.c **** }
  69              		.loc 1 70 0
  70 0034 C046     		nop
  71 0036 BD46     		mov	sp, r7
  72 0038 02B0     		add	sp, sp, #8
  73              		@ sp needed
  74 003a 80BD     		pop	{r7, pc}
  75              		.cfi_endproc
  76              	.LFE0:
  77              		.size	vListInitialise, .-vListInitialise
  78              		.section	.text.vListInitialiseItem,"ax",%progbits
  79              		.align	2
  80              		.global	vListInitialiseItem
  81              		.code	16
  82              		.thumb_func
  83              		.type	vListInitialiseItem, %function
  84              	vListInitialiseItem:
  85              	.LFB1:
  71:..\FreeRTOS\Source/list.c **** /*-----------------------------------------------------------*/
  72:..\FreeRTOS\Source/list.c **** 
  73:..\FreeRTOS\Source/list.c **** void vListInitialiseItem( ListItem_t * const pxItem )
  74:..\FreeRTOS\Source/list.c **** {
  86              		.loc 1 74 0
  87              		.cfi_startproc
  88              		@ args = 0, pretend = 0, frame = 8
  89              		@ frame_needed = 1, uses_anonymous_args = 0
  90 0000 80B5     		push	{r7, lr}
  91              		.cfi_def_cfa_offset 8
  92              		.cfi_offset 7, -8
  93              		.cfi_offset 14, -4
  94 0002 82B0     		sub	sp, sp, #8
  95              		.cfi_def_cfa_offset 16
  96 0004 00AF     		add	r7, sp, #0
  97              		.cfi_def_cfa_register 7
ARM GAS  C:\Users\Jason\AppData\Local\Temp\cc2s2zGK.s 			page 4


  98 0006 7860     		str	r0, [r7, #4]
  75:..\FreeRTOS\Source/list.c ****     /* Make sure the list item is not recorded as being on a list. */
  76:..\FreeRTOS\Source/list.c ****     pxItem->pxContainer = NULL;
  99              		.loc 1 76 0
 100 0008 7B68     		ldr	r3, [r7, #4]
 101 000a 0022     		movs	r2, #0
 102 000c 1A61     		str	r2, [r3, #16]
  77:..\FreeRTOS\Source/list.c **** 
  78:..\FreeRTOS\Source/list.c ****     /* Write known values into the list item if
  79:..\FreeRTOS\Source/list.c ****      * configUSE_LIST_DATA_INTEGRITY_CHECK_BYTES is set to 1. */
  80:..\FreeRTOS\Source/list.c ****     listSET_FIRST_LIST_ITEM_INTEGRITY_CHECK_VALUE( pxItem );
  81:..\FreeRTOS\Source/list.c ****     listSET_SECOND_LIST_ITEM_INTEGRITY_CHECK_VALUE( pxItem );
  82:..\FreeRTOS\Source/list.c **** }
 103              		.loc 1 82 0
 104 000e C046     		nop
 105 0010 BD46     		mov	sp, r7
 106 0012 02B0     		add	sp, sp, #8
 107              		@ sp needed
 108 0014 80BD     		pop	{r7, pc}
 109              		.cfi_endproc
 110              	.LFE1:
 111              		.size	vListInitialiseItem, .-vListInitialiseItem
 112 0016 C046     		.section	.text.vListInsertEnd,"ax",%progbits
 113              		.align	2
 114              		.global	vListInsertEnd
 115              		.code	16
 116              		.thumb_func
 117              		.type	vListInsertEnd, %function
 118              	vListInsertEnd:
 119              	.LFB2:
  83:..\FreeRTOS\Source/list.c **** /*-----------------------------------------------------------*/
  84:..\FreeRTOS\Source/list.c **** 
  85:..\FreeRTOS\Source/list.c **** void vListInsertEnd( List_t * const pxList,
  86:..\FreeRTOS\Source/list.c ****                      ListItem_t * const pxNewListItem )
  87:..\FreeRTOS\Source/list.c **** {
 120              		.loc 1 87 0
 121              		.cfi_startproc
 122              		@ args = 0, pretend = 0, frame = 16
 123              		@ frame_needed = 1, uses_anonymous_args = 0
 124 0000 80B5     		push	{r7, lr}
 125              		.cfi_def_cfa_offset 8
 126              		.cfi_offset 7, -8
 127              		.cfi_offset 14, -4
 128 0002 84B0     		sub	sp, sp, #16
 129              		.cfi_def_cfa_offset 24
 130 0004 00AF     		add	r7, sp, #0
 131              		.cfi_def_cfa_register 7
 132 0006 7860     		str	r0, [r7, #4]
 133 0008 3960     		str	r1, [r7]
  88:..\FreeRTOS\Source/list.c ****     ListItem_t * const pxIndex = pxList->pxIndex;
 134              		.loc 1 88 0
 135 000a 7B68     		ldr	r3, [r7, #4]
 136 000c 5B68     		ldr	r3, [r3, #4]
 137 000e FB60     		str	r3, [r7, #12]
  89:..\FreeRTOS\Source/list.c **** 
  90:..\FreeRTOS\Source/list.c ****     /* Only effective when configASSERT() is also defined, these tests may catch
  91:..\FreeRTOS\Source/list.c ****      * the list data structures being overwritten in memory.  They will not catch
ARM GAS  C:\Users\Jason\AppData\Local\Temp\cc2s2zGK.s 			page 5


  92:..\FreeRTOS\Source/list.c ****      * data errors caused by incorrect configuration or use of FreeRTOS. */
  93:..\FreeRTOS\Source/list.c ****     listTEST_LIST_INTEGRITY( pxList );
  94:..\FreeRTOS\Source/list.c ****     listTEST_LIST_ITEM_INTEGRITY( pxNewListItem );
  95:..\FreeRTOS\Source/list.c **** 
  96:..\FreeRTOS\Source/list.c ****     /* Insert a new list item into pxList, but rather than sort the list,
  97:..\FreeRTOS\Source/list.c ****      * makes the new list item the last item to be removed by a call to
  98:..\FreeRTOS\Source/list.c ****      * listGET_OWNER_OF_NEXT_ENTRY(). */
  99:..\FreeRTOS\Source/list.c ****     pxNewListItem->pxNext = pxIndex;
 138              		.loc 1 99 0
 139 0010 3B68     		ldr	r3, [r7]
 140 0012 FA68     		ldr	r2, [r7, #12]
 141 0014 5A60     		str	r2, [r3, #4]
 100:..\FreeRTOS\Source/list.c ****     pxNewListItem->pxPrevious = pxIndex->pxPrevious;
 142              		.loc 1 100 0
 143 0016 FB68     		ldr	r3, [r7, #12]
 144 0018 9A68     		ldr	r2, [r3, #8]
 145 001a 3B68     		ldr	r3, [r7]
 146 001c 9A60     		str	r2, [r3, #8]
 101:..\FreeRTOS\Source/list.c **** 
 102:..\FreeRTOS\Source/list.c ****     /* Only used during decision coverage testing. */
 103:..\FreeRTOS\Source/list.c ****     mtCOVERAGE_TEST_DELAY();
 104:..\FreeRTOS\Source/list.c **** 
 105:..\FreeRTOS\Source/list.c ****     pxIndex->pxPrevious->pxNext = pxNewListItem;
 147              		.loc 1 105 0
 148 001e FB68     		ldr	r3, [r7, #12]
 149 0020 9B68     		ldr	r3, [r3, #8]
 150 0022 3A68     		ldr	r2, [r7]
 151 0024 5A60     		str	r2, [r3, #4]
 106:..\FreeRTOS\Source/list.c ****     pxIndex->pxPrevious = pxNewListItem;
 152              		.loc 1 106 0
 153 0026 FB68     		ldr	r3, [r7, #12]
 154 0028 3A68     		ldr	r2, [r7]
 155 002a 9A60     		str	r2, [r3, #8]
 107:..\FreeRTOS\Source/list.c **** 
 108:..\FreeRTOS\Source/list.c ****     /* Remember which list the item is in. */
 109:..\FreeRTOS\Source/list.c ****     pxNewListItem->pxContainer = pxList;
 156              		.loc 1 109 0
 157 002c 3B68     		ldr	r3, [r7]
 158 002e 7A68     		ldr	r2, [r7, #4]
 159 0030 1A61     		str	r2, [r3, #16]
 110:..\FreeRTOS\Source/list.c **** 
 111:..\FreeRTOS\Source/list.c ****     ( pxList->uxNumberOfItems )++;
 160              		.loc 1 111 0
 161 0032 7B68     		ldr	r3, [r7, #4]
 162 0034 1B68     		ldr	r3, [r3]
 163 0036 5A1C     		adds	r2, r3, #1
 164 0038 7B68     		ldr	r3, [r7, #4]
 165 003a 1A60     		str	r2, [r3]
 112:..\FreeRTOS\Source/list.c **** }
 166              		.loc 1 112 0
 167 003c C046     		nop
 168 003e BD46     		mov	sp, r7
 169 0040 04B0     		add	sp, sp, #16
 170              		@ sp needed
 171 0042 80BD     		pop	{r7, pc}
 172              		.cfi_endproc
 173              	.LFE2:
ARM GAS  C:\Users\Jason\AppData\Local\Temp\cc2s2zGK.s 			page 6


 174              		.size	vListInsertEnd, .-vListInsertEnd
 175              		.section	.text.vListInsert,"ax",%progbits
 176              		.align	2
 177              		.global	vListInsert
 178              		.code	16
 179              		.thumb_func
 180              		.type	vListInsert, %function
 181              	vListInsert:
 182              	.LFB3:
 113:..\FreeRTOS\Source/list.c **** /*-----------------------------------------------------------*/
 114:..\FreeRTOS\Source/list.c **** 
 115:..\FreeRTOS\Source/list.c **** void vListInsert( List_t * const pxList,
 116:..\FreeRTOS\Source/list.c ****                   ListItem_t * const pxNewListItem )
 117:..\FreeRTOS\Source/list.c **** {
 183              		.loc 1 117 0
 184              		.cfi_startproc
 185              		@ args = 0, pretend = 0, frame = 16
 186              		@ frame_needed = 1, uses_anonymous_args = 0
 187 0000 80B5     		push	{r7, lr}
 188              		.cfi_def_cfa_offset 8
 189              		.cfi_offset 7, -8
 190              		.cfi_offset 14, -4
 191 0002 84B0     		sub	sp, sp, #16
 192              		.cfi_def_cfa_offset 24
 193 0004 00AF     		add	r7, sp, #0
 194              		.cfi_def_cfa_register 7
 195 0006 7860     		str	r0, [r7, #4]
 196 0008 3960     		str	r1, [r7]
 118:..\FreeRTOS\Source/list.c ****     ListItem_t * pxIterator;
 119:..\FreeRTOS\Source/list.c ****     const TickType_t xValueOfInsertion = pxNewListItem->xItemValue;
 197              		.loc 1 119 0
 198 000a 3B68     		ldr	r3, [r7]
 199 000c 1B68     		ldr	r3, [r3]
 200 000e BB60     		str	r3, [r7, #8]
 120:..\FreeRTOS\Source/list.c **** 
 121:..\FreeRTOS\Source/list.c ****     /* Only effective when configASSERT() is also defined, these tests may catch
 122:..\FreeRTOS\Source/list.c ****      * the list data structures being overwritten in memory.  They will not catch
 123:..\FreeRTOS\Source/list.c ****      * data errors caused by incorrect configuration or use of FreeRTOS. */
 124:..\FreeRTOS\Source/list.c ****     listTEST_LIST_INTEGRITY( pxList );
 125:..\FreeRTOS\Source/list.c ****     listTEST_LIST_ITEM_INTEGRITY( pxNewListItem );
 126:..\FreeRTOS\Source/list.c **** 
 127:..\FreeRTOS\Source/list.c ****     /* Insert the new list item into the list, sorted in xItemValue order.
 128:..\FreeRTOS\Source/list.c ****      *
 129:..\FreeRTOS\Source/list.c ****      * If the list already contains a list item with the same item value then the
 130:..\FreeRTOS\Source/list.c ****      * new list item should be placed after it.  This ensures that TCBs which are
 131:..\FreeRTOS\Source/list.c ****      * stored in ready lists (all of which have the same xItemValue value) get a
 132:..\FreeRTOS\Source/list.c ****      * share of the CPU.  However, if the xItemValue is the same as the back marker
 133:..\FreeRTOS\Source/list.c ****      * the iteration loop below will not end.  Therefore the value is checked
 134:..\FreeRTOS\Source/list.c ****      * first, and the algorithm slightly modified if necessary. */
 135:..\FreeRTOS\Source/list.c ****     if( xValueOfInsertion == portMAX_DELAY )
 201              		.loc 1 135 0
 202 0010 BB68     		ldr	r3, [r7, #8]
 203 0012 0133     		adds	r3, r3, #1
 204 0014 03D1     		bne	.L5
 136:..\FreeRTOS\Source/list.c ****     {
 137:..\FreeRTOS\Source/list.c ****         pxIterator = pxList->xListEnd.pxPrevious;
 205              		.loc 1 137 0
ARM GAS  C:\Users\Jason\AppData\Local\Temp\cc2s2zGK.s 			page 7


 206 0016 7B68     		ldr	r3, [r7, #4]
 207 0018 1B69     		ldr	r3, [r3, #16]
 208 001a FB60     		str	r3, [r7, #12]
 209 001c 0CE0     		b	.L6
 210              	.L5:
 138:..\FreeRTOS\Source/list.c ****     }
 139:..\FreeRTOS\Source/list.c ****     else
 140:..\FreeRTOS\Source/list.c ****     {
 141:..\FreeRTOS\Source/list.c ****         /* *** NOTE ***********************************************************
 142:..\FreeRTOS\Source/list.c ****         *  If you find your application is crashing here then likely causes are
 143:..\FreeRTOS\Source/list.c ****         *  listed below.  In addition see https://www.FreeRTOS.org/FAQHelp.html for
 144:..\FreeRTOS\Source/list.c ****         *  more tips, and ensure configASSERT() is defined!
 145:..\FreeRTOS\Source/list.c ****         *  https://www.FreeRTOS.org/a00110.html#configASSERT
 146:..\FreeRTOS\Source/list.c ****         *
 147:..\FreeRTOS\Source/list.c ****         *   1) Stack overflow -
 148:..\FreeRTOS\Source/list.c ****         *      see https://www.FreeRTOS.org/Stacks-and-stack-overflow-checking.html
 149:..\FreeRTOS\Source/list.c ****         *   2) Incorrect interrupt priority assignment, especially on Cortex-M
 150:..\FreeRTOS\Source/list.c ****         *      parts where numerically high priority values denote low actual
 151:..\FreeRTOS\Source/list.c ****         *      interrupt priorities, which can seem counter intuitive.  See
 152:..\FreeRTOS\Source/list.c ****         *      https://www.FreeRTOS.org/RTOS-Cortex-M3-M4.html and the definition
 153:..\FreeRTOS\Source/list.c ****         *      of configMAX_SYSCALL_INTERRUPT_PRIORITY on
 154:..\FreeRTOS\Source/list.c ****         *      https://www.FreeRTOS.org/a00110.html
 155:..\FreeRTOS\Source/list.c ****         *   3) Calling an API function from within a critical section or when
 156:..\FreeRTOS\Source/list.c ****         *      the scheduler is suspended, or calling an API function that does
 157:..\FreeRTOS\Source/list.c ****         *      not end in "FromISR" from an interrupt.
 158:..\FreeRTOS\Source/list.c ****         *   4) Using a queue or semaphore before it has been initialised or
 159:..\FreeRTOS\Source/list.c ****         *      before the scheduler has been started (are interrupts firing
 160:..\FreeRTOS\Source/list.c ****         *      before vTaskStartScheduler() has been called?).
 161:..\FreeRTOS\Source/list.c ****         **********************************************************************/
 162:..\FreeRTOS\Source/list.c **** 
 163:..\FreeRTOS\Source/list.c ****         for( pxIterator = ( ListItem_t * ) &( pxList->xListEnd ); pxIterator->pxNext->xItemValue <=
 211              		.loc 1 163 0
 212 001e 7B68     		ldr	r3, [r7, #4]
 213 0020 0833     		adds	r3, r3, #8
 214 0022 FB60     		str	r3, [r7, #12]
 215 0024 02E0     		b	.L7
 216              	.L8:
 217              		.loc 1 163 0 is_stmt 0 discriminator 3
 218 0026 FB68     		ldr	r3, [r7, #12]
 219 0028 5B68     		ldr	r3, [r3, #4]
 220 002a FB60     		str	r3, [r7, #12]
 221              	.L7:
 222              		.loc 1 163 0 discriminator 1
 223 002c FB68     		ldr	r3, [r7, #12]
 224 002e 5B68     		ldr	r3, [r3, #4]
 225 0030 1A68     		ldr	r2, [r3]
 226 0032 BB68     		ldr	r3, [r7, #8]
 227 0034 9A42     		cmp	r2, r3
 228 0036 F6D9     		bls	.L8
 229              	.L6:
 164:..\FreeRTOS\Source/list.c ****         {
 165:..\FreeRTOS\Source/list.c ****             /* There is nothing to do here, just iterating to the wanted
 166:..\FreeRTOS\Source/list.c ****              * insertion position. */
 167:..\FreeRTOS\Source/list.c ****         }
 168:..\FreeRTOS\Source/list.c ****     }
 169:..\FreeRTOS\Source/list.c **** 
 170:..\FreeRTOS\Source/list.c ****     pxNewListItem->pxNext = pxIterator->pxNext;
ARM GAS  C:\Users\Jason\AppData\Local\Temp\cc2s2zGK.s 			page 8


 230              		.loc 1 170 0 is_stmt 1
 231 0038 FB68     		ldr	r3, [r7, #12]
 232 003a 5A68     		ldr	r2, [r3, #4]
 233 003c 3B68     		ldr	r3, [r7]
 234 003e 5A60     		str	r2, [r3, #4]
 171:..\FreeRTOS\Source/list.c ****     pxNewListItem->pxNext->pxPrevious = pxNewListItem;
 235              		.loc 1 171 0
 236 0040 3B68     		ldr	r3, [r7]
 237 0042 5B68     		ldr	r3, [r3, #4]
 238 0044 3A68     		ldr	r2, [r7]
 239 0046 9A60     		str	r2, [r3, #8]
 172:..\FreeRTOS\Source/list.c ****     pxNewListItem->pxPrevious = pxIterator;
 240              		.loc 1 172 0
 241 0048 3B68     		ldr	r3, [r7]
 242 004a FA68     		ldr	r2, [r7, #12]
 243 004c 9A60     		str	r2, [r3, #8]
 173:..\FreeRTOS\Source/list.c ****     pxIterator->pxNext = pxNewListItem;
 244              		.loc 1 173 0
 245 004e FB68     		ldr	r3, [r7, #12]
 246 0050 3A68     		ldr	r2, [r7]
 247 0052 5A60     		str	r2, [r3, #4]
 174:..\FreeRTOS\Source/list.c **** 
 175:..\FreeRTOS\Source/list.c ****     /* Remember which list the item is in.  This allows fast removal of the
 176:..\FreeRTOS\Source/list.c ****      * item later. */
 177:..\FreeRTOS\Source/list.c ****     pxNewListItem->pxContainer = pxList;
 248              		.loc 1 177 0
 249 0054 3B68     		ldr	r3, [r7]
 250 0056 7A68     		ldr	r2, [r7, #4]
 251 0058 1A61     		str	r2, [r3, #16]
 178:..\FreeRTOS\Source/list.c **** 
 179:..\FreeRTOS\Source/list.c ****     ( pxList->uxNumberOfItems )++;
 252              		.loc 1 179 0
 253 005a 7B68     		ldr	r3, [r7, #4]
 254 005c 1B68     		ldr	r3, [r3]
 255 005e 5A1C     		adds	r2, r3, #1
 256 0060 7B68     		ldr	r3, [r7, #4]
 257 0062 1A60     		str	r2, [r3]
 180:..\FreeRTOS\Source/list.c **** }
 258              		.loc 1 180 0
 259 0064 C046     		nop
 260 0066 BD46     		mov	sp, r7
 261 0068 04B0     		add	sp, sp, #16
 262              		@ sp needed
 263 006a 80BD     		pop	{r7, pc}
 264              		.cfi_endproc
 265              	.LFE3:
 266              		.size	vListInsert, .-vListInsert
 267              		.section	.text.uxListRemove,"ax",%progbits
 268              		.align	2
 269              		.global	uxListRemove
 270              		.code	16
 271              		.thumb_func
 272              		.type	uxListRemove, %function
 273              	uxListRemove:
 274              	.LFB4:
 181:..\FreeRTOS\Source/list.c **** /*-----------------------------------------------------------*/
 182:..\FreeRTOS\Source/list.c **** 
ARM GAS  C:\Users\Jason\AppData\Local\Temp\cc2s2zGK.s 			page 9


 183:..\FreeRTOS\Source/list.c **** UBaseType_t uxListRemove( ListItem_t * const pxItemToRemove )
 184:..\FreeRTOS\Source/list.c **** {
 275              		.loc 1 184 0
 276              		.cfi_startproc
 277              		@ args = 0, pretend = 0, frame = 16
 278              		@ frame_needed = 1, uses_anonymous_args = 0
 279 0000 80B5     		push	{r7, lr}
 280              		.cfi_def_cfa_offset 8
 281              		.cfi_offset 7, -8
 282              		.cfi_offset 14, -4
 283 0002 84B0     		sub	sp, sp, #16
 284              		.cfi_def_cfa_offset 24
 285 0004 00AF     		add	r7, sp, #0
 286              		.cfi_def_cfa_register 7
 287 0006 7860     		str	r0, [r7, #4]
 185:..\FreeRTOS\Source/list.c **** /* The list item knows which list it is in.  Obtain the list from the list
 186:..\FreeRTOS\Source/list.c ****  * item. */
 187:..\FreeRTOS\Source/list.c ****     List_t * const pxList = pxItemToRemove->pxContainer;
 288              		.loc 1 187 0
 289 0008 7B68     		ldr	r3, [r7, #4]
 290 000a 1B69     		ldr	r3, [r3, #16]
 291 000c FB60     		str	r3, [r7, #12]
 188:..\FreeRTOS\Source/list.c **** 
 189:..\FreeRTOS\Source/list.c ****     pxItemToRemove->pxNext->pxPrevious = pxItemToRemove->pxPrevious;
 292              		.loc 1 189 0
 293 000e 7B68     		ldr	r3, [r7, #4]
 294 0010 5B68     		ldr	r3, [r3, #4]
 295 0012 7A68     		ldr	r2, [r7, #4]
 296 0014 9268     		ldr	r2, [r2, #8]
 297 0016 9A60     		str	r2, [r3, #8]
 190:..\FreeRTOS\Source/list.c ****     pxItemToRemove->pxPrevious->pxNext = pxItemToRemove->pxNext;
 298              		.loc 1 190 0
 299 0018 7B68     		ldr	r3, [r7, #4]
 300 001a 9B68     		ldr	r3, [r3, #8]
 301 001c 7A68     		ldr	r2, [r7, #4]
 302 001e 5268     		ldr	r2, [r2, #4]
 303 0020 5A60     		str	r2, [r3, #4]
 191:..\FreeRTOS\Source/list.c **** 
 192:..\FreeRTOS\Source/list.c ****     /* Only used during decision coverage testing. */
 193:..\FreeRTOS\Source/list.c ****     mtCOVERAGE_TEST_DELAY();
 194:..\FreeRTOS\Source/list.c **** 
 195:..\FreeRTOS\Source/list.c ****     /* Make sure the index is left pointing to a valid item. */
 196:..\FreeRTOS\Source/list.c ****     if( pxList->pxIndex == pxItemToRemove )
 304              		.loc 1 196 0
 305 0022 FB68     		ldr	r3, [r7, #12]
 306 0024 5A68     		ldr	r2, [r3, #4]
 307 0026 7B68     		ldr	r3, [r7, #4]
 308 0028 9A42     		cmp	r2, r3
 309 002a 03D1     		bne	.L10
 197:..\FreeRTOS\Source/list.c ****     {
 198:..\FreeRTOS\Source/list.c ****         pxList->pxIndex = pxItemToRemove->pxPrevious;
 310              		.loc 1 198 0
 311 002c 7B68     		ldr	r3, [r7, #4]
 312 002e 9A68     		ldr	r2, [r3, #8]
 313 0030 FB68     		ldr	r3, [r7, #12]
 314 0032 5A60     		str	r2, [r3, #4]
 315              	.L10:
ARM GAS  C:\Users\Jason\AppData\Local\Temp\cc2s2zGK.s 			page 10


 199:..\FreeRTOS\Source/list.c ****     }
 200:..\FreeRTOS\Source/list.c ****     else
 201:..\FreeRTOS\Source/list.c ****     {
 202:..\FreeRTOS\Source/list.c ****         mtCOVERAGE_TEST_MARKER();
 203:..\FreeRTOS\Source/list.c ****     }
 204:..\FreeRTOS\Source/list.c **** 
 205:..\FreeRTOS\Source/list.c ****     pxItemToRemove->pxContainer = NULL;
 316              		.loc 1 205 0
 317 0034 7B68     		ldr	r3, [r7, #4]
 318 0036 0022     		movs	r2, #0
 319 0038 1A61     		str	r2, [r3, #16]
 206:..\FreeRTOS\Source/list.c ****     ( pxList->uxNumberOfItems )--;
 320              		.loc 1 206 0
 321 003a FB68     		ldr	r3, [r7, #12]
 322 003c 1B68     		ldr	r3, [r3]
 323 003e 5A1E     		subs	r2, r3, #1
 324 0040 FB68     		ldr	r3, [r7, #12]
 325 0042 1A60     		str	r2, [r3]
 207:..\FreeRTOS\Source/list.c **** 
 208:..\FreeRTOS\Source/list.c ****     return pxList->uxNumberOfItems;
 326              		.loc 1 208 0
 327 0044 FB68     		ldr	r3, [r7, #12]
 328 0046 1B68     		ldr	r3, [r3]
 209:..\FreeRTOS\Source/list.c **** }
 329              		.loc 1 209 0
 330 0048 1800     		movs	r0, r3
 331 004a BD46     		mov	sp, r7
 332 004c 04B0     		add	sp, sp, #16
 333              		@ sp needed
 334 004e 80BD     		pop	{r7, pc}
 335              		.cfi_endproc
 336              	.LFE4:
 337              		.size	uxListRemove, .-uxListRemove
 338              		.text
 339              	.Letext0:
 340              		.file 2 "d:\\program files (x86)\\cypress\\psoc creator\\4.2\\psoc creator\\import\\gnu\\arm\\5.4.
 341              		.file 3 "d:\\program files (x86)\\cypress\\psoc creator\\4.2\\psoc creator\\import\\gnu\\arm\\5.4.
 342              		.file 4 "..\\FreeRTOS\\Source\\portable\\GCC\\ARM_CM0/portmacro.h"
 343              		.file 5 "..\\FreeRTOS\\Source\\include/list.h"
 344              		.file 6 "./FreeRTOSConfig.h"