ARM GAS  C:\Users\Jason\AppData\Local\Temp\cczqcRNd.s 			page 1


   1              		.syntax unified
   2              		.cpu cortex-m0
   3              		.fpu softvfp
   4              		.eabi_attribute 20, 1
   5              		.eabi_attribute 21, 1
   6              		.eabi_attribute 23, 3
   7              		.eabi_attribute 24, 1
   8              		.eabi_attribute 25, 1
   9              		.eabi_attribute 26, 1
  10              		.eabi_attribute 30, 6
  11              		.eabi_attribute 34, 0
  12              		.eabi_attribute 18, 4
  13              		.thumb
  14              		.syntax unified
  15              		.file	"main.c"
  16              		.text
  17              	.Ltext0:
  18              		.cfi_sections	.debug_frame
  19              		.global	initializeCapSenseBaseline
  20              		.data
  21              		.type	initializeCapSenseBaseline, %object
  22              		.size	initializeCapSenseBaseline, 1
  23              	initializeCapSenseBaseline:
  24 0000 01       		.byte	1
  25              		.section	.text.setupFreeRTOS,"ax",%progbits
  26              		.align	2
  27              		.global	setupFreeRTOS
  28              		.code	16
  29              		.thumb_func
  30              		.type	setupFreeRTOS, %function
  31              	setupFreeRTOS:
  32              	.LFB35:
  33              		.file 1 "main.c"
   1:main.c        **** /******************************************************************************
   2:main.c        **** * Project Name		: PSoC_4_BLE_CapSense_Proximity
   3:main.c        **** * File Name			: main.c
   4:main.c        **** * Version 			: 1.0
   5:main.c        **** * Device Used		: CY8C4247LQI-BL583
   6:main.c        **** * Software Used		: PSoC Creator 4.2
   7:main.c        **** * Compiler    		: ARM GCC 4.8.4, ARM RVDS Generic, ARM MDK Generic
   8:main.c        **** * Related Hardware	: CY8CKIT-042-BLE-A Bluetooth Low Energy Pioneer Kit 
   9:main.c        **** * Owner				: ROIT
  10:main.c        **** *
  11:main.c        **** ********************************************************************************
  12:main.c        **** * Copyright (2014), Cypress Semiconductor Corporation. All Rights Reserved.
  13:main.c        **** ********************************************************************************
  14:main.c        **** * This software is owned by Cypress Semiconductor Corporation (Cypress)
  15:main.c        **** * and is protected by and subject to worldwide patent protection (United
  16:main.c        **** * States and foreign), United States copyright laws and international treaty
  17:main.c        **** * provisions. Cypress hereby grants to licensee a personal, non-exclusive,
  18:main.c        **** * non-transferable license to copy, use, modify, create derivative works of,
  19:main.c        **** * and compile the Cypress Source Code and derivative works for the sole
  20:main.c        **** * purpose of creating custom software in support of licensee product to be
  21:main.c        **** * used only in conjunction with a Cypress integrated circuit as specified in
  22:main.c        **** * the applicable agreement. Any reproduction, modification, translation,
  23:main.c        **** * compilation, or representation of this software except as specified above 
  24:main.c        **** * is prohibited without the express written permission of Cypress.
ARM GAS  C:\Users\Jason\AppData\Local\Temp\cczqcRNd.s 			page 2


  25:main.c        **** *
  26:main.c        **** * Disclaimer: CYPRESS MAKES NO WARRANTY OF ANY KIND, EXPRESS OR IMPLIED, WITH 
  27:main.c        **** * REGARD TO THIS MATERIAL, INCLUDING, BUT NOT LIMITED TO, THE IMPLIED 
  28:main.c        **** * WARRANTIES OF MERCHANTABILITY AND FITNESS FOR A PARTICULAR PURPOSE.
  29:main.c        **** * Cypress reserves the right to make changes without further notice to the 
  30:main.c        **** * materials described herein. Cypress does not assume any liability arising out 
  31:main.c        **** * of the application or use of any product or circuit described herein. Cypress 
  32:main.c        **** * does not authorize its products for use as critical components in life-support 
  33:main.c        **** * systems where a malfunction or failure may reasonably be expected to result in 
  34:main.c        **** * significant injury to the user. The inclusion of Cypress' product in a life-
  35:main.c        **** * support systems application implies that the manufacturer assumes all risk of 
  36:main.c        **** * such use and in doing so indemnifies Cypress against all charges. 
  37:main.c        **** *
  38:main.c        **** * Use of this Software may be limited by and subject to the applicable Cypress
  39:main.c        **** * software license agreement. 
  40:main.c        **** *******************************************************************************/
  41:main.c        **** 
  42:main.c        **** /******************************************************************************
  43:main.c        **** *                           THEORY OF OPERATION
  44:main.c        **** *******************************************************************************
  45:main.c        **** * The project will show case the capability of PSoC 4 BLE to communicate with
  46:main.c        **** * a BLE Central device. The data communicated is the CapSense proximity value,
  47:main.c        **** * sent from PSoC 4 BLE over a custom service. This custom service allows
  48:main.c        **** * notifications to be sent to central device after notifications are enabled.
  49:main.c        **** * This project utilizes CapSense component to detect the change in capacitance
  50:main.c        **** * of the proximity sensor and report this to central device over BLE.
  51:main.c        **** * The BLE central device can be either BLE capable smartphone with associated 
  52:main.c        **** * mobile application or CySmart PC tool.
  53:main.c        **** * This project also inludes low power mode operation, idle for battery operated 
  54:main.c        **** * devices. The project utlizes Deep Sleep feature of both BLESS and CPU to remain 
  55:main.c        **** * in low power mode as much as possible, while maintaining the BLE connection and  
  56:main.c        **** * data transfer. This allows the device to run on coin cell battery for long time.
  57:main.c        **** *
  58:main.c        **** * Note:
  59:main.c        **** * The programming pins have been configured as GPIO, and not SWD. This is because 
  60:main.c        **** * when programming pins are configured for SWD, then the silicon consumes extra
  61:main.c        **** * power through the pins. To prevent the leakage of power, the pins have been set 
  62:main.c        **** * to GPIO. With this setting, the kit can still be acquired by PSoC Creator or
  63:main.c        **** * PSoC Programmer software tools for programming, but the project cannot be 
  64:main.c        **** * externally debugged. To re-enable debugging, go to PSoC_4_BLE_CapSense.cydwr from
  65:main.c        **** * Workspace Explorer, go to Systems tab, and set the Debug Select option to 'SWD'.
  66:main.c        **** * Build and program this project to enable external Debugging.
  67:main.c        **** *
  68:main.c        **** * Refer to BLE Pioneer Kit user guide for details.
  69:main.c        **** *******************************************************************************
  70:main.c        **** * Hardware connection required for testing -
  71:main.c        **** * PROX pin 		- P2[0] (requires an external wire-loop connection to PROX sensor)
  72:main.c        **** * Cmod pin		- P4[0] (hard-wired in the PSoC 4 BLE Module)
  73:main.c        **** * User Button	- P2[7] (hard-wired on BLE Pioneer Kit)
  74:main.c        **** * Status LED	- P3[7] (hard-wired on BLE Pioneer Kit)
  75:main.c        **** ******************************************************************************/
  76:main.c        **** #include <main.h>
  77:main.c        **** #include <FreeRTOS.h>
  78:main.c        **** /*'deviceConnected' flag is used by application to know whether a Central device  
  79:main.c        **** * has been connected. This is updated in BLE event callback */
  80:main.c        **** extern uint8 deviceConnected;
  81:main.c        **** 
ARM GAS  C:\Users\Jason\AppData\Local\Temp\cczqcRNd.s 			page 3


  82:main.c        **** /*'startNotification' flag is set when the central device writes to CCC (Client  
  83:main.c        **** * Characteristic Configuration) of the CapSense proximity characteristic to 
  84:main.c        **** * enable notifications */
  85:main.c        **** extern uint8 startNotification;	
  86:main.c        **** 
  87:main.c        **** /* 'restartAdvertisement' flag is used to restart advertisement */
  88:main.c        **** extern uint8 restartAdvertisement;
  89:main.c        **** 
  90:main.c        **** /* 'initializeCapSenseBaseline' flag is used to call the function once that initializes 
  91:main.c        **** * all CapSense baseline. The baseline is initialized when the first advertisement 
  92:main.c        **** * is started. This is done so that any external disturbance while powering the kit does 
  93:main.c        **** * not infliuence the baseline value, that may cause wrong readings. */
  94:main.c        **** uint8 initializeCapSenseBaseline = TRUE;
  95:main.c        **** 
  96:main.c        **** /*FreeRTOS Functions*/
  97:main.c        **** extern void xPortPendSVHandler(void);
  98:main.c        **** extern void xPortSysTickHandler(void);
  99:main.c        **** extern void vPortSVCHandler(void);
 100:main.c        **** #define CORTEX_INTERRUPT_BASE          (16)
 101:main.c        **** void setupFreeRTOS()
 102:main.c        **** {
  34              		.loc 1 102 0
  35              		.cfi_startproc
  36              		@ args = 0, pretend = 0, frame = 0
  37              		@ frame_needed = 1, uses_anonymous_args = 0
  38 0000 80B5     		push	{r7, lr}
  39              		.cfi_def_cfa_offset 8
  40              		.cfi_offset 7, -8
  41              		.cfi_offset 14, -4
  42 0002 00AF     		add	r7, sp, #0
  43              		.cfi_def_cfa_register 7
 103:main.c        ****     /* Handler for Cortex Supervisor Call (SVC, formerly SWI) - address 11 */
 104:main.c        ****     CyIntSetSysVector(CORTEX_INTERRUPT_BASE + SVCall_IRQn,(cyisraddress)vPortSVCHandler );
  44              		.loc 1 104 0
  45 0004 084B     		ldr	r3, .L2
  46 0006 1900     		movs	r1, r3
  47 0008 0B20     		movs	r0, #11
  48 000a FFF7FEFF 		bl	CyIntSetSysVector
 105:main.c        ****  
 106:main.c        ****     /* Handler for Cortex PendSV Call - address 14 */
 107:main.c        **** 	CyIntSetSysVector(CORTEX_INTERRUPT_BASE + PendSV_IRQn,(cyisraddress)xPortPendSVHandler );    
  49              		.loc 1 107 0
  50 000e 074B     		ldr	r3, .L2+4
  51 0010 1900     		movs	r1, r3
  52 0012 0E20     		movs	r0, #14
  53 0014 FFF7FEFF 		bl	CyIntSetSysVector
 108:main.c        ****  
 109:main.c        ****     /* Handler for Cortex SYSTICK - address 15 */
 110:main.c        **** 	CyIntSetSysVector(CORTEX_INTERRUPT_BASE + SysTick_IRQn,(cyisraddress)xPortSysTickHandler );
  54              		.loc 1 110 0
  55 0018 054B     		ldr	r3, .L2+8
  56 001a 1900     		movs	r1, r3
  57 001c 0F20     		movs	r0, #15
  58 001e FFF7FEFF 		bl	CyIntSetSysVector
 111:main.c        **** }
  59              		.loc 1 111 0
  60 0022 C046     		nop
ARM GAS  C:\Users\Jason\AppData\Local\Temp\cczqcRNd.s 			page 4


  61 0024 BD46     		mov	sp, r7
  62              		@ sp needed
  63 0026 80BD     		pop	{r7, pc}
  64              	.L3:
  65              		.align	2
  66              	.L2:
  67 0028 00000000 		.word	vPortSVCHandler
  68 002c 00000000 		.word	xPortPendSVHandler
  69 0030 00000000 		.word	xPortSysTickHandler
  70              		.cfi_endproc
  71              	.LFE35:
  72              		.size	setupFreeRTOS, .-setupFreeRTOS
  73              		.section	.rodata
  74              		.align	2
  75              	.LC3:
  76 0000 50726F78 		.ascii	"Proximity Sensor\000"
  76      696D6974 
  76      79205365 
  76      6E736F72 
  76      00
  77              		.section	.text.main,"ax",%progbits
  78              		.align	2
  79              		.global	main
  80              		.code	16
  81              		.thumb_func
  82              		.type	main, %function
  83              	main:
  84              	.LFB36:
 112:main.c        **** 
 113:main.c        **** /*******************************************************************************
 114:main.c        **** * Function Name: main
 115:main.c        **** ********************************************************************************
 116:main.c        **** * Summary:
 117:main.c        **** *        System entrance point. This calls the BLE routine functions as well as
 118:main.c        **** * function for handling CapSense Proximity changes
 119:main.c        **** *
 120:main.c        **** * Parameters:
 121:main.c        **** *  void
 122:main.c        **** *
 123:main.c        **** * Return:
 124:main.c        **** *  int
 125:main.c        **** *
 126:main.c        **** 
 127:main.c        **** *******************************************************************************/
 128:main.c        **** int main()
 129:main.c        **** {
  85              		.loc 1 129 0
  86              		.cfi_startproc
  87              		@ args = 0, pretend = 0, frame = 0
  88              		@ frame_needed = 1, uses_anonymous_args = 0
  89 0000 80B5     		push	{r7, lr}
  90              		.cfi_def_cfa_offset 8
  91              		.cfi_offset 7, -8
  92              		.cfi_offset 14, -4
  93 0002 82B0     		sub	sp, sp, #8
  94              		.cfi_def_cfa_offset 16
  95 0004 02AF     		add	r7, sp, #8
ARM GAS  C:\Users\Jason\AppData\Local\Temp\cczqcRNd.s 			page 5


  96              		.cfi_def_cfa 7, 8
 130:main.c        ****     /* This function will initialize the system resources such as BLE and CapSense */
 131:main.c        **** 	InitializeSystem();
  97              		.loc 1 131 0
  98 0006 FFF7FEFF 		bl	InitializeSystem
 132:main.c        **** 	
 133:main.c        **** 	setupFreeRTOS();
  99              		.loc 1 133 0
 100 000a FFF7FEFF 		bl	setupFreeRTOS
 134:main.c        **** 	
 135:main.c        ****     xTaskCreate("Proximity Sensor",200,0,1,0);
 101              		.loc 1 135 0
 102 000e 0748     		ldr	r0, .L6
 103 0010 0023     		movs	r3, #0
 104 0012 0093     		str	r3, [sp]
 105 0014 0123     		movs	r3, #1
 106 0016 0022     		movs	r2, #0
 107 0018 C821     		movs	r1, #200
 108 001a FFF7FEFF 		bl	xTaskCreate
 136:main.c        **** 	
 137:main.c        **** 	vTaskStartScheduler();
 109              		.loc 1 137 0
 110 001e FFF7FEFF 		bl	vTaskStartScheduler
 111 0022 0023     		movs	r3, #0
 138:main.c        **** }
 112              		.loc 1 138 0
 113 0024 1800     		movs	r0, r3
 114 0026 BD46     		mov	sp, r7
 115              		@ sp needed
 116 0028 80BD     		pop	{r7, pc}
 117              	.L7:
 118 002a C046     		.align	2
 119              	.L6:
 120 002c 00000000 		.word	.LC3
 121              		.cfi_endproc
 122              	.LFE36:
 123              		.size	main, .-main
 124              		.section	.text.InitializeSystem,"ax",%progbits
 125              		.align	2
 126              		.global	InitializeSystem
 127              		.code	16
 128              		.thumb_func
 129              		.type	InitializeSystem, %function
 130              	InitializeSystem:
 131              	.LFB37:
 139:main.c        **** 
 140:main.c        **** /*******************************************************************************
 141:main.c        **** * Function Name: InitializeSystem
 142:main.c        **** ********************************************************************************
 143:main.c        **** * Summary:
 144:main.c        **** *        Starts the components and initializes CapSense baselines
 145:main.c        **** *
 146:main.c        **** * Parameters:
 147:main.c        **** *  void
 148:main.c        **** *
 149:main.c        **** * Return:
 150:main.c        **** *  void
ARM GAS  C:\Users\Jason\AppData\Local\Temp\cczqcRNd.s 			page 6


 151:main.c        **** *
 152:main.c        **** 
 153:main.c        **** *******************************************************************************/
 154:main.c        **** void InitializeSystem(void)
 155:main.c        **** {
 132              		.loc 1 155 0
 133              		.cfi_startproc
 134              		@ args = 0, pretend = 0, frame = 0
 135              		@ frame_needed = 1, uses_anonymous_args = 0
 136 0000 80B5     		push	{r7, lr}
 137              		.cfi_def_cfa_offset 8
 138              		.cfi_offset 7, -8
 139              		.cfi_offset 14, -4
 140 0002 00AF     		add	r7, sp, #0
 141              		.cfi_def_cfa_register 7
 156:main.c        **** 	/* Enable global interrupt mask */
 157:main.c        **** 	CyGlobalIntEnable;
 142              		.loc 1 157 0
 143              		.syntax divided
 144              	@ 157 "main.c" 1
 145 0004 62B6     		CPSIE   i
 146              	@ 0 "" 2
 158:main.c        **** 
 159:main.c        **** 	/* Start BLE component and register the CustomEventHandler function. This 
 160:main.c        **** 	* function exposes the events from BLE component for application use */
 161:main.c        **** 	CyBle_Start(CustomEventHandler);					
 147              		.loc 1 161 0
 148              		.thumb
 149              		.syntax unified
 150 0006 074B     		ldr	r3, .L9
 151 0008 1800     		movs	r0, r3
 152 000a FFF7FEFF 		bl	CyBle_Start
 162:main.c        **** 	
 163:main.c        **** 	/* Set drive mode of the status LED pin to Strong*/
 164:main.c        **** 	Status_LED_SetDriveMode(Status_LED_DM_STRONG);	
 153              		.loc 1 164 0
 154 000e 0620     		movs	r0, #6
 155 0010 FFF7FEFF 		bl	Status_LED_SetDriveMode
 165:main.c        **** 	
 166:main.c        **** 	#ifdef CAPSENSE_ENABLED
 167:main.c        **** 	/* Enable the proximity widget explicitly and start CapSense component. 
 168:main.c        **** 	* Initialization of the baseline is done when the first connection 
 169:main.c        **** 	* happens  */
 170:main.c        **** 	CapSense_EnableWidget(CapSense_PROXIMITYSENSOR0__PROX);
 156              		.loc 1 170 0
 157 0014 0020     		movs	r0, #0
 158 0016 FFF7FEFF 		bl	CapSense_EnableWidget
 171:main.c        **** 	CapSense_Start();
 159              		.loc 1 171 0
 160 001a FFF7FEFF 		bl	CapSense_Start
 172:main.c        **** 	#endif
 173:main.c        **** 		
 174:main.c        **** }
 161              		.loc 1 174 0
 162 001e C046     		nop
 163 0020 BD46     		mov	sp, r7
 164              		@ sp needed
ARM GAS  C:\Users\Jason\AppData\Local\Temp\cczqcRNd.s 			page 7


 165 0022 80BD     		pop	{r7, pc}
 166              	.L10:
 167              		.align	2
 168              	.L9:
 169 0024 00000000 		.word	CustomEventHandler
 170              		.cfi_endproc
 171              	.LFE37:
 172              		.size	InitializeSystem, .-InitializeSystem
 173              		.section	.text.HandleCapSenseProximity,"ax",%progbits
 174              		.align	2
 175              		.global	HandleCapSenseProximity
 176              		.code	16
 177              		.thumb_func
 178              		.type	HandleCapSenseProximity, %function
 179              	HandleCapSenseProximity:
 180              	.LFB38:
 175:main.c        **** 
 176:main.c        **** /*******************************************************************************
 177:main.c        **** * Function Name: HandleCapSenseProximity
 178:main.c        **** ********************************************************************************
 179:main.c        **** * Summary:
 180:main.c        **** *       Read the proximity data from the sensor and update the BLE
 181:main.c        **** *		custom notification value.
 182:main.c        **** *
 183:main.c        **** * Parameters:
 184:main.c        **** *  void
 185:main.c        **** *
 186:main.c        **** * Return:
 187:main.c        **** *  void
 188:main.c        **** *
 189:main.c        **** *******************************************************************************/
 190:main.c        **** void HandleCapSenseProximity(void)
 191:main.c        **** {
 181              		.loc 1 191 0
 182              		.cfi_startproc
 183              		@ args = 0, pretend = 0, frame = 8
 184              		@ frame_needed = 1, uses_anonymous_args = 0
 185 0000 90B5     		push	{r4, r7, lr}
 186              		.cfi_def_cfa_offset 12
 187              		.cfi_offset 4, -12
 188              		.cfi_offset 7, -8
 189              		.cfi_offset 14, -4
 190 0002 83B0     		sub	sp, sp, #12
 191              		.cfi_def_cfa_offset 24
 192 0004 00AF     		add	r7, sp, #0
 193              		.cfi_def_cfa_register 7
 192:main.c        **** 	#ifdef CAPSENSE_ENABLED
 193:main.c        **** 	/* Static variable used as counter for reading the new proximity value */
 194:main.c        **** 	static uint16 proxCounter = TRUE;			
 195:main.c        **** 				
 196:main.c        **** 	/* 'proximityValue' stores the proximity value read from CapSense component */
 197:main.c        **** 	uint8 proximityValue;	
 198:main.c        **** 		
 199:main.c        **** 	/* Check if proxCounter has reached its counting value */
 200:main.c        **** 	if(FALSE == (--proxCounter))			
 194              		.loc 1 200 0
 195 0006 134B     		ldr	r3, .L15
ARM GAS  C:\Users\Jason\AppData\Local\Temp\cczqcRNd.s 			page 8


 196 0008 1B88     		ldrh	r3, [r3]
 197 000a 013B     		subs	r3, r3, #1
 198 000c 9AB2     		uxth	r2, r3
 199 000e 114B     		ldr	r3, .L15
 200 0010 1A80     		strh	r2, [r3]
 201 0012 104B     		ldr	r3, .L15
 202 0014 1B88     		ldrh	r3, [r3]
 203 0016 002B     		cmp	r3, #0
 204 0018 17D1     		bne	.L14
 201:main.c        **** 	{
 202:main.c        **** 		/* Set 'proxCounter' to the PROX_COUNTER_VALUE. This counter prevents sending 
 203:main.c        **** 		   of large number of CapSense proximity data to BLE Central device */
 204:main.c        **** 		proxCounter = PROX_COUNTER_VALUE;
 205              		.loc 1 204 0
 206 001a 0E4B     		ldr	r3, .L15
 207 001c 0522     		movs	r2, #5
 208 001e 1A80     		strh	r2, [r3]
 205:main.c        **** 
 206:main.c        **** 		/* Scan the Proximity Widget */
 207:main.c        **** 		CapSense_ScanWidget(CapSense_PROXIMITYSENSOR0__PROX);				
 209              		.loc 1 207 0
 210 0020 0020     		movs	r0, #0
 211 0022 FFF7FEFF 		bl	CapSense_ScanWidget
 208:main.c        **** 		
 209:main.c        **** 		/* Wait for CapSense scanning to be complete. This could take about 5 ms */
 210:main.c        **** 		while(CapSense_IsBusy())
 212              		.loc 1 210 0
 213 0026 C046     		nop
 214              	.L13:
 215              		.loc 1 210 0 is_stmt 0 discriminator 1
 216 0028 FFF7FEFF 		bl	CapSense_IsBusy
 217 002c 031E     		subs	r3, r0, #0
 218 002e FBD1     		bne	.L13
 211:main.c        **** 		{
 212:main.c        **** 		}
 213:main.c        **** 		
 214:main.c        **** 		/* Update CapSense Baseline */
 215:main.c        **** 		CapSense_UpdateEnabledBaselines();			
 219              		.loc 1 215 0 is_stmt 1
 220 0030 FFF7FEFF 		bl	CapSense_UpdateEnabledBaselines
 216:main.c        **** 
 217:main.c        **** 		/* Get the Diffcount between proximity raw data and baseline */
 218:main.c        **** 		proximityValue = CapSense_GetDiffCountData(CapSense_PROXIMITYSENSOR0__PROX);
 221              		.loc 1 218 0
 222 0034 FC1D     		adds	r4, r7, #7
 223 0036 0020     		movs	r0, #0
 224 0038 FFF7FEFF 		bl	CapSense_GetDiffCountData
 225 003c 0300     		movs	r3, r0
 226 003e 2370     		strb	r3, [r4]
 219:main.c        **** 		
 220:main.c        **** 		/* Send the proximity data to BLE central device by notifications*/
 221:main.c        **** 		SendDataOverCapSenseNotification(proximityValue);
 227              		.loc 1 221 0
 228 0040 FB1D     		adds	r3, r7, #7
 229 0042 1B78     		ldrb	r3, [r3]
 230 0044 1800     		movs	r0, r3
 231 0046 FFF7FEFF 		bl	SendDataOverCapSenseNotification
ARM GAS  C:\Users\Jason\AppData\Local\Temp\cczqcRNd.s 			page 9


 232              	.L14:
 222:main.c        **** 			
 223:main.c        **** 	}
 224:main.c        **** 	#endif
 225:main.c        **** }
 233              		.loc 1 225 0
 234 004a C046     		nop
 235 004c BD46     		mov	sp, r7
 236 004e 03B0     		add	sp, sp, #12
 237              		@ sp needed
 238 0050 90BD     		pop	{r4, r7, pc}
 239              	.L16:
 240 0052 C046     		.align	2
 241              	.L15:
 242 0054 02000000 		.word	proxCounter.7717
 243              		.cfi_endproc
 244              	.LFE38:
 245              		.size	HandleCapSenseProximity, .-HandleCapSenseProximity
 246              		.section	.text.Proximity_Task,"ax",%progbits
 247              		.align	2
 248              		.global	Proximity_Task
 249              		.code	16
 250              		.thumb_func
 251              		.type	Proximity_Task, %function
 252              	Proximity_Task:
 253              	.LFB39:
 226:main.c        **** 
 227:main.c        **** void Proximity_Task(void *arg)
 228:main.c        **** {
 254              		.loc 1 228 0
 255              		.cfi_startproc
 256              		@ args = 0, pretend = 0, frame = 8
 257              		@ frame_needed = 1, uses_anonymous_args = 0
 258 0000 80B5     		push	{r7, lr}
 259              		.cfi_def_cfa_offset 8
 260              		.cfi_offset 7, -8
 261              		.cfi_offset 14, -4
 262 0002 82B0     		sub	sp, sp, #8
 263              		.cfi_def_cfa_offset 16
 264 0004 00AF     		add	r7, sp, #0
 265              		.cfi_def_cfa_register 7
 266 0006 7860     		str	r0, [r7, #4]
 267              	.L21:
 229:main.c        ****     (void)arg;
 230:main.c        ****  
 231:main.c        **** 	for(;;)
 232:main.c        ****     {
 233:main.c        **** 		/*Process Event callback to handle BLE events. The events generated and 
 234:main.c        **** 		* used for this application are inside the 'CustomEventHandler' routine*/
 235:main.c        **** 		CyBle_ProcessEvents();
 268              		.loc 1 235 0
 269 0008 FFF7FEFF 		bl	CyBle_ProcessEvents
 236:main.c        **** 		
 237:main.c        **** 		/* Function to handle LED status depending on BLE state */
 238:main.c        **** 		HandleStatusLED();
 270              		.loc 1 238 0
 271 000c FFF7FEFF 		bl	HandleStatusLED
ARM GAS  C:\Users\Jason\AppData\Local\Temp\cczqcRNd.s 			page 10


 239:main.c        **** 		
 240:main.c        **** 		/* Handle proximity data and CCCD value update only if BLE device is connected */
 241:main.c        **** 		if(TRUE == deviceConnected) 
 272              		.loc 1 241 0
 273 0010 104B     		ldr	r3, .L22
 274 0012 1B78     		ldrb	r3, [r3]
 275 0014 012B     		cmp	r3, #1
 276 0016 12D1     		bne	.L18
 242:main.c        **** 		{	
 243:main.c        **** 			/* When the Client Characteristic Configuration descriptor (CCCD) is written
 244:main.c        **** 			* by Central device for enabling/disabling notifications, then the same
 245:main.c        **** 			* descriptor value has to be explicitly updated in application so that
 246:main.c        **** 			* it reflects the correct value when the descriptor is read */
 247:main.c        **** 			UpdateNotificationCCCD();
 277              		.loc 1 247 0
 278 0018 FFF7FEFF 		bl	UpdateNotificationCCCD
 248:main.c        **** 			
 249:main.c        **** 			/* If CapSense Initialize Baseline API has not been called yet, call the
 250:main.c        **** 			* API and reset the flag. */
 251:main.c        **** 			if(initializeCapSenseBaseline)
 279              		.loc 1 251 0
 280 001c 0E4B     		ldr	r3, .L22+4
 281 001e 1B78     		ldrb	r3, [r3]
 282 0020 002B     		cmp	r3, #0
 283 0022 04D0     		beq	.L19
 252:main.c        **** 			{
 253:main.c        **** 				/* Reset 'initializeCapSenseBaseline' flag*/
 254:main.c        **** 				initializeCapSenseBaseline = FALSE;
 284              		.loc 1 254 0
 285 0024 0C4B     		ldr	r3, .L22+4
 286 0026 0022     		movs	r2, #0
 287 0028 1A70     		strb	r2, [r3]
 255:main.c        **** 				
 256:main.c        **** 				/* Initialize all CapSense Baseline */
 257:main.c        **** 				CapSense_InitializeAllBaselines();
 288              		.loc 1 257 0
 289 002a FFF7FEFF 		bl	CapSense_InitializeAllBaselines
 290              	.L19:
 258:main.c        **** 			}
 259:main.c        **** 			
 260:main.c        **** 			/* Send proximity data when notifications are enabled */
 261:main.c        **** 			if(startNotification & CCCD_NTF_BIT_MASK)
 291              		.loc 1 261 0
 292 002e 0B4B     		ldr	r3, .L22+8
 293 0030 1B78     		ldrb	r3, [r3]
 294 0032 1A00     		movs	r2, r3
 295 0034 0123     		movs	r3, #1
 296 0036 1340     		ands	r3, r2
 297 0038 01D0     		beq	.L18
 262:main.c        **** 			{
 263:main.c        **** 				/*Check for CapSense proximity change and report to BLE central device*/
 264:main.c        **** 				HandleCapSenseProximity();
 298              		.loc 1 264 0
 299 003a FFF7FEFF 		bl	HandleCapSenseProximity
 300              	.L18:
 265:main.c        **** 			}
 266:main.c        **** 		}
ARM GAS  C:\Users\Jason\AppData\Local\Temp\cczqcRNd.s 			page 11


 267:main.c        **** 
 268:main.c        **** 		if(restartAdvertisement)
 301              		.loc 1 268 0
 302 003e 084B     		ldr	r3, .L22+12
 303 0040 1B78     		ldrb	r3, [r3]
 304 0042 002B     		cmp	r3, #0
 305 0044 E0D0     		beq	.L21
 269:main.c        **** 		{
 270:main.c        **** 			/* Reset 'restartAdvertisement' flag*/
 271:main.c        **** 			restartAdvertisement = FALSE;
 306              		.loc 1 271 0
 307 0046 064B     		ldr	r3, .L22+12
 308 0048 0022     		movs	r2, #0
 309 004a 1A70     		strb	r2, [r3]
 272:main.c        **** 			
 273:main.c        **** 			/* Start Advertisement and enter Discoverable mode*/
 274:main.c        **** 			CyBle_GappStartAdvertisement(CYBLE_ADVERTISING_FAST);	
 310              		.loc 1 274 0
 311 004c 0020     		movs	r0, #0
 312 004e FFF7FEFF 		bl	CyBle_GappStartAdvertisement
 275:main.c        **** 		}
 276:main.c        ****     }	/* This is end of for(;;) */
 313              		.loc 1 276 0
 314 0052 D9E7     		b	.L21
 315              	.L23:
 316              		.align	2
 317              	.L22:
 318 0054 00000000 		.word	deviceConnected
 319 0058 00000000 		.word	initializeCapSenseBaseline
 320 005c 00000000 		.word	startNotification
 321 0060 00000000 		.word	restartAdvertisement
 322              		.cfi_endproc
 323              	.LFE39:
 324              		.size	Proximity_Task, .-Proximity_Task
 325              		.data
 326 0001 00       		.align	1
 327              		.type	proxCounter.7717, %object
 328              		.size	proxCounter.7717, 2
 329              	proxCounter.7717:
 330 0002 0100     		.short	1
 331              		.text
 332              	.Letext0:
 333              		.file 2 "Generated_Source\\PSoC4/cytypes.h"
 334              		.file 3 "Generated_Source\\PSoC4/BLE_Stack.h"
 335              		.file 4 "Generated_Source\\PSoC4/core_cm0_psoc4.h"