ARM GAS  C:\Users\Jason\AppData\Local\Temp\ccMsFGiZ.s 			page 1


   1              		.syntax unified
   2              		.cpu cortex-m0
   3              		.fpu softvfp
   4              		.eabi_attribute 20, 1
   5              		.eabi_attribute 21, 1
   6              		.eabi_attribute 23, 3
   7              		.eabi_attribute 24, 1
   8              		.eabi_attribute 25, 1
   9              		.eabi_attribute 26, 1
  10              		.eabi_attribute 30, 6
  11              		.eabi_attribute 34, 0
  12              		.eabi_attribute 18, 4
  13              		.thumb
  14              		.syntax unified
  15              		.file	"queue.c"
  16              		.text
  17              	.Ltext0:
  18              		.cfi_sections	.debug_frame
  19              		.comm	x,2,2
  20              		.comm	xQueueRegistry,80,4
  21              		.section	.text.xQueueGenericReset,"ax",%progbits
  22              		.align	2
  23              		.global	xQueueGenericReset
  24              		.code	16
  25              		.thumb_func
  26              		.type	xQueueGenericReset, %function
  27              	xQueueGenericReset:
  28              	.LFB0:
  29              		.file 1 "..\\FreeRTOS\\Source\\queue.c"
   1:..\FreeRTOS\Source/queue.c **** /*
   2:..\FreeRTOS\Source/queue.c ****  * FreeRTOS Kernel V10.4.3
   3:..\FreeRTOS\Source/queue.c ****  * Copyright (C) 2020 Amazon.com, Inc. or its affiliates.  All Rights Reserved.
   4:..\FreeRTOS\Source/queue.c ****  *
   5:..\FreeRTOS\Source/queue.c ****  * Permission is hereby granted, free of charge, to any person obtaining a copy of
   6:..\FreeRTOS\Source/queue.c ****  * this software and associated documentation files (the "Software"), to deal in
   7:..\FreeRTOS\Source/queue.c ****  * the Software without restriction, including without limitation the rights to
   8:..\FreeRTOS\Source/queue.c ****  * use, copy, modify, merge, publish, distribute, sublicense, and/or sell copies of
   9:..\FreeRTOS\Source/queue.c ****  * the Software, and to permit persons to whom the Software is furnished to do so,
  10:..\FreeRTOS\Source/queue.c ****  * subject to the following conditions:
  11:..\FreeRTOS\Source/queue.c ****  *
  12:..\FreeRTOS\Source/queue.c ****  * The above copyright notice and this permission notice shall be included in all
  13:..\FreeRTOS\Source/queue.c ****  * copies or substantial portions of the Software.
  14:..\FreeRTOS\Source/queue.c ****  *
  15:..\FreeRTOS\Source/queue.c ****  * THE SOFTWARE IS PROVIDED "AS IS", WITHOUT WARRANTY OF ANY KIND, EXPRESS OR
  16:..\FreeRTOS\Source/queue.c ****  * IMPLIED, INCLUDING BUT NOT LIMITED TO THE WARRANTIES OF MERCHANTABILITY, FITNESS
  17:..\FreeRTOS\Source/queue.c ****  * FOR A PARTICULAR PURPOSE AND NONINFRINGEMENT. IN NO EVENT SHALL THE AUTHORS OR
  18:..\FreeRTOS\Source/queue.c ****  * COPYRIGHT HOLDERS BE LIABLE FOR ANY CLAIM, DAMAGES OR OTHER LIABILITY, WHETHER
  19:..\FreeRTOS\Source/queue.c ****  * IN AN ACTION OF CONTRACT, TORT OR OTHERWISE, ARISING FROM, OUT OF OR IN
  20:..\FreeRTOS\Source/queue.c ****  * CONNECTION WITH THE SOFTWARE OR THE USE OR OTHER DEALINGS IN THE SOFTWARE.
  21:..\FreeRTOS\Source/queue.c ****  *
  22:..\FreeRTOS\Source/queue.c ****  * https://www.FreeRTOS.org
  23:..\FreeRTOS\Source/queue.c ****  * https://github.com/FreeRTOS
  24:..\FreeRTOS\Source/queue.c ****  *
  25:..\FreeRTOS\Source/queue.c ****  */
  26:..\FreeRTOS\Source/queue.c **** 
  27:..\FreeRTOS\Source/queue.c **** #include <stdlib.h>
  28:..\FreeRTOS\Source/queue.c **** #include <string.h>
ARM GAS  C:\Users\Jason\AppData\Local\Temp\ccMsFGiZ.s 			page 2


  29:..\FreeRTOS\Source/queue.c **** 
  30:..\FreeRTOS\Source/queue.c **** /* Defining MPU_WRAPPERS_INCLUDED_FROM_API_FILE prevents task.h from redefining
  31:..\FreeRTOS\Source/queue.c ****  * all the API functions to use the MPU wrappers.  That should only be done when
  32:..\FreeRTOS\Source/queue.c ****  * task.h is included from an application file. */
  33:..\FreeRTOS\Source/queue.c **** #define MPU_WRAPPERS_INCLUDED_FROM_API_FILE
  34:..\FreeRTOS\Source/queue.c **** 
  35:..\FreeRTOS\Source/queue.c **** #include "FreeRTOS.h"
  36:..\FreeRTOS\Source/queue.c **** #include "task.h"
  37:..\FreeRTOS\Source/queue.c **** #include "queue.h"
  38:..\FreeRTOS\Source/queue.c **** 
  39:..\FreeRTOS\Source/queue.c **** #if ( configUSE_CO_ROUTINES == 1 )
  40:..\FreeRTOS\Source/queue.c ****     #include "croutine.h"
  41:..\FreeRTOS\Source/queue.c **** #endif
  42:..\FreeRTOS\Source/queue.c **** 
  43:..\FreeRTOS\Source/queue.c **** /* Lint e9021, e961 and e750 are suppressed as a MISRA exception justified
  44:..\FreeRTOS\Source/queue.c ****  * because the MPU ports require MPU_WRAPPERS_INCLUDED_FROM_API_FILE to be defined
  45:..\FreeRTOS\Source/queue.c ****  * for the header files above, but not in this file, in order to generate the
  46:..\FreeRTOS\Source/queue.c ****  * correct privileged Vs unprivileged linkage and placement. */
  47:..\FreeRTOS\Source/queue.c **** #undef MPU_WRAPPERS_INCLUDED_FROM_API_FILE /*lint !e961 !e750 !e9021. */
  48:..\FreeRTOS\Source/queue.c **** 
  49:..\FreeRTOS\Source/queue.c **** 
  50:..\FreeRTOS\Source/queue.c **** /* Constants used with the cRxLock and cTxLock structure members. */
  51:..\FreeRTOS\Source/queue.c **** #define queueUNLOCKED             ( ( int8_t ) -1 )
  52:..\FreeRTOS\Source/queue.c **** #define queueLOCKED_UNMODIFIED    ( ( int8_t ) 0 )
  53:..\FreeRTOS\Source/queue.c **** #define queueINT8_MAX             ( ( int8_t ) 127 )
  54:..\FreeRTOS\Source/queue.c **** 
  55:..\FreeRTOS\Source/queue.c **** /* When the Queue_t structure is used to represent a base queue its pcHead and
  56:..\FreeRTOS\Source/queue.c ****  * pcTail members are used as pointers into the queue storage area.  When the
  57:..\FreeRTOS\Source/queue.c ****  * Queue_t structure is used to represent a mutex pcHead and pcTail pointers are
  58:..\FreeRTOS\Source/queue.c ****  * not necessary, and the pcHead pointer is set to NULL to indicate that the
  59:..\FreeRTOS\Source/queue.c ****  * structure instead holds a pointer to the mutex holder (if any).  Map alternative
  60:..\FreeRTOS\Source/queue.c ****  * names to the pcHead and structure member to ensure the readability of the code
  61:..\FreeRTOS\Source/queue.c ****  * is maintained.  The QueuePointers_t and SemaphoreData_t types are used to form
  62:..\FreeRTOS\Source/queue.c ****  * a union as their usage is mutually exclusive dependent on what the queue is
  63:..\FreeRTOS\Source/queue.c ****  * being used for. */
  64:..\FreeRTOS\Source/queue.c **** #define uxQueueType               pcHead
  65:..\FreeRTOS\Source/queue.c **** #define queueQUEUE_IS_MUTEX       NULL
  66:..\FreeRTOS\Source/queue.c **** 
  67:..\FreeRTOS\Source/queue.c **** typedef struct QueuePointers
  68:..\FreeRTOS\Source/queue.c **** {
  69:..\FreeRTOS\Source/queue.c ****     int8_t * pcTail;     /*< Points to the byte at the end of the queue storage area.  Once more by
  70:..\FreeRTOS\Source/queue.c ****     int8_t * pcReadFrom; /*< Points to the last place that a queued item was read from when the str
  71:..\FreeRTOS\Source/queue.c **** } QueuePointers_t;
  72:..\FreeRTOS\Source/queue.c **** 
  73:..\FreeRTOS\Source/queue.c **** typedef struct SemaphoreData
  74:..\FreeRTOS\Source/queue.c **** {
  75:..\FreeRTOS\Source/queue.c ****     TaskHandle_t xMutexHolder;        /*< The handle of the task that holds the mutex. */
  76:..\FreeRTOS\Source/queue.c ****     UBaseType_t uxRecursiveCallCount; /*< Maintains a count of the number of times a recursive mute
  77:..\FreeRTOS\Source/queue.c **** } SemaphoreData_t;
  78:..\FreeRTOS\Source/queue.c **** 
  79:..\FreeRTOS\Source/queue.c **** /* Semaphores do not actually store or copy data, so have an item size of
  80:..\FreeRTOS\Source/queue.c ****  * zero. */
  81:..\FreeRTOS\Source/queue.c **** #define queueSEMAPHORE_QUEUE_ITEM_LENGTH    ( ( UBaseType_t ) 0 )
  82:..\FreeRTOS\Source/queue.c **** #define queueMUTEX_GIVE_BLOCK_TIME          ( ( TickType_t ) 0U )
  83:..\FreeRTOS\Source/queue.c **** 
  84:..\FreeRTOS\Source/queue.c **** #if ( configUSE_PREEMPTION == 0 )
  85:..\FreeRTOS\Source/queue.c **** 
ARM GAS  C:\Users\Jason\AppData\Local\Temp\ccMsFGiZ.s 			page 3


  86:..\FreeRTOS\Source/queue.c **** /* If the cooperative scheduler is being used then a yield should not be
  87:..\FreeRTOS\Source/queue.c ****  * performed just because a higher priority task has been woken. */
  88:..\FreeRTOS\Source/queue.c ****     #define queueYIELD_IF_USING_PREEMPTION()
  89:..\FreeRTOS\Source/queue.c **** #else
  90:..\FreeRTOS\Source/queue.c ****     #define queueYIELD_IF_USING_PREEMPTION()    portYIELD_WITHIN_API()
  91:..\FreeRTOS\Source/queue.c **** #endif
  92:..\FreeRTOS\Source/queue.c **** 
  93:..\FreeRTOS\Source/queue.c **** /*
  94:..\FreeRTOS\Source/queue.c ****  * Definition of the queue used by the scheduler.
  95:..\FreeRTOS\Source/queue.c ****  * Items are queued by copy, not reference.  See the following link for the
  96:..\FreeRTOS\Source/queue.c ****  * rationale: https://www.FreeRTOS.org/Embedded-RTOS-Queues.html
  97:..\FreeRTOS\Source/queue.c ****  */
  98:..\FreeRTOS\Source/queue.c **** typedef struct QueueDefinition /* The old naming convention is used to prevent breaking kernel awar
  99:..\FreeRTOS\Source/queue.c **** {
 100:..\FreeRTOS\Source/queue.c ****     int8_t * pcHead;           /*< Points to the beginning of the queue storage area. */
 101:..\FreeRTOS\Source/queue.c ****     int8_t * pcWriteTo;        /*< Points to the free next place in the storage area. */
 102:..\FreeRTOS\Source/queue.c **** 
 103:..\FreeRTOS\Source/queue.c ****     union
 104:..\FreeRTOS\Source/queue.c ****     {
 105:..\FreeRTOS\Source/queue.c ****         QueuePointers_t xQueue;     /*< Data required exclusively when this structure is used as a 
 106:..\FreeRTOS\Source/queue.c ****         SemaphoreData_t xSemaphore; /*< Data required exclusively when this structure is used as a 
 107:..\FreeRTOS\Source/queue.c ****     } u;
 108:..\FreeRTOS\Source/queue.c **** 
 109:..\FreeRTOS\Source/queue.c ****     List_t xTasksWaitingToSend;             /*< List of tasks that are blocked waiting to post onto
 110:..\FreeRTOS\Source/queue.c ****     List_t xTasksWaitingToReceive;          /*< List of tasks that are blocked waiting to read from
 111:..\FreeRTOS\Source/queue.c **** 
 112:..\FreeRTOS\Source/queue.c ****     volatile UBaseType_t uxMessagesWaiting; /*< The number of items currently in the queue. */
 113:..\FreeRTOS\Source/queue.c ****     UBaseType_t uxLength;                   /*< The length of the queue defined as the number of it
 114:..\FreeRTOS\Source/queue.c ****     UBaseType_t uxItemSize;                 /*< The size of each items that the queue will hold. */
 115:..\FreeRTOS\Source/queue.c **** 
 116:..\FreeRTOS\Source/queue.c ****     volatile int8_t cRxLock;                /*< Stores the number of items received from the queue 
 117:..\FreeRTOS\Source/queue.c ****     volatile int8_t cTxLock;                /*< Stores the number of items transmitted to the queue
 118:..\FreeRTOS\Source/queue.c **** 
 119:..\FreeRTOS\Source/queue.c ****     #if ( ( configSUPPORT_STATIC_ALLOCATION == 1 ) && ( configSUPPORT_DYNAMIC_ALLOCATION == 1 ) )
 120:..\FreeRTOS\Source/queue.c ****         uint8_t ucStaticallyAllocated; /*< Set to pdTRUE if the memory used by the queue was static
 121:..\FreeRTOS\Source/queue.c ****     #endif
 122:..\FreeRTOS\Source/queue.c **** 
 123:..\FreeRTOS\Source/queue.c ****     #if ( configUSE_QUEUE_SETS == 1 )
 124:..\FreeRTOS\Source/queue.c ****         struct QueueDefinition * pxQueueSetContainer;
 125:..\FreeRTOS\Source/queue.c ****     #endif
 126:..\FreeRTOS\Source/queue.c **** 
 127:..\FreeRTOS\Source/queue.c ****     #if ( configUSE_TRACE_FACILITY == 1 )
 128:..\FreeRTOS\Source/queue.c ****         UBaseType_t uxQueueNumber;
 129:..\FreeRTOS\Source/queue.c ****         uint8_t ucQueueType;
 130:..\FreeRTOS\Source/queue.c ****     #endif
 131:..\FreeRTOS\Source/queue.c **** } xQUEUE;
 132:..\FreeRTOS\Source/queue.c **** 
 133:..\FreeRTOS\Source/queue.c **** /* The old xQUEUE name is maintained above then typedefed to the new Queue_t
 134:..\FreeRTOS\Source/queue.c ****  * name below to enable the use of older kernel aware debuggers. */
 135:..\FreeRTOS\Source/queue.c **** typedef xQUEUE Queue_t;
 136:..\FreeRTOS\Source/queue.c **** 
 137:..\FreeRTOS\Source/queue.c **** /*-----------------------------------------------------------*/
 138:..\FreeRTOS\Source/queue.c **** 
 139:..\FreeRTOS\Source/queue.c **** /*
 140:..\FreeRTOS\Source/queue.c ****  * The queue registry is just a means for kernel aware debuggers to locate
 141:..\FreeRTOS\Source/queue.c ****  * queue structures.  It has no other purpose so is an optional component.
 142:..\FreeRTOS\Source/queue.c ****  */
ARM GAS  C:\Users\Jason\AppData\Local\Temp\ccMsFGiZ.s 			page 4


 143:..\FreeRTOS\Source/queue.c **** #if ( configQUEUE_REGISTRY_SIZE > 0 )
 144:..\FreeRTOS\Source/queue.c **** 
 145:..\FreeRTOS\Source/queue.c **** /* The type stored within the queue registry array.  This allows a name
 146:..\FreeRTOS\Source/queue.c ****  * to be assigned to each queue making kernel aware debugging a little
 147:..\FreeRTOS\Source/queue.c ****  * more user friendly. */
 148:..\FreeRTOS\Source/queue.c ****     typedef struct QUEUE_REGISTRY_ITEM
 149:..\FreeRTOS\Source/queue.c ****     {
 150:..\FreeRTOS\Source/queue.c ****         const char * pcQueueName; /*lint !e971 Unqualified char types are allowed for strings and s
 151:..\FreeRTOS\Source/queue.c ****         QueueHandle_t xHandle;
 152:..\FreeRTOS\Source/queue.c ****     } xQueueRegistryItem;
 153:..\FreeRTOS\Source/queue.c **** 
 154:..\FreeRTOS\Source/queue.c **** /* The old xQueueRegistryItem name is maintained above then typedefed to the
 155:..\FreeRTOS\Source/queue.c ****  * new xQueueRegistryItem name below to enable the use of older kernel aware
 156:..\FreeRTOS\Source/queue.c ****  * debuggers. */
 157:..\FreeRTOS\Source/queue.c ****     typedef xQueueRegistryItem QueueRegistryItem_t;
 158:..\FreeRTOS\Source/queue.c **** 
 159:..\FreeRTOS\Source/queue.c **** /* The queue registry is simply an array of QueueRegistryItem_t structures.
 160:..\FreeRTOS\Source/queue.c ****  * The pcQueueName member of a structure being NULL is indicative of the
 161:..\FreeRTOS\Source/queue.c ****  * array position being vacant. */
 162:..\FreeRTOS\Source/queue.c ****     PRIVILEGED_DATA QueueRegistryItem_t xQueueRegistry[ configQUEUE_REGISTRY_SIZE ];
 163:..\FreeRTOS\Source/queue.c **** 
 164:..\FreeRTOS\Source/queue.c **** #endif /* configQUEUE_REGISTRY_SIZE */
 165:..\FreeRTOS\Source/queue.c **** 
 166:..\FreeRTOS\Source/queue.c **** /*
 167:..\FreeRTOS\Source/queue.c ****  * Unlocks a queue locked by a call to prvLockQueue.  Locking a queue does not
 168:..\FreeRTOS\Source/queue.c ****  * prevent an ISR from adding or removing items to the queue, but does prevent
 169:..\FreeRTOS\Source/queue.c ****  * an ISR from removing tasks from the queue event lists.  If an ISR finds a
 170:..\FreeRTOS\Source/queue.c ****  * queue is locked it will instead increment the appropriate queue lock count
 171:..\FreeRTOS\Source/queue.c ****  * to indicate that a task may require unblocking.  When the queue in unlocked
 172:..\FreeRTOS\Source/queue.c ****  * these lock counts are inspected, and the appropriate action taken.
 173:..\FreeRTOS\Source/queue.c ****  */
 174:..\FreeRTOS\Source/queue.c **** static void prvUnlockQueue( Queue_t * const pxQueue ) PRIVILEGED_FUNCTION;
 175:..\FreeRTOS\Source/queue.c **** 
 176:..\FreeRTOS\Source/queue.c **** /*
 177:..\FreeRTOS\Source/queue.c ****  * Uses a critical section to determine if there is any data in a queue.
 178:..\FreeRTOS\Source/queue.c ****  *
 179:..\FreeRTOS\Source/queue.c ****  * @return pdTRUE if the queue contains no items, otherwise pdFALSE.
 180:..\FreeRTOS\Source/queue.c ****  */
 181:..\FreeRTOS\Source/queue.c **** static BaseType_t prvIsQueueEmpty( const Queue_t * pxQueue ) PRIVILEGED_FUNCTION;
 182:..\FreeRTOS\Source/queue.c **** 
 183:..\FreeRTOS\Source/queue.c **** /*
 184:..\FreeRTOS\Source/queue.c ****  * Uses a critical section to determine if there is any space in a queue.
 185:..\FreeRTOS\Source/queue.c ****  *
 186:..\FreeRTOS\Source/queue.c ****  * @return pdTRUE if there is no space, otherwise pdFALSE;
 187:..\FreeRTOS\Source/queue.c ****  */
 188:..\FreeRTOS\Source/queue.c **** static BaseType_t prvIsQueueFull( const Queue_t * pxQueue ) PRIVILEGED_FUNCTION;
 189:..\FreeRTOS\Source/queue.c **** 
 190:..\FreeRTOS\Source/queue.c **** /*
 191:..\FreeRTOS\Source/queue.c ****  * Copies an item into the queue, either at the front of the queue or the
 192:..\FreeRTOS\Source/queue.c ****  * back of the queue.
 193:..\FreeRTOS\Source/queue.c ****  */
 194:..\FreeRTOS\Source/queue.c **** static BaseType_t prvCopyDataToQueue( Queue_t * const pxQueue,
 195:..\FreeRTOS\Source/queue.c ****                                       const void * pvItemToQueue,
 196:..\FreeRTOS\Source/queue.c ****                                       const BaseType_t xPosition ) PRIVILEGED_FUNCTION;
 197:..\FreeRTOS\Source/queue.c **** 
 198:..\FreeRTOS\Source/queue.c **** /*
 199:..\FreeRTOS\Source/queue.c ****  * Copies an item out of a queue.
ARM GAS  C:\Users\Jason\AppData\Local\Temp\ccMsFGiZ.s 			page 5


 200:..\FreeRTOS\Source/queue.c ****  */
 201:..\FreeRTOS\Source/queue.c **** static void prvCopyDataFromQueue( Queue_t * const pxQueue,
 202:..\FreeRTOS\Source/queue.c ****                                   void * const pvBuffer ) PRIVILEGED_FUNCTION;
 203:..\FreeRTOS\Source/queue.c **** 
 204:..\FreeRTOS\Source/queue.c **** #if ( configUSE_QUEUE_SETS == 1 )
 205:..\FreeRTOS\Source/queue.c **** 
 206:..\FreeRTOS\Source/queue.c **** /*
 207:..\FreeRTOS\Source/queue.c ****  * Checks to see if a queue is a member of a queue set, and if so, notifies
 208:..\FreeRTOS\Source/queue.c ****  * the queue set that the queue contains data.
 209:..\FreeRTOS\Source/queue.c ****  */
 210:..\FreeRTOS\Source/queue.c ****     static BaseType_t prvNotifyQueueSetContainer( const Queue_t * const pxQueue ) PRIVILEGED_FUNCTI
 211:..\FreeRTOS\Source/queue.c **** #endif
 212:..\FreeRTOS\Source/queue.c **** 
 213:..\FreeRTOS\Source/queue.c **** /*
 214:..\FreeRTOS\Source/queue.c ****  * Called after a Queue_t structure has been allocated either statically or
 215:..\FreeRTOS\Source/queue.c ****  * dynamically to fill in the structure's members.
 216:..\FreeRTOS\Source/queue.c ****  */
 217:..\FreeRTOS\Source/queue.c **** static void prvInitialiseNewQueue( const UBaseType_t uxQueueLength,
 218:..\FreeRTOS\Source/queue.c ****                                    const UBaseType_t uxItemSize,
 219:..\FreeRTOS\Source/queue.c ****                                    uint8_t * pucQueueStorage,
 220:..\FreeRTOS\Source/queue.c ****                                    const uint8_t ucQueueType,
 221:..\FreeRTOS\Source/queue.c ****                                    Queue_t * pxNewQueue ) PRIVILEGED_FUNCTION;
 222:..\FreeRTOS\Source/queue.c **** 
 223:..\FreeRTOS\Source/queue.c **** /*
 224:..\FreeRTOS\Source/queue.c ****  * Mutexes are a special type of queue.  When a mutex is created, first the
 225:..\FreeRTOS\Source/queue.c ****  * queue is created, then prvInitialiseMutex() is called to configure the queue
 226:..\FreeRTOS\Source/queue.c ****  * as a mutex.
 227:..\FreeRTOS\Source/queue.c ****  */
 228:..\FreeRTOS\Source/queue.c **** #if ( configUSE_MUTEXES == 1 )
 229:..\FreeRTOS\Source/queue.c ****     static void prvInitialiseMutex( Queue_t * pxNewQueue ) PRIVILEGED_FUNCTION;
 230:..\FreeRTOS\Source/queue.c **** #endif
 231:..\FreeRTOS\Source/queue.c **** 
 232:..\FreeRTOS\Source/queue.c **** #if ( configUSE_MUTEXES == 1 )
 233:..\FreeRTOS\Source/queue.c **** 
 234:..\FreeRTOS\Source/queue.c **** /*
 235:..\FreeRTOS\Source/queue.c ****  * If a task waiting for a mutex causes the mutex holder to inherit a
 236:..\FreeRTOS\Source/queue.c ****  * priority, but the waiting task times out, then the holder should
 237:..\FreeRTOS\Source/queue.c ****  * disinherit the priority - but only down to the highest priority of any
 238:..\FreeRTOS\Source/queue.c ****  * other tasks that are waiting for the same mutex.  This function returns
 239:..\FreeRTOS\Source/queue.c ****  * that priority.
 240:..\FreeRTOS\Source/queue.c ****  */
 241:..\FreeRTOS\Source/queue.c ****     static UBaseType_t prvGetDisinheritPriorityAfterTimeout( const Queue_t * const pxQueue ) PRIVIL
 242:..\FreeRTOS\Source/queue.c **** #endif
 243:..\FreeRTOS\Source/queue.c **** /*-----------------------------------------------------------*/
 244:..\FreeRTOS\Source/queue.c **** 
 245:..\FreeRTOS\Source/queue.c **** /*
 246:..\FreeRTOS\Source/queue.c ****  * Macro to mark a queue as locked.  Locking a queue prevents an ISR from
 247:..\FreeRTOS\Source/queue.c ****  * accessing the queue event lists.
 248:..\FreeRTOS\Source/queue.c ****  */
 249:..\FreeRTOS\Source/queue.c **** #define prvLockQueue( pxQueue )                            \
 250:..\FreeRTOS\Source/queue.c ****     taskENTER_CRITICAL();                                  \
 251:..\FreeRTOS\Source/queue.c ****     {                                                      \
 252:..\FreeRTOS\Source/queue.c ****         if( ( pxQueue )->cRxLock == queueUNLOCKED )        \
 253:..\FreeRTOS\Source/queue.c ****         {                                                  \
 254:..\FreeRTOS\Source/queue.c ****             ( pxQueue )->cRxLock = queueLOCKED_UNMODIFIED; \
 255:..\FreeRTOS\Source/queue.c ****         }                                                  \
 256:..\FreeRTOS\Source/queue.c ****         if( ( pxQueue )->cTxLock == queueUNLOCKED )        \
ARM GAS  C:\Users\Jason\AppData\Local\Temp\ccMsFGiZ.s 			page 6


 257:..\FreeRTOS\Source/queue.c ****         {                                                  \
 258:..\FreeRTOS\Source/queue.c ****             ( pxQueue )->cTxLock = queueLOCKED_UNMODIFIED; \
 259:..\FreeRTOS\Source/queue.c ****         }                                                  \
 260:..\FreeRTOS\Source/queue.c ****     }                                                      \
 261:..\FreeRTOS\Source/queue.c ****     taskEXIT_CRITICAL()
 262:..\FreeRTOS\Source/queue.c **** /*-----------------------------------------------------------*/
 263:..\FreeRTOS\Source/queue.c **** 
 264:..\FreeRTOS\Source/queue.c **** BaseType_t xQueueGenericReset( QueueHandle_t xQueue,
 265:..\FreeRTOS\Source/queue.c ****                                BaseType_t xNewQueue )
 266:..\FreeRTOS\Source/queue.c **** {
  30              		.loc 1 266 0
  31              		.cfi_startproc
  32              		@ args = 0, pretend = 0, frame = 16
  33              		@ frame_needed = 1, uses_anonymous_args = 0
  34 0000 80B5     		push	{r7, lr}
  35              		.cfi_def_cfa_offset 8
  36              		.cfi_offset 7, -8
  37              		.cfi_offset 14, -4
  38 0002 84B0     		sub	sp, sp, #16
  39              		.cfi_def_cfa_offset 24
  40 0004 00AF     		add	r7, sp, #0
  41              		.cfi_def_cfa_register 7
  42 0006 7860     		str	r0, [r7, #4]
  43 0008 3960     		str	r1, [r7]
 267:..\FreeRTOS\Source/queue.c ****     Queue_t * const pxQueue = xQueue;
  44              		.loc 1 267 0
  45 000a 7B68     		ldr	r3, [r7, #4]
  46 000c FB60     		str	r3, [r7, #12]
 268:..\FreeRTOS\Source/queue.c **** 
 269:..\FreeRTOS\Source/queue.c ****     configASSERT( pxQueue );
  47              		.loc 1 269 0
  48 000e 274B     		ldr	r3, .L7
  49 0010 1B88     		ldrh	r3, [r3]
  50 0012 002B     		cmp	r3, #0
  51 0014 01D1     		bne	.L2
  52              		.loc 1 269 0 is_stmt 0 discriminator 1
  53              		.syntax divided
  54              	@ 269 "..\FreeRTOS\Source\queue.c" 1
  55 0016 72B6     		 cpsid i 
  56              	@ 0 "" 2
  57              		.thumb
  58              		.syntax unified
  59              	.L3:
  60 0018 FEE7     		b	.L3
  61              	.L2:
 270:..\FreeRTOS\Source/queue.c **** 
 271:..\FreeRTOS\Source/queue.c ****     taskENTER_CRITICAL();
  62              		.loc 1 271 0 is_stmt 1
  63 001a FFF7FEFF 		bl	vPortEnterCritical
 272:..\FreeRTOS\Source/queue.c ****     {
 273:..\FreeRTOS\Source/queue.c ****         pxQueue->u.xQueue.pcTail = pxQueue->pcHead + ( pxQueue->uxLength * pxQueue->uxItemSize ); /
  64              		.loc 1 273 0
  65 001e FB68     		ldr	r3, [r7, #12]
  66 0020 1A68     		ldr	r2, [r3]
  67 0022 FB68     		ldr	r3, [r7, #12]
  68 0024 D96B     		ldr	r1, [r3, #60]
  69 0026 FB68     		ldr	r3, [r7, #12]
ARM GAS  C:\Users\Jason\AppData\Local\Temp\ccMsFGiZ.s 			page 7


  70 0028 1B6C     		ldr	r3, [r3, #64]
  71 002a 4B43     		muls	r3, r1
  72 002c D218     		adds	r2, r2, r3
  73 002e FB68     		ldr	r3, [r7, #12]
  74 0030 9A60     		str	r2, [r3, #8]
 274:..\FreeRTOS\Source/queue.c ****         pxQueue->uxMessagesWaiting = ( UBaseType_t ) 0U;
  75              		.loc 1 274 0
  76 0032 FB68     		ldr	r3, [r7, #12]
  77 0034 0022     		movs	r2, #0
  78 0036 9A63     		str	r2, [r3, #56]
 275:..\FreeRTOS\Source/queue.c ****         pxQueue->pcWriteTo = pxQueue->pcHead;
  79              		.loc 1 275 0
  80 0038 FB68     		ldr	r3, [r7, #12]
  81 003a 1A68     		ldr	r2, [r3]
  82 003c FB68     		ldr	r3, [r7, #12]
  83 003e 5A60     		str	r2, [r3, #4]
 276:..\FreeRTOS\Source/queue.c ****         pxQueue->u.xQueue.pcReadFrom = pxQueue->pcHead + ( ( pxQueue->uxLength - 1U ) * pxQueue->ux
  84              		.loc 1 276 0
  85 0040 FB68     		ldr	r3, [r7, #12]
  86 0042 1A68     		ldr	r2, [r3]
  87 0044 FB68     		ldr	r3, [r7, #12]
  88 0046 DB6B     		ldr	r3, [r3, #60]
  89 0048 591E     		subs	r1, r3, #1
  90 004a FB68     		ldr	r3, [r7, #12]
  91 004c 1B6C     		ldr	r3, [r3, #64]
  92 004e 4B43     		muls	r3, r1
  93 0050 D218     		adds	r2, r2, r3
  94 0052 FB68     		ldr	r3, [r7, #12]
  95 0054 DA60     		str	r2, [r3, #12]
 277:..\FreeRTOS\Source/queue.c ****         pxQueue->cRxLock = queueUNLOCKED;
  96              		.loc 1 277 0
  97 0056 FB68     		ldr	r3, [r7, #12]
  98 0058 4422     		movs	r2, #68
  99 005a FF21     		movs	r1, #255
 100 005c 9954     		strb	r1, [r3, r2]
 278:..\FreeRTOS\Source/queue.c ****         pxQueue->cTxLock = queueUNLOCKED;
 101              		.loc 1 278 0
 102 005e FB68     		ldr	r3, [r7, #12]
 103 0060 4522     		movs	r2, #69
 104 0062 FF21     		movs	r1, #255
 105 0064 9954     		strb	r1, [r3, r2]
 279:..\FreeRTOS\Source/queue.c **** 
 280:..\FreeRTOS\Source/queue.c ****         if( xNewQueue == pdFALSE )
 106              		.loc 1 280 0
 107 0066 3B68     		ldr	r3, [r7]
 108 0068 002B     		cmp	r3, #0
 109 006a 0DD1     		bne	.L4
 281:..\FreeRTOS\Source/queue.c ****         {
 282:..\FreeRTOS\Source/queue.c ****             /* If there are tasks blocked waiting to read from the queue, then
 283:..\FreeRTOS\Source/queue.c ****              * the tasks will remain blocked as after this function exits the queue
 284:..\FreeRTOS\Source/queue.c ****              * will still be empty.  If there are tasks blocked waiting to write to
 285:..\FreeRTOS\Source/queue.c ****              * the queue, then one should be unblocked as after this function exits
 286:..\FreeRTOS\Source/queue.c ****              * it will be possible to write to it. */
 287:..\FreeRTOS\Source/queue.c ****             if( listLIST_IS_EMPTY( &( pxQueue->xTasksWaitingToSend ) ) == pdFALSE )
 110              		.loc 1 287 0
 111 006c FB68     		ldr	r3, [r7, #12]
 112 006e 1B69     		ldr	r3, [r3, #16]
ARM GAS  C:\Users\Jason\AppData\Local\Temp\ccMsFGiZ.s 			page 8


 113 0070 002B     		cmp	r3, #0
 114 0072 13D0     		beq	.L5
 288:..\FreeRTOS\Source/queue.c ****             {
 289:..\FreeRTOS\Source/queue.c ****                 if( xTaskRemoveFromEventList( &( pxQueue->xTasksWaitingToSend ) ) != pdFALSE )
 115              		.loc 1 289 0
 116 0074 FB68     		ldr	r3, [r7, #12]
 117 0076 1033     		adds	r3, r3, #16
 118 0078 1800     		movs	r0, r3
 119 007a FFF7FEFF 		bl	xTaskRemoveFromEventList
 120 007e 031E     		subs	r3, r0, #0
 121 0080 0CD0     		beq	.L5
 290:..\FreeRTOS\Source/queue.c ****                 {
 291:..\FreeRTOS\Source/queue.c ****                     queueYIELD_IF_USING_PREEMPTION();
 122              		.loc 1 291 0
 123 0082 FFF7FEFF 		bl	vPortYield
 124 0086 09E0     		b	.L5
 125              	.L4:
 292:..\FreeRTOS\Source/queue.c ****                 }
 293:..\FreeRTOS\Source/queue.c ****                 else
 294:..\FreeRTOS\Source/queue.c ****                 {
 295:..\FreeRTOS\Source/queue.c ****                     mtCOVERAGE_TEST_MARKER();
 296:..\FreeRTOS\Source/queue.c ****                 }
 297:..\FreeRTOS\Source/queue.c ****             }
 298:..\FreeRTOS\Source/queue.c ****             else
 299:..\FreeRTOS\Source/queue.c ****             {
 300:..\FreeRTOS\Source/queue.c ****                 mtCOVERAGE_TEST_MARKER();
 301:..\FreeRTOS\Source/queue.c ****             }
 302:..\FreeRTOS\Source/queue.c ****         }
 303:..\FreeRTOS\Source/queue.c ****         else
 304:..\FreeRTOS\Source/queue.c ****         {
 305:..\FreeRTOS\Source/queue.c ****             /* Ensure the event queues start in the correct state. */
 306:..\FreeRTOS\Source/queue.c ****             vListInitialise( &( pxQueue->xTasksWaitingToSend ) );
 126              		.loc 1 306 0
 127 0088 FB68     		ldr	r3, [r7, #12]
 128 008a 1033     		adds	r3, r3, #16
 129 008c 1800     		movs	r0, r3
 130 008e FFF7FEFF 		bl	vListInitialise
 307:..\FreeRTOS\Source/queue.c ****             vListInitialise( &( pxQueue->xTasksWaitingToReceive ) );
 131              		.loc 1 307 0
 132 0092 FB68     		ldr	r3, [r7, #12]
 133 0094 2433     		adds	r3, r3, #36
 134 0096 1800     		movs	r0, r3
 135 0098 FFF7FEFF 		bl	vListInitialise
 136              	.L5:
 308:..\FreeRTOS\Source/queue.c ****         }
 309:..\FreeRTOS\Source/queue.c ****     }
 310:..\FreeRTOS\Source/queue.c ****     taskEXIT_CRITICAL();
 137              		.loc 1 310 0
 138 009c FFF7FEFF 		bl	vPortExitCritical
 311:..\FreeRTOS\Source/queue.c **** 
 312:..\FreeRTOS\Source/queue.c ****     /* A value is returned for calling semantic consistency with previous
 313:..\FreeRTOS\Source/queue.c ****      * versions. */
 314:..\FreeRTOS\Source/queue.c ****     return pdPASS;
 139              		.loc 1 314 0
 140 00a0 0123     		movs	r3, #1
 315:..\FreeRTOS\Source/queue.c **** }
 141              		.loc 1 315 0
ARM GAS  C:\Users\Jason\AppData\Local\Temp\ccMsFGiZ.s 			page 9


 142 00a2 1800     		movs	r0, r3
 143 00a4 BD46     		mov	sp, r7
 144 00a6 04B0     		add	sp, sp, #16
 145              		@ sp needed
 146 00a8 80BD     		pop	{r7, pc}
 147              	.L8:
 148 00aa C046     		.align	2
 149              	.L7:
 150 00ac 00000000 		.word	x
 151              		.cfi_endproc
 152              	.LFE0:
 153              		.size	xQueueGenericReset, .-xQueueGenericReset
 154              		.section	.text.xQueueGenericCreateStatic,"ax",%progbits
 155              		.align	2
 156              		.global	xQueueGenericCreateStatic
 157              		.code	16
 158              		.thumb_func
 159              		.type	xQueueGenericCreateStatic, %function
 160              	xQueueGenericCreateStatic:
 161              	.LFB1:
 316:..\FreeRTOS\Source/queue.c **** /*-----------------------------------------------------------*/
 317:..\FreeRTOS\Source/queue.c **** 
 318:..\FreeRTOS\Source/queue.c **** #if ( configSUPPORT_STATIC_ALLOCATION == 1 )
 319:..\FreeRTOS\Source/queue.c **** 
 320:..\FreeRTOS\Source/queue.c ****     QueueHandle_t xQueueGenericCreateStatic( const UBaseType_t uxQueueLength,
 321:..\FreeRTOS\Source/queue.c ****                                              const UBaseType_t uxItemSize,
 322:..\FreeRTOS\Source/queue.c ****                                              uint8_t * pucQueueStorage,
 323:..\FreeRTOS\Source/queue.c ****                                              StaticQueue_t * pxStaticQueue,
 324:..\FreeRTOS\Source/queue.c ****                                              const uint8_t ucQueueType )
 325:..\FreeRTOS\Source/queue.c ****     {
 162              		.loc 1 325 0
 163              		.cfi_startproc
 164              		@ args = 4, pretend = 0, frame = 24
 165              		@ frame_needed = 1, uses_anonymous_args = 0
 166 0000 90B5     		push	{r4, r7, lr}
 167              		.cfi_def_cfa_offset 12
 168              		.cfi_offset 4, -12
 169              		.cfi_offset 7, -8
 170              		.cfi_offset 14, -4
 171 0002 89B0     		sub	sp, sp, #36
 172              		.cfi_def_cfa_offset 48
 173 0004 02AF     		add	r7, sp, #8
 174              		.cfi_def_cfa 7, 40
 175 0006 F860     		str	r0, [r7, #12]
 176 0008 B960     		str	r1, [r7, #8]
 177 000a 7A60     		str	r2, [r7, #4]
 178 000c 3B60     		str	r3, [r7]
 326:..\FreeRTOS\Source/queue.c ****         Queue_t * pxNewQueue;
 327:..\FreeRTOS\Source/queue.c **** 
 328:..\FreeRTOS\Source/queue.c ****         configASSERT( uxQueueLength > ( UBaseType_t ) 0 );
 179              		.loc 1 328 0
 180 000e 1E4B     		ldr	r3, .L28
 181 0010 1B88     		ldrh	r3, [r3]
 182 0012 002B     		cmp	r3, #0
 183 0014 01D1     		bne	.L10
 184              		.loc 1 328 0 is_stmt 0 discriminator 1
 185              		.syntax divided
ARM GAS  C:\Users\Jason\AppData\Local\Temp\ccMsFGiZ.s 			page 10


 186              	@ 328 "..\FreeRTOS\Source\queue.c" 1
 187 0016 72B6     		 cpsid i 
 188              	@ 0 "" 2
 189              		.thumb
 190              		.syntax unified
 191              	.L11:
 192 0018 FEE7     		b	.L11
 193              	.L10:
 329:..\FreeRTOS\Source/queue.c **** 
 330:..\FreeRTOS\Source/queue.c ****         /* The StaticQueue_t structure and the queue storage area must be
 331:..\FreeRTOS\Source/queue.c ****          * supplied. */
 332:..\FreeRTOS\Source/queue.c ****         configASSERT( pxStaticQueue != NULL );
 194              		.loc 1 332 0 is_stmt 1
 195 001a 1B4B     		ldr	r3, .L28
 196 001c 1B88     		ldrh	r3, [r3]
 197 001e 002B     		cmp	r3, #0
 198 0020 01D1     		bne	.L12
 199              		.loc 1 332 0 is_stmt 0 discriminator 1
 200              		.syntax divided
 201              	@ 332 "..\FreeRTOS\Source\queue.c" 1
 202 0022 72B6     		 cpsid i 
 203              	@ 0 "" 2
 204              		.thumb
 205              		.syntax unified
 206              	.L13:
 207              		.loc 1 332 0 discriminator 2
 208 0024 FEE7     		b	.L13
 209              	.L12:
 333:..\FreeRTOS\Source/queue.c **** 
 334:..\FreeRTOS\Source/queue.c ****         /* A queue storage area should be provided if the item size is not 0, and
 335:..\FreeRTOS\Source/queue.c ****          * should not be provided if the item size is 0. */
 336:..\FreeRTOS\Source/queue.c ****         configASSERT( !( ( pucQueueStorage != NULL ) && ( uxItemSize == 0 ) ) );
 210              		.loc 1 336 0 is_stmt 1
 211 0026 184B     		ldr	r3, .L28
 212 0028 1B88     		ldrh	r3, [r3]
 213 002a 002B     		cmp	r3, #0
 214 002c 01D1     		bne	.L14
 215              		.loc 1 336 0 is_stmt 0 discriminator 1
 216              		.syntax divided
 217              	@ 336 "..\FreeRTOS\Source\queue.c" 1
 218 002e 72B6     		 cpsid i 
 219              	@ 0 "" 2
 220              		.thumb
 221              		.syntax unified
 222              	.L15:
 223              		.loc 1 336 0 discriminator 3
 224 0030 FEE7     		b	.L15
 225              	.L14:
 226              		.loc 1 336 0 discriminator 2
 227 0032 7B68     		ldr	r3, [r7, #4]
 337:..\FreeRTOS\Source/queue.c ****         configASSERT( !( ( pucQueueStorage == NULL ) && ( uxItemSize != 0 ) ) );
 228              		.loc 1 337 0 is_stmt 1 discriminator 2
 229 0034 144B     		ldr	r3, .L28
 230 0036 1B88     		ldrh	r3, [r3]
 231 0038 002B     		cmp	r3, #0
 232 003a 01D1     		bne	.L19
 233              		.loc 1 337 0 is_stmt 0 discriminator 1
ARM GAS  C:\Users\Jason\AppData\Local\Temp\ccMsFGiZ.s 			page 11


 234              		.syntax divided
 235              	@ 337 "..\FreeRTOS\Source\queue.c" 1
 236 003c 72B6     		 cpsid i 
 237              	@ 0 "" 2
 238              		.thumb
 239              		.syntax unified
 240              	.L20:
 241              		.loc 1 337 0 discriminator 4
 242 003e FEE7     		b	.L20
 243              	.L19:
 244              		.loc 1 337 0 discriminator 2
 245 0040 7B68     		ldr	r3, [r7, #4]
 246              	.LBB2:
 338:..\FreeRTOS\Source/queue.c **** 
 339:..\FreeRTOS\Source/queue.c ****         #if ( configASSERT_DEFINED == 1 )
 340:..\FreeRTOS\Source/queue.c ****             {
 341:..\FreeRTOS\Source/queue.c ****                 /* Sanity check that the size of the structure used to declare a
 342:..\FreeRTOS\Source/queue.c ****                  * variable of type StaticQueue_t or StaticSemaphore_t equals the size of
 343:..\FreeRTOS\Source/queue.c ****                  * the real queue and semaphore structures. */
 344:..\FreeRTOS\Source/queue.c ****                 volatile size_t xSize = sizeof( StaticQueue_t );
 247              		.loc 1 344 0 is_stmt 1 discriminator 2
 248 0042 4823     		movs	r3, #72
 249 0044 3B61     		str	r3, [r7, #16]
 345:..\FreeRTOS\Source/queue.c ****                 configASSERT( xSize == sizeof( Queue_t ) );
 250              		.loc 1 345 0 discriminator 2
 251 0046 104B     		ldr	r3, .L28
 252 0048 1B88     		ldrh	r3, [r3]
 253 004a 002B     		cmp	r3, #0
 254 004c 01D1     		bne	.L24
 255              		.loc 1 345 0 is_stmt 0 discriminator 1
 256              		.syntax divided
 257              	@ 345 "..\FreeRTOS\Source\queue.c" 1
 258 004e 72B6     		 cpsid i 
 259              	@ 0 "" 2
 260              		.thumb
 261              		.syntax unified
 262              	.L25:
 263              		.loc 1 345 0 discriminator 5
 264 0050 FEE7     		b	.L25
 265              	.L24:
 266              		.loc 1 345 0 discriminator 2
 267 0052 3B69     		ldr	r3, [r7, #16]
 346:..\FreeRTOS\Source/queue.c ****                 ( void ) xSize; /* Keeps lint quiet when configASSERT() is not defined. */
 268              		.loc 1 346 0 is_stmt 1 discriminator 2
 269 0054 3B69     		ldr	r3, [r7, #16]
 270              	.LBE2:
 347:..\FreeRTOS\Source/queue.c ****             }
 348:..\FreeRTOS\Source/queue.c ****         #endif /* configASSERT_DEFINED */
 349:..\FreeRTOS\Source/queue.c **** 
 350:..\FreeRTOS\Source/queue.c ****         /* The address of a statically allocated queue was passed in, use it.
 351:..\FreeRTOS\Source/queue.c ****          * The address of a statically allocated storage area was also passed in
 352:..\FreeRTOS\Source/queue.c ****          * but is already set. */
 353:..\FreeRTOS\Source/queue.c ****         pxNewQueue = ( Queue_t * ) pxStaticQueue; /*lint !e740 !e9087 Unusual cast is ok as the str
 271              		.loc 1 353 0 discriminator 2
 272 0056 3B68     		ldr	r3, [r7]
 273 0058 7B61     		str	r3, [r7, #20]
 354:..\FreeRTOS\Source/queue.c **** 
ARM GAS  C:\Users\Jason\AppData\Local\Temp\ccMsFGiZ.s 			page 12


 355:..\FreeRTOS\Source/queue.c ****         if( pxNewQueue != NULL )
 274              		.loc 1 355 0 discriminator 2
 275 005a 7B69     		ldr	r3, [r7, #20]
 276 005c 002B     		cmp	r3, #0
 277 005e 0ED0     		beq	.L26
 356:..\FreeRTOS\Source/queue.c ****         {
 357:..\FreeRTOS\Source/queue.c ****             #if ( configSUPPORT_DYNAMIC_ALLOCATION == 1 )
 358:..\FreeRTOS\Source/queue.c ****                 {
 359:..\FreeRTOS\Source/queue.c ****                     /* Queues can be allocated wither statically or dynamically, so
 360:..\FreeRTOS\Source/queue.c ****                      * note this queue was allocated statically in case the queue is
 361:..\FreeRTOS\Source/queue.c ****                      * later deleted. */
 362:..\FreeRTOS\Source/queue.c ****                     pxNewQueue->ucStaticallyAllocated = pdTRUE;
 278              		.loc 1 362 0
 279 0060 7B69     		ldr	r3, [r7, #20]
 280 0062 4622     		movs	r2, #70
 281 0064 0121     		movs	r1, #1
 282 0066 9954     		strb	r1, [r3, r2]
 363:..\FreeRTOS\Source/queue.c ****                 }
 364:..\FreeRTOS\Source/queue.c ****             #endif /* configSUPPORT_DYNAMIC_ALLOCATION */
 365:..\FreeRTOS\Source/queue.c **** 
 366:..\FreeRTOS\Source/queue.c ****             prvInitialiseNewQueue( uxQueueLength, uxItemSize, pucQueueStorage, ucQueueType, pxNewQu
 283              		.loc 1 366 0
 284 0068 2823     		movs	r3, #40
 285 006a FB18     		adds	r3, r7, r3
 286 006c 1C78     		ldrb	r4, [r3]
 287 006e 7A68     		ldr	r2, [r7, #4]
 288 0070 B968     		ldr	r1, [r7, #8]
 289 0072 F868     		ldr	r0, [r7, #12]
 290 0074 7B69     		ldr	r3, [r7, #20]
 291 0076 0093     		str	r3, [sp]
 292 0078 2300     		movs	r3, r4
 293 007a FFF7FEFF 		bl	prvInitialiseNewQueue
 294              	.L26:
 367:..\FreeRTOS\Source/queue.c ****         }
 368:..\FreeRTOS\Source/queue.c ****         else
 369:..\FreeRTOS\Source/queue.c ****         {
 370:..\FreeRTOS\Source/queue.c ****             traceQUEUE_CREATE_FAILED( ucQueueType );
 371:..\FreeRTOS\Source/queue.c ****             mtCOVERAGE_TEST_MARKER();
 372:..\FreeRTOS\Source/queue.c ****         }
 373:..\FreeRTOS\Source/queue.c **** 
 374:..\FreeRTOS\Source/queue.c ****         return pxNewQueue;
 295              		.loc 1 374 0
 296 007e 7B69     		ldr	r3, [r7, #20]
 375:..\FreeRTOS\Source/queue.c ****     }
 297              		.loc 1 375 0
 298 0080 1800     		movs	r0, r3
 299 0082 BD46     		mov	sp, r7
 300 0084 07B0     		add	sp, sp, #28
 301              		@ sp needed
 302 0086 90BD     		pop	{r4, r7, pc}
 303              	.L29:
 304              		.align	2
 305              	.L28:
 306 0088 00000000 		.word	x
 307              		.cfi_endproc
 308              	.LFE1:
 309              		.size	xQueueGenericCreateStatic, .-xQueueGenericCreateStatic
ARM GAS  C:\Users\Jason\AppData\Local\Temp\ccMsFGiZ.s 			page 13


 310              		.global	__aeabi_uidiv
 311              		.section	.text.xQueueGenericCreate,"ax",%progbits
 312              		.align	2
 313              		.global	xQueueGenericCreate
 314              		.code	16
 315              		.thumb_func
 316              		.type	xQueueGenericCreate, %function
 317              	xQueueGenericCreate:
 318              	.LFB2:
 376:..\FreeRTOS\Source/queue.c **** 
 377:..\FreeRTOS\Source/queue.c **** #endif /* configSUPPORT_STATIC_ALLOCATION */
 378:..\FreeRTOS\Source/queue.c **** /*-----------------------------------------------------------*/
 379:..\FreeRTOS\Source/queue.c **** 
 380:..\FreeRTOS\Source/queue.c **** #if ( configSUPPORT_DYNAMIC_ALLOCATION == 1 )
 381:..\FreeRTOS\Source/queue.c **** 
 382:..\FreeRTOS\Source/queue.c ****     QueueHandle_t xQueueGenericCreate( const UBaseType_t uxQueueLength,
 383:..\FreeRTOS\Source/queue.c ****                                        const UBaseType_t uxItemSize,
 384:..\FreeRTOS\Source/queue.c ****                                        const uint8_t ucQueueType )
 385:..\FreeRTOS\Source/queue.c ****     {
 319              		.loc 1 385 0
 320              		.cfi_startproc
 321              		@ args = 0, pretend = 0, frame = 32
 322              		@ frame_needed = 1, uses_anonymous_args = 0
 323 0000 90B5     		push	{r4, r7, lr}
 324              		.cfi_def_cfa_offset 12
 325              		.cfi_offset 4, -12
 326              		.cfi_offset 7, -8
 327              		.cfi_offset 14, -4
 328 0002 8BB0     		sub	sp, sp, #44
 329              		.cfi_def_cfa_offset 56
 330 0004 02AF     		add	r7, sp, #8
 331              		.cfi_def_cfa 7, 48
 332 0006 F860     		str	r0, [r7, #12]
 333 0008 B960     		str	r1, [r7, #8]
 334 000a FB1D     		adds	r3, r7, #7
 335 000c 1A70     		strb	r2, [r3]
 386:..\FreeRTOS\Source/queue.c ****         Queue_t * pxNewQueue;
 387:..\FreeRTOS\Source/queue.c ****         size_t xQueueSizeInBytes;
 388:..\FreeRTOS\Source/queue.c ****         uint8_t * pucQueueStorage;
 389:..\FreeRTOS\Source/queue.c **** 
 390:..\FreeRTOS\Source/queue.c ****         configASSERT( uxQueueLength > ( UBaseType_t ) 0 );
 336              		.loc 1 390 0
 337 000e 1F4B     		ldr	r3, .L42
 338 0010 1B88     		ldrh	r3, [r3]
 339 0012 002B     		cmp	r3, #0
 340 0014 01D1     		bne	.L31
 341              		.loc 1 390 0 is_stmt 0 discriminator 1
 342              		.syntax divided
 343              	@ 390 "..\FreeRTOS\Source\queue.c" 1
 344 0016 72B6     		 cpsid i 
 345              	@ 0 "" 2
 346              		.thumb
 347              		.syntax unified
 348              	.L32:
 349 0018 FEE7     		b	.L32
 350              	.L31:
 391:..\FreeRTOS\Source/queue.c **** 
ARM GAS  C:\Users\Jason\AppData\Local\Temp\ccMsFGiZ.s 			page 14


 392:..\FreeRTOS\Source/queue.c ****         /* Allocate enough space to hold the maximum number of items that
 393:..\FreeRTOS\Source/queue.c ****          * can be in the queue at any time.  It is valid for uxItemSize to be
 394:..\FreeRTOS\Source/queue.c ****          * zero in the case the queue is used as a semaphore. */
 395:..\FreeRTOS\Source/queue.c ****         xQueueSizeInBytes = ( size_t ) ( uxQueueLength * uxItemSize ); /*lint !e961 MISRA exception
 351              		.loc 1 395 0 is_stmt 1
 352 001a FB68     		ldr	r3, [r7, #12]
 353 001c BA68     		ldr	r2, [r7, #8]
 354 001e 5343     		muls	r3, r2
 355 0020 FB61     		str	r3, [r7, #28]
 396:..\FreeRTOS\Source/queue.c **** 
 397:..\FreeRTOS\Source/queue.c ****         /* Check for multiplication overflow. */
 398:..\FreeRTOS\Source/queue.c ****         configASSERT( ( uxItemSize == 0 ) || ( uxQueueLength == ( xQueueSizeInBytes / uxItemSize ) 
 356              		.loc 1 398 0
 357 0022 1A4B     		ldr	r3, .L42
 358 0024 1B88     		ldrh	r3, [r3]
 359 0026 002B     		cmp	r3, #0
 360 0028 01D1     		bne	.L33
 361              		.loc 1 398 0 is_stmt 0 discriminator 1
 362              		.syntax divided
 363              	@ 398 "..\FreeRTOS\Source\queue.c" 1
 364 002a 72B6     		 cpsid i 
 365              	@ 0 "" 2
 366              		.thumb
 367              		.syntax unified
 368              	.L34:
 369              		.loc 1 398 0 discriminator 2
 370 002c FEE7     		b	.L34
 371              	.L33:
 372 002e BB68     		ldr	r3, [r7, #8]
 373 0030 002B     		cmp	r3, #0
 374 0032 03D0     		beq	.L37
 375              		.loc 1 398 0 discriminator 4
 376 0034 B968     		ldr	r1, [r7, #8]
 377 0036 F869     		ldr	r0, [r7, #28]
 378 0038 FFF7FEFF 		bl	__aeabi_uidiv
 379              	.L37:
 399:..\FreeRTOS\Source/queue.c **** 
 400:..\FreeRTOS\Source/queue.c ****         /* Check for addition overflow. */
 401:..\FreeRTOS\Source/queue.c ****         configASSERT( ( sizeof( Queue_t ) + xQueueSizeInBytes ) >  xQueueSizeInBytes );
 380              		.loc 1 401 0 is_stmt 1
 381 003c 134B     		ldr	r3, .L42
 382 003e 1B88     		ldrh	r3, [r3]
 383 0040 002B     		cmp	r3, #0
 384 0042 01D1     		bne	.L38
 385              		.loc 1 401 0 is_stmt 0 discriminator 1
 386              		.syntax divided
 387              	@ 401 "..\FreeRTOS\Source\queue.c" 1
 388 0044 72B6     		 cpsid i 
 389              	@ 0 "" 2
 390              		.thumb
 391              		.syntax unified
 392              	.L39:
 393              		.loc 1 401 0 discriminator 3
 394 0046 FEE7     		b	.L39
 395              	.L38:
 402:..\FreeRTOS\Source/queue.c **** 
 403:..\FreeRTOS\Source/queue.c ****         /* Allocate the queue and storage area.  Justification for MISRA
ARM GAS  C:\Users\Jason\AppData\Local\Temp\ccMsFGiZ.s 			page 15


 404:..\FreeRTOS\Source/queue.c ****          * deviation as follows:  pvPortMalloc() always ensures returned memory
 405:..\FreeRTOS\Source/queue.c ****          * blocks are aligned per the requirements of the MCU stack.  In this case
 406:..\FreeRTOS\Source/queue.c ****          * pvPortMalloc() must return a pointer that is guaranteed to meet the
 407:..\FreeRTOS\Source/queue.c ****          * alignment requirements of the Queue_t structure - which in this case
 408:..\FreeRTOS\Source/queue.c ****          * is an int8_t *.  Therefore, whenever the stack alignment requirements
 409:..\FreeRTOS\Source/queue.c ****          * are greater than or equal to the pointer to char requirements the cast
 410:..\FreeRTOS\Source/queue.c ****          * is safe.  In other cases alignment requirements are not strict (one or
 411:..\FreeRTOS\Source/queue.c ****          * two bytes). */
 412:..\FreeRTOS\Source/queue.c ****         pxNewQueue = ( Queue_t * ) pvPortMalloc( sizeof( Queue_t ) + xQueueSizeInBytes ); /*lint !e
 396              		.loc 1 412 0 is_stmt 1 discriminator 2
 397 0048 FB69     		ldr	r3, [r7, #28]
 398 004a 4833     		adds	r3, r3, #72
 399 004c 1800     		movs	r0, r3
 400 004e FFF7FEFF 		bl	pvPortMalloc
 401 0052 0300     		movs	r3, r0
 402 0054 BB61     		str	r3, [r7, #24]
 413:..\FreeRTOS\Source/queue.c **** 
 414:..\FreeRTOS\Source/queue.c ****         if( pxNewQueue != NULL )
 403              		.loc 1 414 0 discriminator 2
 404 0056 BB69     		ldr	r3, [r7, #24]
 405 0058 002B     		cmp	r3, #0
 406 005a 12D0     		beq	.L40
 415:..\FreeRTOS\Source/queue.c ****         {
 416:..\FreeRTOS\Source/queue.c ****             /* Jump past the queue structure to find the location of the queue
 417:..\FreeRTOS\Source/queue.c ****              * storage area. */
 418:..\FreeRTOS\Source/queue.c ****             pucQueueStorage = ( uint8_t * ) pxNewQueue;
 407              		.loc 1 418 0
 408 005c BB69     		ldr	r3, [r7, #24]
 409 005e 7B61     		str	r3, [r7, #20]
 419:..\FreeRTOS\Source/queue.c ****             pucQueueStorage += sizeof( Queue_t ); /*lint !e9016 Pointer arithmetic allowed on char 
 410              		.loc 1 419 0
 411 0060 7B69     		ldr	r3, [r7, #20]
 412 0062 4833     		adds	r3, r3, #72
 413 0064 7B61     		str	r3, [r7, #20]
 420:..\FreeRTOS\Source/queue.c **** 
 421:..\FreeRTOS\Source/queue.c ****             #if ( configSUPPORT_STATIC_ALLOCATION == 1 )
 422:..\FreeRTOS\Source/queue.c ****                 {
 423:..\FreeRTOS\Source/queue.c ****                     /* Queues can be created either statically or dynamically, so
 424:..\FreeRTOS\Source/queue.c ****                      * note this task was created dynamically in case it is later
 425:..\FreeRTOS\Source/queue.c ****                      * deleted. */
 426:..\FreeRTOS\Source/queue.c ****                     pxNewQueue->ucStaticallyAllocated = pdFALSE;
 414              		.loc 1 426 0
 415 0066 BB69     		ldr	r3, [r7, #24]
 416 0068 4622     		movs	r2, #70
 417 006a 0021     		movs	r1, #0
 418 006c 9954     		strb	r1, [r3, r2]
 427:..\FreeRTOS\Source/queue.c ****                 }
 428:..\FreeRTOS\Source/queue.c ****             #endif /* configSUPPORT_STATIC_ALLOCATION */
 429:..\FreeRTOS\Source/queue.c **** 
 430:..\FreeRTOS\Source/queue.c ****             prvInitialiseNewQueue( uxQueueLength, uxItemSize, pucQueueStorage, ucQueueType, pxNewQu
 419              		.loc 1 430 0
 420 006e FB1D     		adds	r3, r7, #7
 421 0070 1C78     		ldrb	r4, [r3]
 422 0072 7A69     		ldr	r2, [r7, #20]
 423 0074 B968     		ldr	r1, [r7, #8]
 424 0076 F868     		ldr	r0, [r7, #12]
 425 0078 BB69     		ldr	r3, [r7, #24]
ARM GAS  C:\Users\Jason\AppData\Local\Temp\ccMsFGiZ.s 			page 16


 426 007a 0093     		str	r3, [sp]
 427 007c 2300     		movs	r3, r4
 428 007e FFF7FEFF 		bl	prvInitialiseNewQueue
 429              	.L40:
 431:..\FreeRTOS\Source/queue.c ****         }
 432:..\FreeRTOS\Source/queue.c ****         else
 433:..\FreeRTOS\Source/queue.c ****         {
 434:..\FreeRTOS\Source/queue.c ****             traceQUEUE_CREATE_FAILED( ucQueueType );
 435:..\FreeRTOS\Source/queue.c ****             mtCOVERAGE_TEST_MARKER();
 436:..\FreeRTOS\Source/queue.c ****         }
 437:..\FreeRTOS\Source/queue.c **** 
 438:..\FreeRTOS\Source/queue.c ****         return pxNewQueue;
 430              		.loc 1 438 0
 431 0082 BB69     		ldr	r3, [r7, #24]
 439:..\FreeRTOS\Source/queue.c ****     }
 432              		.loc 1 439 0
 433 0084 1800     		movs	r0, r3
 434 0086 BD46     		mov	sp, r7
 435 0088 09B0     		add	sp, sp, #36
 436              		@ sp needed
 437 008a 90BD     		pop	{r4, r7, pc}
 438              	.L43:
 439              		.align	2
 440              	.L42:
 441 008c 00000000 		.word	x
 442              		.cfi_endproc
 443              	.LFE2:
 444              		.size	xQueueGenericCreate, .-xQueueGenericCreate
 445              		.section	.text.prvInitialiseNewQueue,"ax",%progbits
 446              		.align	2
 447              		.code	16
 448              		.thumb_func
 449              		.type	prvInitialiseNewQueue, %function
 450              	prvInitialiseNewQueue:
 451              	.LFB3:
 440:..\FreeRTOS\Source/queue.c **** 
 441:..\FreeRTOS\Source/queue.c **** #endif /* configSUPPORT_STATIC_ALLOCATION */
 442:..\FreeRTOS\Source/queue.c **** /*-----------------------------------------------------------*/
 443:..\FreeRTOS\Source/queue.c **** 
 444:..\FreeRTOS\Source/queue.c **** static void prvInitialiseNewQueue( const UBaseType_t uxQueueLength,
 445:..\FreeRTOS\Source/queue.c ****                                    const UBaseType_t uxItemSize,
 446:..\FreeRTOS\Source/queue.c ****                                    uint8_t * pucQueueStorage,
 447:..\FreeRTOS\Source/queue.c ****                                    const uint8_t ucQueueType,
 448:..\FreeRTOS\Source/queue.c ****                                    Queue_t * pxNewQueue )
 449:..\FreeRTOS\Source/queue.c **** {
 452              		.loc 1 449 0
 453              		.cfi_startproc
 454              		@ args = 4, pretend = 0, frame = 16
 455              		@ frame_needed = 1, uses_anonymous_args = 0
 456 0000 80B5     		push	{r7, lr}
 457              		.cfi_def_cfa_offset 8
 458              		.cfi_offset 7, -8
 459              		.cfi_offset 14, -4
 460 0002 84B0     		sub	sp, sp, #16
 461              		.cfi_def_cfa_offset 24
 462 0004 00AF     		add	r7, sp, #0
 463              		.cfi_def_cfa_register 7
ARM GAS  C:\Users\Jason\AppData\Local\Temp\ccMsFGiZ.s 			page 17


 464 0006 F860     		str	r0, [r7, #12]
 465 0008 B960     		str	r1, [r7, #8]
 466 000a 7A60     		str	r2, [r7, #4]
 467 000c 1A00     		movs	r2, r3
 468 000e FB1C     		adds	r3, r7, #3
 469 0010 1A70     		strb	r2, [r3]
 450:..\FreeRTOS\Source/queue.c ****     /* Remove compiler warnings about unused parameters should
 451:..\FreeRTOS\Source/queue.c ****      * configUSE_TRACE_FACILITY not be set to 1. */
 452:..\FreeRTOS\Source/queue.c ****     ( void ) ucQueueType;
 453:..\FreeRTOS\Source/queue.c **** 
 454:..\FreeRTOS\Source/queue.c ****     if( uxItemSize == ( UBaseType_t ) 0 )
 470              		.loc 1 454 0
 471 0012 BB68     		ldr	r3, [r7, #8]
 472 0014 002B     		cmp	r3, #0
 473 0016 03D1     		bne	.L45
 455:..\FreeRTOS\Source/queue.c ****     {
 456:..\FreeRTOS\Source/queue.c ****         /* No RAM was allocated for the queue storage area, but PC head cannot
 457:..\FreeRTOS\Source/queue.c ****          * be set to NULL because NULL is used as a key to say the queue is used as
 458:..\FreeRTOS\Source/queue.c ****          * a mutex.  Therefore just set pcHead to point to the queue as a benign
 459:..\FreeRTOS\Source/queue.c ****          * value that is known to be within the memory map. */
 460:..\FreeRTOS\Source/queue.c ****         pxNewQueue->pcHead = ( int8_t * ) pxNewQueue;
 474              		.loc 1 460 0
 475 0018 BB69     		ldr	r3, [r7, #24]
 476 001a BA69     		ldr	r2, [r7, #24]
 477 001c 1A60     		str	r2, [r3]
 478 001e 02E0     		b	.L46
 479              	.L45:
 461:..\FreeRTOS\Source/queue.c ****     }
 462:..\FreeRTOS\Source/queue.c ****     else
 463:..\FreeRTOS\Source/queue.c ****     {
 464:..\FreeRTOS\Source/queue.c ****         /* Set the head to the start of the queue storage area. */
 465:..\FreeRTOS\Source/queue.c ****         pxNewQueue->pcHead = ( int8_t * ) pucQueueStorage;
 480              		.loc 1 465 0
 481 0020 BB69     		ldr	r3, [r7, #24]
 482 0022 7A68     		ldr	r2, [r7, #4]
 483 0024 1A60     		str	r2, [r3]
 484              	.L46:
 466:..\FreeRTOS\Source/queue.c ****     }
 467:..\FreeRTOS\Source/queue.c **** 
 468:..\FreeRTOS\Source/queue.c ****     /* Initialise the queue members as described where the queue type is
 469:..\FreeRTOS\Source/queue.c ****      * defined. */
 470:..\FreeRTOS\Source/queue.c ****     pxNewQueue->uxLength = uxQueueLength;
 485              		.loc 1 470 0
 486 0026 BB69     		ldr	r3, [r7, #24]
 487 0028 FA68     		ldr	r2, [r7, #12]
 488 002a DA63     		str	r2, [r3, #60]
 471:..\FreeRTOS\Source/queue.c ****     pxNewQueue->uxItemSize = uxItemSize;
 489              		.loc 1 471 0
 490 002c BB69     		ldr	r3, [r7, #24]
 491 002e BA68     		ldr	r2, [r7, #8]
 492 0030 1A64     		str	r2, [r3, #64]
 472:..\FreeRTOS\Source/queue.c ****     ( void ) xQueueGenericReset( pxNewQueue, pdTRUE );
 493              		.loc 1 472 0
 494 0032 BB69     		ldr	r3, [r7, #24]
 495 0034 0121     		movs	r1, #1
 496 0036 1800     		movs	r0, r3
 497 0038 FFF7FEFF 		bl	xQueueGenericReset
ARM GAS  C:\Users\Jason\AppData\Local\Temp\ccMsFGiZ.s 			page 18


 473:..\FreeRTOS\Source/queue.c **** 
 474:..\FreeRTOS\Source/queue.c ****     #if ( configUSE_TRACE_FACILITY == 1 )
 475:..\FreeRTOS\Source/queue.c ****         {
 476:..\FreeRTOS\Source/queue.c ****             pxNewQueue->ucQueueType = ucQueueType;
 477:..\FreeRTOS\Source/queue.c ****         }
 478:..\FreeRTOS\Source/queue.c ****     #endif /* configUSE_TRACE_FACILITY */
 479:..\FreeRTOS\Source/queue.c **** 
 480:..\FreeRTOS\Source/queue.c ****     #if ( configUSE_QUEUE_SETS == 1 )
 481:..\FreeRTOS\Source/queue.c ****         {
 482:..\FreeRTOS\Source/queue.c ****             pxNewQueue->pxQueueSetContainer = NULL;
 483:..\FreeRTOS\Source/queue.c ****         }
 484:..\FreeRTOS\Source/queue.c ****     #endif /* configUSE_QUEUE_SETS */
 485:..\FreeRTOS\Source/queue.c **** 
 486:..\FreeRTOS\Source/queue.c ****     traceQUEUE_CREATE( pxNewQueue );
 487:..\FreeRTOS\Source/queue.c **** }
 498              		.loc 1 487 0
 499 003c C046     		nop
 500 003e BD46     		mov	sp, r7
 501 0040 04B0     		add	sp, sp, #16
 502              		@ sp needed
 503 0042 80BD     		pop	{r7, pc}
 504              		.cfi_endproc
 505              	.LFE3:
 506              		.size	prvInitialiseNewQueue, .-prvInitialiseNewQueue
 507              		.section	.text.xQueueGenericSend,"ax",%progbits
 508              		.align	2
 509              		.global	xQueueGenericSend
 510              		.code	16
 511              		.thumb_func
 512              		.type	xQueueGenericSend, %function
 513              	xQueueGenericSend:
 514              	.LFB4:
 488:..\FreeRTOS\Source/queue.c **** /*-----------------------------------------------------------*/
 489:..\FreeRTOS\Source/queue.c **** 
 490:..\FreeRTOS\Source/queue.c **** #if ( configUSE_MUTEXES == 1 )
 491:..\FreeRTOS\Source/queue.c **** 
 492:..\FreeRTOS\Source/queue.c ****     static void prvInitialiseMutex( Queue_t * pxNewQueue )
 493:..\FreeRTOS\Source/queue.c ****     {
 494:..\FreeRTOS\Source/queue.c ****         if( pxNewQueue != NULL )
 495:..\FreeRTOS\Source/queue.c ****         {
 496:..\FreeRTOS\Source/queue.c ****             /* The queue create function will set all the queue structure members
 497:..\FreeRTOS\Source/queue.c ****             * correctly for a generic queue, but this function is creating a
 498:..\FreeRTOS\Source/queue.c ****             * mutex.  Overwrite those members that need to be set differently -
 499:..\FreeRTOS\Source/queue.c ****             * in particular the information required for priority inheritance. */
 500:..\FreeRTOS\Source/queue.c ****             pxNewQueue->u.xSemaphore.xMutexHolder = NULL;
 501:..\FreeRTOS\Source/queue.c ****             pxNewQueue->uxQueueType = queueQUEUE_IS_MUTEX;
 502:..\FreeRTOS\Source/queue.c **** 
 503:..\FreeRTOS\Source/queue.c ****             /* In case this is a recursive mutex. */
 504:..\FreeRTOS\Source/queue.c ****             pxNewQueue->u.xSemaphore.uxRecursiveCallCount = 0;
 505:..\FreeRTOS\Source/queue.c **** 
 506:..\FreeRTOS\Source/queue.c ****             traceCREATE_MUTEX( pxNewQueue );
 507:..\FreeRTOS\Source/queue.c **** 
 508:..\FreeRTOS\Source/queue.c ****             /* Start with the semaphore in the expected state. */
 509:..\FreeRTOS\Source/queue.c ****             ( void ) xQueueGenericSend( pxNewQueue, NULL, ( TickType_t ) 0U, queueSEND_TO_BACK );
 510:..\FreeRTOS\Source/queue.c ****         }
 511:..\FreeRTOS\Source/queue.c ****         else
 512:..\FreeRTOS\Source/queue.c ****         {
ARM GAS  C:\Users\Jason\AppData\Local\Temp\ccMsFGiZ.s 			page 19


 513:..\FreeRTOS\Source/queue.c ****             traceCREATE_MUTEX_FAILED();
 514:..\FreeRTOS\Source/queue.c ****         }
 515:..\FreeRTOS\Source/queue.c ****     }
 516:..\FreeRTOS\Source/queue.c **** 
 517:..\FreeRTOS\Source/queue.c **** #endif /* configUSE_MUTEXES */
 518:..\FreeRTOS\Source/queue.c **** /*-----------------------------------------------------------*/
 519:..\FreeRTOS\Source/queue.c **** 
 520:..\FreeRTOS\Source/queue.c **** #if ( ( configUSE_MUTEXES == 1 ) && ( configSUPPORT_DYNAMIC_ALLOCATION == 1 ) )
 521:..\FreeRTOS\Source/queue.c **** 
 522:..\FreeRTOS\Source/queue.c ****     QueueHandle_t xQueueCreateMutex( const uint8_t ucQueueType )
 523:..\FreeRTOS\Source/queue.c ****     {
 524:..\FreeRTOS\Source/queue.c ****         QueueHandle_t xNewQueue;
 525:..\FreeRTOS\Source/queue.c ****         const UBaseType_t uxMutexLength = ( UBaseType_t ) 1, uxMutexSize = ( UBaseType_t ) 0;
 526:..\FreeRTOS\Source/queue.c **** 
 527:..\FreeRTOS\Source/queue.c ****         xNewQueue = xQueueGenericCreate( uxMutexLength, uxMutexSize, ucQueueType );
 528:..\FreeRTOS\Source/queue.c ****         prvInitialiseMutex( ( Queue_t * ) xNewQueue );
 529:..\FreeRTOS\Source/queue.c **** 
 530:..\FreeRTOS\Source/queue.c ****         return xNewQueue;
 531:..\FreeRTOS\Source/queue.c ****     }
 532:..\FreeRTOS\Source/queue.c **** 
 533:..\FreeRTOS\Source/queue.c **** #endif /* configUSE_MUTEXES */
 534:..\FreeRTOS\Source/queue.c **** /*-----------------------------------------------------------*/
 535:..\FreeRTOS\Source/queue.c **** 
 536:..\FreeRTOS\Source/queue.c **** #if ( ( configUSE_MUTEXES == 1 ) && ( configSUPPORT_STATIC_ALLOCATION == 1 ) )
 537:..\FreeRTOS\Source/queue.c **** 
 538:..\FreeRTOS\Source/queue.c ****     QueueHandle_t xQueueCreateMutexStatic( const uint8_t ucQueueType,
 539:..\FreeRTOS\Source/queue.c ****                                            StaticQueue_t * pxStaticQueue )
 540:..\FreeRTOS\Source/queue.c ****     {
 541:..\FreeRTOS\Source/queue.c ****         QueueHandle_t xNewQueue;
 542:..\FreeRTOS\Source/queue.c ****         const UBaseType_t uxMutexLength = ( UBaseType_t ) 1, uxMutexSize = ( UBaseType_t ) 0;
 543:..\FreeRTOS\Source/queue.c **** 
 544:..\FreeRTOS\Source/queue.c ****         /* Prevent compiler warnings about unused parameters if
 545:..\FreeRTOS\Source/queue.c ****          * configUSE_TRACE_FACILITY does not equal 1. */
 546:..\FreeRTOS\Source/queue.c ****         ( void ) ucQueueType;
 547:..\FreeRTOS\Source/queue.c **** 
 548:..\FreeRTOS\Source/queue.c ****         xNewQueue = xQueueGenericCreateStatic( uxMutexLength, uxMutexSize, NULL, pxStaticQueue, ucQ
 549:..\FreeRTOS\Source/queue.c ****         prvInitialiseMutex( ( Queue_t * ) xNewQueue );
 550:..\FreeRTOS\Source/queue.c **** 
 551:..\FreeRTOS\Source/queue.c ****         return xNewQueue;
 552:..\FreeRTOS\Source/queue.c ****     }
 553:..\FreeRTOS\Source/queue.c **** 
 554:..\FreeRTOS\Source/queue.c **** #endif /* configUSE_MUTEXES */
 555:..\FreeRTOS\Source/queue.c **** /*-----------------------------------------------------------*/
 556:..\FreeRTOS\Source/queue.c **** 
 557:..\FreeRTOS\Source/queue.c **** #if ( ( configUSE_MUTEXES == 1 ) && ( INCLUDE_xSemaphoreGetMutexHolder == 1 ) )
 558:..\FreeRTOS\Source/queue.c **** 
 559:..\FreeRTOS\Source/queue.c ****     TaskHandle_t xQueueGetMutexHolder( QueueHandle_t xSemaphore )
 560:..\FreeRTOS\Source/queue.c ****     {
 561:..\FreeRTOS\Source/queue.c ****         TaskHandle_t pxReturn;
 562:..\FreeRTOS\Source/queue.c ****         Queue_t * const pxSemaphore = ( Queue_t * ) xSemaphore;
 563:..\FreeRTOS\Source/queue.c **** 
 564:..\FreeRTOS\Source/queue.c ****         /* This function is called by xSemaphoreGetMutexHolder(), and should not
 565:..\FreeRTOS\Source/queue.c ****          * be called directly.  Note:  This is a good way of determining if the
 566:..\FreeRTOS\Source/queue.c ****          * calling task is the mutex holder, but not a good way of determining the
 567:..\FreeRTOS\Source/queue.c ****          * identity of the mutex holder, as the holder may change between the
 568:..\FreeRTOS\Source/queue.c ****          * following critical section exiting and the function returning. */
 569:..\FreeRTOS\Source/queue.c ****         taskENTER_CRITICAL();
ARM GAS  C:\Users\Jason\AppData\Local\Temp\ccMsFGiZ.s 			page 20


 570:..\FreeRTOS\Source/queue.c ****         {
 571:..\FreeRTOS\Source/queue.c ****             if( pxSemaphore->uxQueueType == queueQUEUE_IS_MUTEX )
 572:..\FreeRTOS\Source/queue.c ****             {
 573:..\FreeRTOS\Source/queue.c ****                 pxReturn = pxSemaphore->u.xSemaphore.xMutexHolder;
 574:..\FreeRTOS\Source/queue.c ****             }
 575:..\FreeRTOS\Source/queue.c ****             else
 576:..\FreeRTOS\Source/queue.c ****             {
 577:..\FreeRTOS\Source/queue.c ****                 pxReturn = NULL;
 578:..\FreeRTOS\Source/queue.c ****             }
 579:..\FreeRTOS\Source/queue.c ****         }
 580:..\FreeRTOS\Source/queue.c ****         taskEXIT_CRITICAL();
 581:..\FreeRTOS\Source/queue.c **** 
 582:..\FreeRTOS\Source/queue.c ****         return pxReturn;
 583:..\FreeRTOS\Source/queue.c ****     } /*lint !e818 xSemaphore cannot be a pointer to const because it is a typedef. */
 584:..\FreeRTOS\Source/queue.c **** 
 585:..\FreeRTOS\Source/queue.c **** #endif /* if ( ( configUSE_MUTEXES == 1 ) && ( INCLUDE_xSemaphoreGetMutexHolder == 1 ) ) */
 586:..\FreeRTOS\Source/queue.c **** /*-----------------------------------------------------------*/
 587:..\FreeRTOS\Source/queue.c **** 
 588:..\FreeRTOS\Source/queue.c **** #if ( ( configUSE_MUTEXES == 1 ) && ( INCLUDE_xSemaphoreGetMutexHolder == 1 ) )
 589:..\FreeRTOS\Source/queue.c **** 
 590:..\FreeRTOS\Source/queue.c ****     TaskHandle_t xQueueGetMutexHolderFromISR( QueueHandle_t xSemaphore )
 591:..\FreeRTOS\Source/queue.c ****     {
 592:..\FreeRTOS\Source/queue.c ****         TaskHandle_t pxReturn;
 593:..\FreeRTOS\Source/queue.c **** 
 594:..\FreeRTOS\Source/queue.c ****         configASSERT( xSemaphore );
 595:..\FreeRTOS\Source/queue.c **** 
 596:..\FreeRTOS\Source/queue.c ****         /* Mutexes cannot be used in interrupt service routines, so the mutex
 597:..\FreeRTOS\Source/queue.c ****          * holder should not change in an ISR, and therefore a critical section is
 598:..\FreeRTOS\Source/queue.c ****          * not required here. */
 599:..\FreeRTOS\Source/queue.c ****         if( ( ( Queue_t * ) xSemaphore )->uxQueueType == queueQUEUE_IS_MUTEX )
 600:..\FreeRTOS\Source/queue.c ****         {
 601:..\FreeRTOS\Source/queue.c ****             pxReturn = ( ( Queue_t * ) xSemaphore )->u.xSemaphore.xMutexHolder;
 602:..\FreeRTOS\Source/queue.c ****         }
 603:..\FreeRTOS\Source/queue.c ****         else
 604:..\FreeRTOS\Source/queue.c ****         {
 605:..\FreeRTOS\Source/queue.c ****             pxReturn = NULL;
 606:..\FreeRTOS\Source/queue.c ****         }
 607:..\FreeRTOS\Source/queue.c **** 
 608:..\FreeRTOS\Source/queue.c ****         return pxReturn;
 609:..\FreeRTOS\Source/queue.c ****     } /*lint !e818 xSemaphore cannot be a pointer to const because it is a typedef. */
 610:..\FreeRTOS\Source/queue.c **** 
 611:..\FreeRTOS\Source/queue.c **** #endif /* if ( ( configUSE_MUTEXES == 1 ) && ( INCLUDE_xSemaphoreGetMutexHolder == 1 ) ) */
 612:..\FreeRTOS\Source/queue.c **** /*-----------------------------------------------------------*/
 613:..\FreeRTOS\Source/queue.c **** 
 614:..\FreeRTOS\Source/queue.c **** #if ( configUSE_RECURSIVE_MUTEXES == 1 )
 615:..\FreeRTOS\Source/queue.c **** 
 616:..\FreeRTOS\Source/queue.c ****     BaseType_t xQueueGiveMutexRecursive( QueueHandle_t xMutex )
 617:..\FreeRTOS\Source/queue.c ****     {
 618:..\FreeRTOS\Source/queue.c ****         BaseType_t xReturn;
 619:..\FreeRTOS\Source/queue.c ****         Queue_t * const pxMutex = ( Queue_t * ) xMutex;
 620:..\FreeRTOS\Source/queue.c **** 
 621:..\FreeRTOS\Source/queue.c ****         configASSERT( pxMutex );
 622:..\FreeRTOS\Source/queue.c **** 
 623:..\FreeRTOS\Source/queue.c ****         /* If this is the task that holds the mutex then xMutexHolder will not
 624:..\FreeRTOS\Source/queue.c ****          * change outside of this task.  If this task does not hold the mutex then
 625:..\FreeRTOS\Source/queue.c ****          * pxMutexHolder can never coincidentally equal the tasks handle, and as
 626:..\FreeRTOS\Source/queue.c ****          * this is the only condition we are interested in it does not matter if
ARM GAS  C:\Users\Jason\AppData\Local\Temp\ccMsFGiZ.s 			page 21


 627:..\FreeRTOS\Source/queue.c ****          * pxMutexHolder is accessed simultaneously by another task.  Therefore no
 628:..\FreeRTOS\Source/queue.c ****          * mutual exclusion is required to test the pxMutexHolder variable. */
 629:..\FreeRTOS\Source/queue.c ****         if( pxMutex->u.xSemaphore.xMutexHolder == xTaskGetCurrentTaskHandle() )
 630:..\FreeRTOS\Source/queue.c ****         {
 631:..\FreeRTOS\Source/queue.c ****             traceGIVE_MUTEX_RECURSIVE( pxMutex );
 632:..\FreeRTOS\Source/queue.c **** 
 633:..\FreeRTOS\Source/queue.c ****             /* uxRecursiveCallCount cannot be zero if xMutexHolder is equal to
 634:..\FreeRTOS\Source/queue.c ****              * the task handle, therefore no underflow check is required.  Also,
 635:..\FreeRTOS\Source/queue.c ****              * uxRecursiveCallCount is only modified by the mutex holder, and as
 636:..\FreeRTOS\Source/queue.c ****              * there can only be one, no mutual exclusion is required to modify the
 637:..\FreeRTOS\Source/queue.c ****              * uxRecursiveCallCount member. */
 638:..\FreeRTOS\Source/queue.c ****             ( pxMutex->u.xSemaphore.uxRecursiveCallCount )--;
 639:..\FreeRTOS\Source/queue.c **** 
 640:..\FreeRTOS\Source/queue.c ****             /* Has the recursive call count unwound to 0? */
 641:..\FreeRTOS\Source/queue.c ****             if( pxMutex->u.xSemaphore.uxRecursiveCallCount == ( UBaseType_t ) 0 )
 642:..\FreeRTOS\Source/queue.c ****             {
 643:..\FreeRTOS\Source/queue.c ****                 /* Return the mutex.  This will automatically unblock any other
 644:..\FreeRTOS\Source/queue.c ****                  * task that might be waiting to access the mutex. */
 645:..\FreeRTOS\Source/queue.c ****                 ( void ) xQueueGenericSend( pxMutex, NULL, queueMUTEX_GIVE_BLOCK_TIME, queueSEND_TO
 646:..\FreeRTOS\Source/queue.c ****             }
 647:..\FreeRTOS\Source/queue.c ****             else
 648:..\FreeRTOS\Source/queue.c ****             {
 649:..\FreeRTOS\Source/queue.c ****                 mtCOVERAGE_TEST_MARKER();
 650:..\FreeRTOS\Source/queue.c ****             }
 651:..\FreeRTOS\Source/queue.c **** 
 652:..\FreeRTOS\Source/queue.c ****             xReturn = pdPASS;
 653:..\FreeRTOS\Source/queue.c ****         }
 654:..\FreeRTOS\Source/queue.c ****         else
 655:..\FreeRTOS\Source/queue.c ****         {
 656:..\FreeRTOS\Source/queue.c ****             /* The mutex cannot be given because the calling task is not the
 657:..\FreeRTOS\Source/queue.c ****              * holder. */
 658:..\FreeRTOS\Source/queue.c ****             xReturn = pdFAIL;
 659:..\FreeRTOS\Source/queue.c **** 
 660:..\FreeRTOS\Source/queue.c ****             traceGIVE_MUTEX_RECURSIVE_FAILED( pxMutex );
 661:..\FreeRTOS\Source/queue.c ****         }
 662:..\FreeRTOS\Source/queue.c **** 
 663:..\FreeRTOS\Source/queue.c ****         return xReturn;
 664:..\FreeRTOS\Source/queue.c ****     }
 665:..\FreeRTOS\Source/queue.c **** 
 666:..\FreeRTOS\Source/queue.c **** #endif /* configUSE_RECURSIVE_MUTEXES */
 667:..\FreeRTOS\Source/queue.c **** /*-----------------------------------------------------------*/
 668:..\FreeRTOS\Source/queue.c **** 
 669:..\FreeRTOS\Source/queue.c **** #if ( configUSE_RECURSIVE_MUTEXES == 1 )
 670:..\FreeRTOS\Source/queue.c **** 
 671:..\FreeRTOS\Source/queue.c ****     BaseType_t xQueueTakeMutexRecursive( QueueHandle_t xMutex,
 672:..\FreeRTOS\Source/queue.c ****                                          TickType_t xTicksToWait )
 673:..\FreeRTOS\Source/queue.c ****     {
 674:..\FreeRTOS\Source/queue.c ****         BaseType_t xReturn;
 675:..\FreeRTOS\Source/queue.c ****         Queue_t * const pxMutex = ( Queue_t * ) xMutex;
 676:..\FreeRTOS\Source/queue.c **** 
 677:..\FreeRTOS\Source/queue.c ****         configASSERT( pxMutex );
 678:..\FreeRTOS\Source/queue.c **** 
 679:..\FreeRTOS\Source/queue.c ****         /* Comments regarding mutual exclusion as per those within
 680:..\FreeRTOS\Source/queue.c ****          * xQueueGiveMutexRecursive(). */
 681:..\FreeRTOS\Source/queue.c **** 
 682:..\FreeRTOS\Source/queue.c ****         traceTAKE_MUTEX_RECURSIVE( pxMutex );
 683:..\FreeRTOS\Source/queue.c **** 
ARM GAS  C:\Users\Jason\AppData\Local\Temp\ccMsFGiZ.s 			page 22


 684:..\FreeRTOS\Source/queue.c ****         if( pxMutex->u.xSemaphore.xMutexHolder == xTaskGetCurrentTaskHandle() )
 685:..\FreeRTOS\Source/queue.c ****         {
 686:..\FreeRTOS\Source/queue.c ****             ( pxMutex->u.xSemaphore.uxRecursiveCallCount )++;
 687:..\FreeRTOS\Source/queue.c ****             xReturn = pdPASS;
 688:..\FreeRTOS\Source/queue.c ****         }
 689:..\FreeRTOS\Source/queue.c ****         else
 690:..\FreeRTOS\Source/queue.c ****         {
 691:..\FreeRTOS\Source/queue.c ****             xReturn = xQueueSemaphoreTake( pxMutex, xTicksToWait );
 692:..\FreeRTOS\Source/queue.c **** 
 693:..\FreeRTOS\Source/queue.c ****             /* pdPASS will only be returned if the mutex was successfully
 694:..\FreeRTOS\Source/queue.c ****              * obtained.  The calling task may have entered the Blocked state
 695:..\FreeRTOS\Source/queue.c ****              * before reaching here. */
 696:..\FreeRTOS\Source/queue.c ****             if( xReturn != pdFAIL )
 697:..\FreeRTOS\Source/queue.c ****             {
 698:..\FreeRTOS\Source/queue.c ****                 ( pxMutex->u.xSemaphore.uxRecursiveCallCount )++;
 699:..\FreeRTOS\Source/queue.c ****             }
 700:..\FreeRTOS\Source/queue.c ****             else
 701:..\FreeRTOS\Source/queue.c ****             {
 702:..\FreeRTOS\Source/queue.c ****                 traceTAKE_MUTEX_RECURSIVE_FAILED( pxMutex );
 703:..\FreeRTOS\Source/queue.c ****             }
 704:..\FreeRTOS\Source/queue.c ****         }
 705:..\FreeRTOS\Source/queue.c **** 
 706:..\FreeRTOS\Source/queue.c ****         return xReturn;
 707:..\FreeRTOS\Source/queue.c ****     }
 708:..\FreeRTOS\Source/queue.c **** 
 709:..\FreeRTOS\Source/queue.c **** #endif /* configUSE_RECURSIVE_MUTEXES */
 710:..\FreeRTOS\Source/queue.c **** /*-----------------------------------------------------------*/
 711:..\FreeRTOS\Source/queue.c **** 
 712:..\FreeRTOS\Source/queue.c **** #if ( ( configUSE_COUNTING_SEMAPHORES == 1 ) && ( configSUPPORT_STATIC_ALLOCATION == 1 ) )
 713:..\FreeRTOS\Source/queue.c **** 
 714:..\FreeRTOS\Source/queue.c ****     QueueHandle_t xQueueCreateCountingSemaphoreStatic( const UBaseType_t uxMaxCount,
 715:..\FreeRTOS\Source/queue.c ****                                                        const UBaseType_t uxInitialCount,
 716:..\FreeRTOS\Source/queue.c ****                                                        StaticQueue_t * pxStaticQueue )
 717:..\FreeRTOS\Source/queue.c ****     {
 718:..\FreeRTOS\Source/queue.c ****         QueueHandle_t xHandle;
 719:..\FreeRTOS\Source/queue.c **** 
 720:..\FreeRTOS\Source/queue.c ****         configASSERT( uxMaxCount != 0 );
 721:..\FreeRTOS\Source/queue.c ****         configASSERT( uxInitialCount <= uxMaxCount );
 722:..\FreeRTOS\Source/queue.c **** 
 723:..\FreeRTOS\Source/queue.c ****         xHandle = xQueueGenericCreateStatic( uxMaxCount, queueSEMAPHORE_QUEUE_ITEM_LENGTH, NULL, px
 724:..\FreeRTOS\Source/queue.c **** 
 725:..\FreeRTOS\Source/queue.c ****         if( xHandle != NULL )
 726:..\FreeRTOS\Source/queue.c ****         {
 727:..\FreeRTOS\Source/queue.c ****             ( ( Queue_t * ) xHandle )->uxMessagesWaiting = uxInitialCount;
 728:..\FreeRTOS\Source/queue.c **** 
 729:..\FreeRTOS\Source/queue.c ****             traceCREATE_COUNTING_SEMAPHORE();
 730:..\FreeRTOS\Source/queue.c ****         }
 731:..\FreeRTOS\Source/queue.c ****         else
 732:..\FreeRTOS\Source/queue.c ****         {
 733:..\FreeRTOS\Source/queue.c ****             traceCREATE_COUNTING_SEMAPHORE_FAILED();
 734:..\FreeRTOS\Source/queue.c ****         }
 735:..\FreeRTOS\Source/queue.c **** 
 736:..\FreeRTOS\Source/queue.c ****         return xHandle;
 737:..\FreeRTOS\Source/queue.c ****     }
 738:..\FreeRTOS\Source/queue.c **** 
 739:..\FreeRTOS\Source/queue.c **** #endif /* ( ( configUSE_COUNTING_SEMAPHORES == 1 ) && ( configSUPPORT_DYNAMIC_ALLOCATION == 1 ) ) *
 740:..\FreeRTOS\Source/queue.c **** /*-----------------------------------------------------------*/
ARM GAS  C:\Users\Jason\AppData\Local\Temp\ccMsFGiZ.s 			page 23


 741:..\FreeRTOS\Source/queue.c **** 
 742:..\FreeRTOS\Source/queue.c **** #if ( ( configUSE_COUNTING_SEMAPHORES == 1 ) && ( configSUPPORT_DYNAMIC_ALLOCATION == 1 ) )
 743:..\FreeRTOS\Source/queue.c **** 
 744:..\FreeRTOS\Source/queue.c ****     QueueHandle_t xQueueCreateCountingSemaphore( const UBaseType_t uxMaxCount,
 745:..\FreeRTOS\Source/queue.c ****                                                  const UBaseType_t uxInitialCount )
 746:..\FreeRTOS\Source/queue.c ****     {
 747:..\FreeRTOS\Source/queue.c ****         QueueHandle_t xHandle;
 748:..\FreeRTOS\Source/queue.c **** 
 749:..\FreeRTOS\Source/queue.c ****         configASSERT( uxMaxCount != 0 );
 750:..\FreeRTOS\Source/queue.c ****         configASSERT( uxInitialCount <= uxMaxCount );
 751:..\FreeRTOS\Source/queue.c **** 
 752:..\FreeRTOS\Source/queue.c ****         xHandle = xQueueGenericCreate( uxMaxCount, queueSEMAPHORE_QUEUE_ITEM_LENGTH, queueQUEUE_TYP
 753:..\FreeRTOS\Source/queue.c **** 
 754:..\FreeRTOS\Source/queue.c ****         if( xHandle != NULL )
 755:..\FreeRTOS\Source/queue.c ****         {
 756:..\FreeRTOS\Source/queue.c ****             ( ( Queue_t * ) xHandle )->uxMessagesWaiting = uxInitialCount;
 757:..\FreeRTOS\Source/queue.c **** 
 758:..\FreeRTOS\Source/queue.c ****             traceCREATE_COUNTING_SEMAPHORE();
 759:..\FreeRTOS\Source/queue.c ****         }
 760:..\FreeRTOS\Source/queue.c ****         else
 761:..\FreeRTOS\Source/queue.c ****         {
 762:..\FreeRTOS\Source/queue.c ****             traceCREATE_COUNTING_SEMAPHORE_FAILED();
 763:..\FreeRTOS\Source/queue.c ****         }
 764:..\FreeRTOS\Source/queue.c **** 
 765:..\FreeRTOS\Source/queue.c ****         return xHandle;
 766:..\FreeRTOS\Source/queue.c ****     }
 767:..\FreeRTOS\Source/queue.c **** 
 768:..\FreeRTOS\Source/queue.c **** #endif /* ( ( configUSE_COUNTING_SEMAPHORES == 1 ) && ( configSUPPORT_DYNAMIC_ALLOCATION == 1 ) ) *
 769:..\FreeRTOS\Source/queue.c **** /*-----------------------------------------------------------*/
 770:..\FreeRTOS\Source/queue.c **** 
 771:..\FreeRTOS\Source/queue.c **** BaseType_t xQueueGenericSend( QueueHandle_t xQueue,
 772:..\FreeRTOS\Source/queue.c ****                               const void * const pvItemToQueue,
 773:..\FreeRTOS\Source/queue.c ****                               TickType_t xTicksToWait,
 774:..\FreeRTOS\Source/queue.c ****                               const BaseType_t xCopyPosition )
 775:..\FreeRTOS\Source/queue.c **** {
 515              		.loc 1 775 0
 516              		.cfi_startproc
 517              		@ args = 0, pretend = 0, frame = 40
 518              		@ frame_needed = 1, uses_anonymous_args = 0
 519 0000 80B5     		push	{r7, lr}
 520              		.cfi_def_cfa_offset 8
 521              		.cfi_offset 7, -8
 522              		.cfi_offset 14, -4
 523 0002 8AB0     		sub	sp, sp, #40
 524              		.cfi_def_cfa_offset 48
 525 0004 00AF     		add	r7, sp, #0
 526              		.cfi_def_cfa_register 7
 527 0006 F860     		str	r0, [r7, #12]
 528 0008 B960     		str	r1, [r7, #8]
 529 000a 7A60     		str	r2, [r7, #4]
 530 000c 3B60     		str	r3, [r7]
 776:..\FreeRTOS\Source/queue.c ****     BaseType_t xEntryTimeSet = pdFALSE, xYieldRequired;
 531              		.loc 1 776 0
 532 000e 0023     		movs	r3, #0
 533 0010 7B62     		str	r3, [r7, #36]
 777:..\FreeRTOS\Source/queue.c ****     TimeOut_t xTimeOut;
 778:..\FreeRTOS\Source/queue.c ****     Queue_t * const pxQueue = xQueue;
ARM GAS  C:\Users\Jason\AppData\Local\Temp\ccMsFGiZ.s 			page 24


 534              		.loc 1 778 0
 535 0012 FB68     		ldr	r3, [r7, #12]
 536 0014 3B62     		str	r3, [r7, #32]
 779:..\FreeRTOS\Source/queue.c **** 
 780:..\FreeRTOS\Source/queue.c ****     configASSERT( pxQueue );
 537              		.loc 1 780 0
 538 0016 554B     		ldr	r3, .L82
 539 0018 1B88     		ldrh	r3, [r3]
 540 001a 002B     		cmp	r3, #0
 541 001c 01D1     		bne	.L48
 542              		.loc 1 780 0 is_stmt 0 discriminator 1
 543              		.syntax divided
 544              	@ 780 "..\FreeRTOS\Source\queue.c" 1
 545 001e 72B6     		 cpsid i 
 546              	@ 0 "" 2
 547              		.thumb
 548              		.syntax unified
 549              	.L49:
 550 0020 FEE7     		b	.L49
 551              	.L48:
 781:..\FreeRTOS\Source/queue.c ****     configASSERT( !( ( pvItemToQueue == NULL ) && ( pxQueue->uxItemSize != ( UBaseType_t ) 0U ) ) )
 552              		.loc 1 781 0 is_stmt 1
 553 0022 524B     		ldr	r3, .L82
 554 0024 1B88     		ldrh	r3, [r3]
 555 0026 002B     		cmp	r3, #0
 556 0028 01D1     		bne	.L50
 557              		.loc 1 781 0 is_stmt 0 discriminator 1
 558              		.syntax divided
 559              	@ 781 "..\FreeRTOS\Source\queue.c" 1
 560 002a 72B6     		 cpsid i 
 561              	@ 0 "" 2
 562              		.thumb
 563              		.syntax unified
 564              	.L51:
 565              		.loc 1 781 0 discriminator 2
 566 002c FEE7     		b	.L51
 567              	.L50:
 568 002e BB68     		ldr	r3, [r7, #8]
 569 0030 C046     		nop
 782:..\FreeRTOS\Source/queue.c ****     configASSERT( !( ( xCopyPosition == queueOVERWRITE ) && ( pxQueue->uxLength != 1 ) ) );
 570              		.loc 1 782 0 is_stmt 1 discriminator 2
 571 0032 4E4B     		ldr	r3, .L82
 572 0034 1B88     		ldrh	r3, [r3]
 573 0036 002B     		cmp	r3, #0
 574 0038 01D1     		bne	.L55
 575              		.loc 1 782 0 is_stmt 0 discriminator 1
 576              		.syntax divided
 577              	@ 782 "..\FreeRTOS\Source\queue.c" 1
 578 003a 72B6     		 cpsid i 
 579              	@ 0 "" 2
 580              		.thumb
 581              		.syntax unified
 582              	.L56:
 583              		.loc 1 782 0 discriminator 3
 584 003c FEE7     		b	.L56
 585              	.L55:
 586              		.loc 1 782 0 discriminator 2
ARM GAS  C:\Users\Jason\AppData\Local\Temp\ccMsFGiZ.s 			page 25


 587 003e 3B68     		ldr	r3, [r7]
 588 0040 C046     		nop
 783:..\FreeRTOS\Source/queue.c ****     #if ( ( INCLUDE_xTaskGetSchedulerState == 1 ) || ( configUSE_TIMERS == 1 ) )
 784:..\FreeRTOS\Source/queue.c ****         {
 785:..\FreeRTOS\Source/queue.c ****             configASSERT( !( ( xTaskGetSchedulerState() == taskSCHEDULER_SUSPENDED ) && ( xTicksToW
 589              		.loc 1 785 0 is_stmt 1 discriminator 2
 590 0042 4A4B     		ldr	r3, .L82
 591 0044 1B88     		ldrh	r3, [r3]
 592 0046 002B     		cmp	r3, #0
 593 0048 01D1     		bne	.L60
 594              		.loc 1 785 0 is_stmt 0 discriminator 1
 595              		.syntax divided
 596              	@ 785 "..\FreeRTOS\Source\queue.c" 1
 597 004a 72B6     		 cpsid i 
 598              	@ 0 "" 2
 599              		.thumb
 600              		.syntax unified
 601              	.L61:
 602              		.loc 1 785 0 discriminator 4
 603 004c FEE7     		b	.L61
 604              	.L60:
 605              		.loc 1 785 0 discriminator 2
 606 004e FFF7FEFF 		bl	xTaskGetSchedulerState
 607 0052 031E     		subs	r3, r0, #0
 608 0054 00D1     		bne	.L64
 609              		.loc 1 785 0 discriminator 4
 610 0056 7B68     		ldr	r3, [r7, #4]
 611              	.L64:
 786:..\FreeRTOS\Source/queue.c ****         }
 787:..\FreeRTOS\Source/queue.c ****     #endif
 788:..\FreeRTOS\Source/queue.c **** 
 789:..\FreeRTOS\Source/queue.c ****     /*lint -save -e904 This function relaxes the coding standard somewhat to
 790:..\FreeRTOS\Source/queue.c ****      * allow return statements within the function itself.  This is done in the
 791:..\FreeRTOS\Source/queue.c ****      * interest of execution time efficiency. */
 792:..\FreeRTOS\Source/queue.c ****     for( ; ; )
 793:..\FreeRTOS\Source/queue.c ****     {
 794:..\FreeRTOS\Source/queue.c ****         taskENTER_CRITICAL();
 612              		.loc 1 794 0 is_stmt 1
 613 0058 FFF7FEFF 		bl	vPortEnterCritical
 795:..\FreeRTOS\Source/queue.c ****         {
 796:..\FreeRTOS\Source/queue.c ****             /* Is there room on the queue now?  The running task must be the
 797:..\FreeRTOS\Source/queue.c ****              * highest priority task wanting to access the queue.  If the head item
 798:..\FreeRTOS\Source/queue.c ****              * in the queue is to be overwritten then it does not matter if the
 799:..\FreeRTOS\Source/queue.c ****              * queue is full. */
 800:..\FreeRTOS\Source/queue.c ****             if( ( pxQueue->uxMessagesWaiting < pxQueue->uxLength ) || ( xCopyPosition == queueOVERW
 614              		.loc 1 800 0
 615 005c 3B6A     		ldr	r3, [r7, #32]
 616 005e 9A6B     		ldr	r2, [r3, #56]
 617 0060 3B6A     		ldr	r3, [r7, #32]
 618 0062 DB6B     		ldr	r3, [r3, #60]
 619 0064 9A42     		cmp	r2, r3
 620 0066 02D3     		bcc	.L65
 621              		.loc 1 800 0 is_stmt 0 discriminator 1
 622 0068 3B68     		ldr	r3, [r7]
 623 006a 022B     		cmp	r3, #2
 624 006c 1ED1     		bne	.L66
 625              	.L65:
ARM GAS  C:\Users\Jason\AppData\Local\Temp\ccMsFGiZ.s 			page 26


 801:..\FreeRTOS\Source/queue.c ****             {
 802:..\FreeRTOS\Source/queue.c ****                 traceQUEUE_SEND( pxQueue );
 803:..\FreeRTOS\Source/queue.c **** 
 804:..\FreeRTOS\Source/queue.c ****                 #if ( configUSE_QUEUE_SETS == 1 )
 805:..\FreeRTOS\Source/queue.c ****                     {
 806:..\FreeRTOS\Source/queue.c ****                         const UBaseType_t uxPreviousMessagesWaiting = pxQueue->uxMessagesWaiting;
 807:..\FreeRTOS\Source/queue.c **** 
 808:..\FreeRTOS\Source/queue.c ****                         xYieldRequired = prvCopyDataToQueue( pxQueue, pvItemToQueue, xCopyPosition 
 809:..\FreeRTOS\Source/queue.c **** 
 810:..\FreeRTOS\Source/queue.c ****                         if( pxQueue->pxQueueSetContainer != NULL )
 811:..\FreeRTOS\Source/queue.c ****                         {
 812:..\FreeRTOS\Source/queue.c ****                             if( ( xCopyPosition == queueOVERWRITE ) && ( uxPreviousMessagesWaiting 
 813:..\FreeRTOS\Source/queue.c ****                             {
 814:..\FreeRTOS\Source/queue.c ****                                 /* Do not notify the queue set as an existing item
 815:..\FreeRTOS\Source/queue.c ****                                  * was overwritten in the queue so the number of items
 816:..\FreeRTOS\Source/queue.c ****                                  * in the queue has not changed. */
 817:..\FreeRTOS\Source/queue.c ****                                 mtCOVERAGE_TEST_MARKER();
 818:..\FreeRTOS\Source/queue.c ****                             }
 819:..\FreeRTOS\Source/queue.c ****                             else if( prvNotifyQueueSetContainer( pxQueue ) != pdFALSE )
 820:..\FreeRTOS\Source/queue.c ****                             {
 821:..\FreeRTOS\Source/queue.c ****                                 /* The queue is a member of a queue set, and posting
 822:..\FreeRTOS\Source/queue.c ****                                  * to the queue set caused a higher priority task to
 823:..\FreeRTOS\Source/queue.c ****                                  * unblock. A context switch is required. */
 824:..\FreeRTOS\Source/queue.c ****                                 queueYIELD_IF_USING_PREEMPTION();
 825:..\FreeRTOS\Source/queue.c ****                             }
 826:..\FreeRTOS\Source/queue.c ****                             else
 827:..\FreeRTOS\Source/queue.c ****                             {
 828:..\FreeRTOS\Source/queue.c ****                                 mtCOVERAGE_TEST_MARKER();
 829:..\FreeRTOS\Source/queue.c ****                             }
 830:..\FreeRTOS\Source/queue.c ****                         }
 831:..\FreeRTOS\Source/queue.c ****                         else
 832:..\FreeRTOS\Source/queue.c ****                         {
 833:..\FreeRTOS\Source/queue.c ****                             /* If there was a task waiting for data to arrive on the
 834:..\FreeRTOS\Source/queue.c ****                              * queue then unblock it now. */
 835:..\FreeRTOS\Source/queue.c ****                             if( listLIST_IS_EMPTY( &( pxQueue->xTasksWaitingToReceive ) ) == pdFALS
 836:..\FreeRTOS\Source/queue.c ****                             {
 837:..\FreeRTOS\Source/queue.c ****                                 if( xTaskRemoveFromEventList( &( pxQueue->xTasksWaitingToReceive ) 
 838:..\FreeRTOS\Source/queue.c ****                                 {
 839:..\FreeRTOS\Source/queue.c ****                                     /* The unblocked task has a priority higher than
 840:..\FreeRTOS\Source/queue.c ****                                      * our own so yield immediately.  Yes it is ok to
 841:..\FreeRTOS\Source/queue.c ****                                      * do this from within the critical section - the
 842:..\FreeRTOS\Source/queue.c ****                                      * kernel takes care of that. */
 843:..\FreeRTOS\Source/queue.c ****                                     queueYIELD_IF_USING_PREEMPTION();
 844:..\FreeRTOS\Source/queue.c ****                                 }
 845:..\FreeRTOS\Source/queue.c ****                                 else
 846:..\FreeRTOS\Source/queue.c ****                                 {
 847:..\FreeRTOS\Source/queue.c ****                                     mtCOVERAGE_TEST_MARKER();
 848:..\FreeRTOS\Source/queue.c ****                                 }
 849:..\FreeRTOS\Source/queue.c ****                             }
 850:..\FreeRTOS\Source/queue.c ****                             else if( xYieldRequired != pdFALSE )
 851:..\FreeRTOS\Source/queue.c ****                             {
 852:..\FreeRTOS\Source/queue.c ****                                 /* This path is a special case that will only get
 853:..\FreeRTOS\Source/queue.c ****                                  * executed if the task was holding multiple mutexes
 854:..\FreeRTOS\Source/queue.c ****                                  * and the mutexes were given back in an order that is
 855:..\FreeRTOS\Source/queue.c ****                                  * different to that in which they were taken. */
 856:..\FreeRTOS\Source/queue.c ****                                 queueYIELD_IF_USING_PREEMPTION();
 857:..\FreeRTOS\Source/queue.c ****                             }
ARM GAS  C:\Users\Jason\AppData\Local\Temp\ccMsFGiZ.s 			page 27


 858:..\FreeRTOS\Source/queue.c ****                             else
 859:..\FreeRTOS\Source/queue.c ****                             {
 860:..\FreeRTOS\Source/queue.c ****                                 mtCOVERAGE_TEST_MARKER();
 861:..\FreeRTOS\Source/queue.c ****                             }
 862:..\FreeRTOS\Source/queue.c ****                         }
 863:..\FreeRTOS\Source/queue.c ****                     }
 864:..\FreeRTOS\Source/queue.c ****                 #else /* configUSE_QUEUE_SETS */
 865:..\FreeRTOS\Source/queue.c ****                     {
 866:..\FreeRTOS\Source/queue.c ****                         xYieldRequired = prvCopyDataToQueue( pxQueue, pvItemToQueue, xCopyPosition 
 626              		.loc 1 866 0 is_stmt 1
 627 006e 3A68     		ldr	r2, [r7]
 628 0070 B968     		ldr	r1, [r7, #8]
 629 0072 3B6A     		ldr	r3, [r7, #32]
 630 0074 1800     		movs	r0, r3
 631 0076 FFF7FEFF 		bl	prvCopyDataToQueue
 632 007a 0300     		movs	r3, r0
 633 007c FB61     		str	r3, [r7, #28]
 867:..\FreeRTOS\Source/queue.c **** 
 868:..\FreeRTOS\Source/queue.c ****                         /* If there was a task waiting for data to arrive on the
 869:..\FreeRTOS\Source/queue.c ****                          * queue then unblock it now. */
 870:..\FreeRTOS\Source/queue.c ****                         if( listLIST_IS_EMPTY( &( pxQueue->xTasksWaitingToReceive ) ) == pdFALSE )
 634              		.loc 1 870 0
 635 007e 3B6A     		ldr	r3, [r7, #32]
 636 0080 5B6A     		ldr	r3, [r3, #36]
 637 0082 002B     		cmp	r3, #0
 638 0084 09D0     		beq	.L67
 871:..\FreeRTOS\Source/queue.c ****                         {
 872:..\FreeRTOS\Source/queue.c ****                             if( xTaskRemoveFromEventList( &( pxQueue->xTasksWaitingToReceive ) ) !=
 639              		.loc 1 872 0
 640 0086 3B6A     		ldr	r3, [r7, #32]
 641 0088 2433     		adds	r3, r3, #36
 642 008a 1800     		movs	r0, r3
 643 008c FFF7FEFF 		bl	xTaskRemoveFromEventList
 644 0090 031E     		subs	r3, r0, #0
 645 0092 07D0     		beq	.L68
 873:..\FreeRTOS\Source/queue.c ****                             {
 874:..\FreeRTOS\Source/queue.c ****                                 /* The unblocked task has a priority higher than
 875:..\FreeRTOS\Source/queue.c ****                                  * our own so yield immediately.  Yes it is ok to do
 876:..\FreeRTOS\Source/queue.c ****                                  * this from within the critical section - the kernel
 877:..\FreeRTOS\Source/queue.c ****                                  * takes care of that. */
 878:..\FreeRTOS\Source/queue.c ****                                 queueYIELD_IF_USING_PREEMPTION();
 646              		.loc 1 878 0
 647 0094 FFF7FEFF 		bl	vPortYield
 648 0098 04E0     		b	.L68
 649              	.L67:
 879:..\FreeRTOS\Source/queue.c ****                             }
 880:..\FreeRTOS\Source/queue.c ****                             else
 881:..\FreeRTOS\Source/queue.c ****                             {
 882:..\FreeRTOS\Source/queue.c ****                                 mtCOVERAGE_TEST_MARKER();
 883:..\FreeRTOS\Source/queue.c ****                             }
 884:..\FreeRTOS\Source/queue.c ****                         }
 885:..\FreeRTOS\Source/queue.c ****                         else if( xYieldRequired != pdFALSE )
 650              		.loc 1 885 0
 651 009a FB69     		ldr	r3, [r7, #28]
 652 009c 002B     		cmp	r3, #0
 653 009e 01D0     		beq	.L68
 886:..\FreeRTOS\Source/queue.c ****                         {
ARM GAS  C:\Users\Jason\AppData\Local\Temp\ccMsFGiZ.s 			page 28


 887:..\FreeRTOS\Source/queue.c ****                             /* This path is a special case that will only get
 888:..\FreeRTOS\Source/queue.c ****                              * executed if the task was holding multiple mutexes and
 889:..\FreeRTOS\Source/queue.c ****                              * the mutexes were given back in an order that is
 890:..\FreeRTOS\Source/queue.c ****                              * different to that in which they were taken. */
 891:..\FreeRTOS\Source/queue.c ****                             queueYIELD_IF_USING_PREEMPTION();
 654              		.loc 1 891 0
 655 00a0 FFF7FEFF 		bl	vPortYield
 656              	.L68:
 892:..\FreeRTOS\Source/queue.c ****                         }
 893:..\FreeRTOS\Source/queue.c ****                         else
 894:..\FreeRTOS\Source/queue.c ****                         {
 895:..\FreeRTOS\Source/queue.c ****                             mtCOVERAGE_TEST_MARKER();
 896:..\FreeRTOS\Source/queue.c ****                         }
 897:..\FreeRTOS\Source/queue.c ****                     }
 898:..\FreeRTOS\Source/queue.c ****                 #endif /* configUSE_QUEUE_SETS */
 899:..\FreeRTOS\Source/queue.c **** 
 900:..\FreeRTOS\Source/queue.c ****                 taskEXIT_CRITICAL();
 657              		.loc 1 900 0
 658 00a4 FFF7FEFF 		bl	vPortExitCritical
 901:..\FreeRTOS\Source/queue.c ****                 return pdPASS;
 659              		.loc 1 901 0
 660 00a8 0123     		movs	r3, #1
 661 00aa 5BE0     		b	.L79
 662              	.L66:
 902:..\FreeRTOS\Source/queue.c ****             }
 903:..\FreeRTOS\Source/queue.c ****             else
 904:..\FreeRTOS\Source/queue.c ****             {
 905:..\FreeRTOS\Source/queue.c ****                 if( xTicksToWait == ( TickType_t ) 0 )
 663              		.loc 1 905 0
 664 00ac 7B68     		ldr	r3, [r7, #4]
 665 00ae 002B     		cmp	r3, #0
 666 00b0 03D1     		bne	.L70
 906:..\FreeRTOS\Source/queue.c ****                 {
 907:..\FreeRTOS\Source/queue.c ****                     /* The queue was full and no block time is specified (or
 908:..\FreeRTOS\Source/queue.c ****                      * the block time has expired) so leave now. */
 909:..\FreeRTOS\Source/queue.c ****                     taskEXIT_CRITICAL();
 667              		.loc 1 909 0
 668 00b2 FFF7FEFF 		bl	vPortExitCritical
 910:..\FreeRTOS\Source/queue.c **** 
 911:..\FreeRTOS\Source/queue.c ****                     /* Return to the original privilege level before exiting
 912:..\FreeRTOS\Source/queue.c ****                      * the function. */
 913:..\FreeRTOS\Source/queue.c ****                     traceQUEUE_SEND_FAILED( pxQueue );
 914:..\FreeRTOS\Source/queue.c ****                     return errQUEUE_FULL;
 669              		.loc 1 914 0
 670 00b6 0023     		movs	r3, #0
 671 00b8 54E0     		b	.L79
 672              	.L70:
 915:..\FreeRTOS\Source/queue.c ****                 }
 916:..\FreeRTOS\Source/queue.c ****                 else if( xEntryTimeSet == pdFALSE )
 673              		.loc 1 916 0
 674 00ba 7B6A     		ldr	r3, [r7, #36]
 675 00bc 002B     		cmp	r3, #0
 676 00be 06D1     		bne	.L71
 917:..\FreeRTOS\Source/queue.c ****                 {
 918:..\FreeRTOS\Source/queue.c ****                     /* The queue was full and a block time was specified so
 919:..\FreeRTOS\Source/queue.c ****                      * configure the timeout structure. */
 920:..\FreeRTOS\Source/queue.c ****                     vTaskInternalSetTimeOutState( &xTimeOut );
ARM GAS  C:\Users\Jason\AppData\Local\Temp\ccMsFGiZ.s 			page 29


 677              		.loc 1 920 0
 678 00c0 1423     		movs	r3, #20
 679 00c2 FB18     		adds	r3, r7, r3
 680 00c4 1800     		movs	r0, r3
 681 00c6 FFF7FEFF 		bl	vTaskInternalSetTimeOutState
 921:..\FreeRTOS\Source/queue.c ****                     xEntryTimeSet = pdTRUE;
 682              		.loc 1 921 0
 683 00ca 0123     		movs	r3, #1
 684 00cc 7B62     		str	r3, [r7, #36]
 685              	.L71:
 922:..\FreeRTOS\Source/queue.c ****                 }
 923:..\FreeRTOS\Source/queue.c ****                 else
 924:..\FreeRTOS\Source/queue.c ****                 {
 925:..\FreeRTOS\Source/queue.c ****                     /* Entry time was already set. */
 926:..\FreeRTOS\Source/queue.c ****                     mtCOVERAGE_TEST_MARKER();
 927:..\FreeRTOS\Source/queue.c ****                 }
 928:..\FreeRTOS\Source/queue.c ****             }
 929:..\FreeRTOS\Source/queue.c ****         }
 930:..\FreeRTOS\Source/queue.c ****         taskEXIT_CRITICAL();
 686              		.loc 1 930 0
 687 00ce FFF7FEFF 		bl	vPortExitCritical
 931:..\FreeRTOS\Source/queue.c **** 
 932:..\FreeRTOS\Source/queue.c ****         /* Interrupts and other tasks can send to and receive from the queue
 933:..\FreeRTOS\Source/queue.c ****          * now the critical section has been exited. */
 934:..\FreeRTOS\Source/queue.c **** 
 935:..\FreeRTOS\Source/queue.c ****         vTaskSuspendAll();
 688              		.loc 1 935 0
 689 00d2 FFF7FEFF 		bl	vTaskSuspendAll
 936:..\FreeRTOS\Source/queue.c ****         prvLockQueue( pxQueue );
 690              		.loc 1 936 0
 691 00d6 FFF7FEFF 		bl	vPortEnterCritical
 692 00da 3B6A     		ldr	r3, [r7, #32]
 693 00dc 4422     		movs	r2, #68
 694 00de 9B5C     		ldrb	r3, [r3, r2]
 695 00e0 5BB2     		sxtb	r3, r3
 696 00e2 0133     		adds	r3, r3, #1
 697 00e4 03D1     		bne	.L72
 698              		.loc 1 936 0 is_stmt 0 discriminator 1
 699 00e6 3B6A     		ldr	r3, [r7, #32]
 700 00e8 4422     		movs	r2, #68
 701 00ea 0021     		movs	r1, #0
 702 00ec 9954     		strb	r1, [r3, r2]
 703              	.L72:
 704              		.loc 1 936 0 discriminator 3
 705 00ee 3B6A     		ldr	r3, [r7, #32]
 706 00f0 4522     		movs	r2, #69
 707 00f2 9B5C     		ldrb	r3, [r3, r2]
 708 00f4 5BB2     		sxtb	r3, r3
 709 00f6 0133     		adds	r3, r3, #1
 710 00f8 03D1     		bne	.L73
 711              		.loc 1 936 0 discriminator 4
 712 00fa 3B6A     		ldr	r3, [r7, #32]
 713 00fc 4522     		movs	r2, #69
 714 00fe 0021     		movs	r1, #0
 715 0100 9954     		strb	r1, [r3, r2]
 716              	.L73:
 717              		.loc 1 936 0 discriminator 6
ARM GAS  C:\Users\Jason\AppData\Local\Temp\ccMsFGiZ.s 			page 30


 718 0102 FFF7FEFF 		bl	vPortExitCritical
 937:..\FreeRTOS\Source/queue.c **** 
 938:..\FreeRTOS\Source/queue.c ****         /* Update the timeout state to see if it has expired yet. */
 939:..\FreeRTOS\Source/queue.c ****         if( xTaskCheckForTimeOut( &xTimeOut, &xTicksToWait ) == pdFALSE )
 719              		.loc 1 939 0 is_stmt 1 discriminator 6
 720 0106 3A1D     		adds	r2, r7, #4
 721 0108 1423     		movs	r3, #20
 722 010a FB18     		adds	r3, r7, r3
 723 010c 1100     		movs	r1, r2
 724 010e 1800     		movs	r0, r3
 725 0110 FFF7FEFF 		bl	xTaskCheckForTimeOut
 726 0114 031E     		subs	r3, r0, #0
 727 0116 1ED1     		bne	.L74
 940:..\FreeRTOS\Source/queue.c ****         {
 941:..\FreeRTOS\Source/queue.c ****             if( prvIsQueueFull( pxQueue ) != pdFALSE )
 728              		.loc 1 941 0
 729 0118 3B6A     		ldr	r3, [r7, #32]
 730 011a 1800     		movs	r0, r3
 731 011c FFF7FEFF 		bl	prvIsQueueFull
 732 0120 031E     		subs	r3, r0, #0
 733 0122 11D0     		beq	.L75
 942:..\FreeRTOS\Source/queue.c ****             {
 943:..\FreeRTOS\Source/queue.c ****                 traceBLOCKING_ON_QUEUE_SEND( pxQueue );
 944:..\FreeRTOS\Source/queue.c ****                 vTaskPlaceOnEventList( &( pxQueue->xTasksWaitingToSend ), xTicksToWait );
 734              		.loc 1 944 0
 735 0124 3B6A     		ldr	r3, [r7, #32]
 736 0126 1033     		adds	r3, r3, #16
 737 0128 7A68     		ldr	r2, [r7, #4]
 738 012a 1100     		movs	r1, r2
 739 012c 1800     		movs	r0, r3
 740 012e FFF7FEFF 		bl	vTaskPlaceOnEventList
 945:..\FreeRTOS\Source/queue.c **** 
 946:..\FreeRTOS\Source/queue.c ****                 /* Unlocking the queue means queue events can effect the
 947:..\FreeRTOS\Source/queue.c ****                  * event list.  It is possible that interrupts occurring now
 948:..\FreeRTOS\Source/queue.c ****                  * remove this task from the event list again - but as the
 949:..\FreeRTOS\Source/queue.c ****                  * scheduler is suspended the task will go onto the pending
 950:..\FreeRTOS\Source/queue.c ****                  * ready last instead of the actual ready list. */
 951:..\FreeRTOS\Source/queue.c ****                 prvUnlockQueue( pxQueue );
 741              		.loc 1 951 0
 742 0132 3B6A     		ldr	r3, [r7, #32]
 743 0134 1800     		movs	r0, r3
 744 0136 FFF7FEFF 		bl	prvUnlockQueue
 952:..\FreeRTOS\Source/queue.c **** 
 953:..\FreeRTOS\Source/queue.c ****                 /* Resuming the scheduler will move tasks from the pending
 954:..\FreeRTOS\Source/queue.c ****                  * ready list into the ready list - so it is feasible that this
 955:..\FreeRTOS\Source/queue.c ****                  * task is already in a ready list before it yields - in which
 956:..\FreeRTOS\Source/queue.c ****                  * case the yield will not cause a context switch unless there
 957:..\FreeRTOS\Source/queue.c ****                  * is also a higher priority task in the pending ready list. */
 958:..\FreeRTOS\Source/queue.c ****                 if( xTaskResumeAll() == pdFALSE )
 745              		.loc 1 958 0
 746 013a FFF7FEFF 		bl	xTaskResumeAll
 747 013e 031E     		subs	r3, r0, #0
 748 0140 8AD1     		bne	.L64
 959:..\FreeRTOS\Source/queue.c ****                 {
 960:..\FreeRTOS\Source/queue.c ****                     portYIELD_WITHIN_API();
 749              		.loc 1 960 0
 750 0142 FFF7FEFF 		bl	vPortYield
ARM GAS  C:\Users\Jason\AppData\Local\Temp\ccMsFGiZ.s 			page 31


 751 0146 87E7     		b	.L64
 752              	.L75:
 961:..\FreeRTOS\Source/queue.c ****                 }
 962:..\FreeRTOS\Source/queue.c ****             }
 963:..\FreeRTOS\Source/queue.c ****             else
 964:..\FreeRTOS\Source/queue.c ****             {
 965:..\FreeRTOS\Source/queue.c ****                 /* Try again. */
 966:..\FreeRTOS\Source/queue.c ****                 prvUnlockQueue( pxQueue );
 753              		.loc 1 966 0
 754 0148 3B6A     		ldr	r3, [r7, #32]
 755 014a 1800     		movs	r0, r3
 756 014c FFF7FEFF 		bl	prvUnlockQueue
 967:..\FreeRTOS\Source/queue.c ****                 ( void ) xTaskResumeAll();
 757              		.loc 1 967 0
 758 0150 FFF7FEFF 		bl	xTaskResumeAll
 759 0154 80E7     		b	.L64
 760              	.L74:
 968:..\FreeRTOS\Source/queue.c ****             }
 969:..\FreeRTOS\Source/queue.c ****         }
 970:..\FreeRTOS\Source/queue.c ****         else
 971:..\FreeRTOS\Source/queue.c ****         {
 972:..\FreeRTOS\Source/queue.c ****             /* The timeout has expired. */
 973:..\FreeRTOS\Source/queue.c ****             prvUnlockQueue( pxQueue );
 761              		.loc 1 973 0
 762 0156 3B6A     		ldr	r3, [r7, #32]
 763 0158 1800     		movs	r0, r3
 764 015a FFF7FEFF 		bl	prvUnlockQueue
 974:..\FreeRTOS\Source/queue.c ****             ( void ) xTaskResumeAll();
 765              		.loc 1 974 0
 766 015e FFF7FEFF 		bl	xTaskResumeAll
 975:..\FreeRTOS\Source/queue.c **** 
 976:..\FreeRTOS\Source/queue.c ****             traceQUEUE_SEND_FAILED( pxQueue );
 977:..\FreeRTOS\Source/queue.c ****             return errQUEUE_FULL;
 767              		.loc 1 977 0
 768 0162 0023     		movs	r3, #0
 769              	.L79:
 978:..\FreeRTOS\Source/queue.c ****         }
 979:..\FreeRTOS\Source/queue.c ****     } /*lint -restore */
 980:..\FreeRTOS\Source/queue.c **** }
 770              		.loc 1 980 0 discriminator 7
 771 0164 1800     		movs	r0, r3
 772 0166 BD46     		mov	sp, r7
 773 0168 0AB0     		add	sp, sp, #40
 774              		@ sp needed
 775 016a 80BD     		pop	{r7, pc}
 776              	.L83:
 777              		.align	2
 778              	.L82:
 779 016c 00000000 		.word	x
 780              		.cfi_endproc
 781              	.LFE4:
 782              		.size	xQueueGenericSend, .-xQueueGenericSend
 783              		.section	.text.xQueueGenericSendFromISR,"ax",%progbits
 784              		.align	2
 785              		.global	xQueueGenericSendFromISR
 786              		.code	16
 787              		.thumb_func
ARM GAS  C:\Users\Jason\AppData\Local\Temp\ccMsFGiZ.s 			page 32


 788              		.type	xQueueGenericSendFromISR, %function
 789              	xQueueGenericSendFromISR:
 790              	.LFB5:
 981:..\FreeRTOS\Source/queue.c **** /*-----------------------------------------------------------*/
 982:..\FreeRTOS\Source/queue.c **** 
 983:..\FreeRTOS\Source/queue.c **** BaseType_t xQueueGenericSendFromISR( QueueHandle_t xQueue,
 984:..\FreeRTOS\Source/queue.c ****                                      const void * const pvItemToQueue,
 985:..\FreeRTOS\Source/queue.c ****                                      BaseType_t * const pxHigherPriorityTaskWoken,
 986:..\FreeRTOS\Source/queue.c ****                                      const BaseType_t xCopyPosition )
 987:..\FreeRTOS\Source/queue.c **** {
 791              		.loc 1 987 0
 792              		.cfi_startproc
 793              		@ args = 0, pretend = 0, frame = 40
 794              		@ frame_needed = 1, uses_anonymous_args = 0
 795 0000 80B5     		push	{r7, lr}
 796              		.cfi_def_cfa_offset 8
 797              		.cfi_offset 7, -8
 798              		.cfi_offset 14, -4
 799 0002 8AB0     		sub	sp, sp, #40
 800              		.cfi_def_cfa_offset 48
 801 0004 00AF     		add	r7, sp, #0
 802              		.cfi_def_cfa_register 7
 803 0006 F860     		str	r0, [r7, #12]
 804 0008 B960     		str	r1, [r7, #8]
 805 000a 7A60     		str	r2, [r7, #4]
 806 000c 3B60     		str	r3, [r7]
 988:..\FreeRTOS\Source/queue.c ****     BaseType_t xReturn;
 989:..\FreeRTOS\Source/queue.c ****     UBaseType_t uxSavedInterruptStatus;
 990:..\FreeRTOS\Source/queue.c ****     Queue_t * const pxQueue = xQueue;
 807              		.loc 1 990 0
 808 000e FB68     		ldr	r3, [r7, #12]
 809 0010 3B62     		str	r3, [r7, #32]
 991:..\FreeRTOS\Source/queue.c **** 
 992:..\FreeRTOS\Source/queue.c ****     configASSERT( pxQueue );
 810              		.loc 1 992 0
 811 0012 334B     		ldr	r3, .L107
 812 0014 1B88     		ldrh	r3, [r3]
 813 0016 002B     		cmp	r3, #0
 814 0018 01D1     		bne	.L85
 815              		.loc 1 992 0 is_stmt 0 discriminator 1
 816              		.syntax divided
 817              	@ 992 "..\FreeRTOS\Source\queue.c" 1
 818 001a 72B6     		 cpsid i 
 819              	@ 0 "" 2
 820              		.thumb
 821              		.syntax unified
 822              	.L86:
 823 001c FEE7     		b	.L86
 824              	.L85:
 993:..\FreeRTOS\Source/queue.c ****     configASSERT( !( ( pvItemToQueue == NULL ) && ( pxQueue->uxItemSize != ( UBaseType_t ) 0U ) ) )
 825              		.loc 1 993 0 is_stmt 1
 826 001e 304B     		ldr	r3, .L107
 827 0020 1B88     		ldrh	r3, [r3]
 828 0022 002B     		cmp	r3, #0
 829 0024 01D1     		bne	.L87
 830              		.loc 1 993 0 is_stmt 0 discriminator 1
 831              		.syntax divided
ARM GAS  C:\Users\Jason\AppData\Local\Temp\ccMsFGiZ.s 			page 33


 832              	@ 993 "..\FreeRTOS\Source\queue.c" 1
 833 0026 72B6     		 cpsid i 
 834              	@ 0 "" 2
 835              		.thumb
 836              		.syntax unified
 837              	.L88:
 838              		.loc 1 993 0 discriminator 2
 839 0028 FEE7     		b	.L88
 840              	.L87:
 841 002a BB68     		ldr	r3, [r7, #8]
 842 002c C046     		nop
 994:..\FreeRTOS\Source/queue.c ****     configASSERT( !( ( xCopyPosition == queueOVERWRITE ) && ( pxQueue->uxLength != 1 ) ) );
 843              		.loc 1 994 0 is_stmt 1 discriminator 2
 844 002e 2C4B     		ldr	r3, .L107
 845 0030 1B88     		ldrh	r3, [r3]
 846 0032 002B     		cmp	r3, #0
 847 0034 01D1     		bne	.L92
 848              		.loc 1 994 0 is_stmt 0 discriminator 1
 849              		.syntax divided
 850              	@ 994 "..\FreeRTOS\Source\queue.c" 1
 851 0036 72B6     		 cpsid i 
 852              	@ 0 "" 2
 853              		.thumb
 854              		.syntax unified
 855              	.L93:
 856              		.loc 1 994 0 discriminator 3
 857 0038 FEE7     		b	.L93
 858              	.L92:
 859              		.loc 1 994 0 discriminator 2
 860 003a 3B68     		ldr	r3, [r7]
 861 003c C046     		nop
 995:..\FreeRTOS\Source/queue.c **** 
 996:..\FreeRTOS\Source/queue.c ****     /* RTOS ports that support interrupt nesting have the concept of a maximum
 997:..\FreeRTOS\Source/queue.c ****      * system call (or maximum API call) interrupt priority.  Interrupts that are
 998:..\FreeRTOS\Source/queue.c ****      * above the maximum system call priority are kept permanently enabled, even
 999:..\FreeRTOS\Source/queue.c ****      * when the RTOS kernel is in a critical section, but cannot make any calls to
1000:..\FreeRTOS\Source/queue.c ****      * FreeRTOS API functions.  If configASSERT() is defined in FreeRTOSConfig.h
1001:..\FreeRTOS\Source/queue.c ****      * then portASSERT_IF_INTERRUPT_PRIORITY_INVALID() will result in an assertion
1002:..\FreeRTOS\Source/queue.c ****      * failure if a FreeRTOS API function is called from an interrupt that has been
1003:..\FreeRTOS\Source/queue.c ****      * assigned a priority above the configured maximum system call priority.
1004:..\FreeRTOS\Source/queue.c ****      * Only FreeRTOS functions that end in FromISR can be called from interrupts
1005:..\FreeRTOS\Source/queue.c ****      * that have been assigned a priority at or (logically) below the maximum
1006:..\FreeRTOS\Source/queue.c ****      * system call interrupt priority.  FreeRTOS maintains a separate interrupt
1007:..\FreeRTOS\Source/queue.c ****      * safe API to ensure interrupt entry is as fast and as simple as possible.
1008:..\FreeRTOS\Source/queue.c ****      * More information (albeit Cortex-M specific) is provided on the following
1009:..\FreeRTOS\Source/queue.c ****      * link: https://www.FreeRTOS.org/RTOS-Cortex-M3-M4.html */
1010:..\FreeRTOS\Source/queue.c ****     portASSERT_IF_INTERRUPT_PRIORITY_INVALID();
1011:..\FreeRTOS\Source/queue.c **** 
1012:..\FreeRTOS\Source/queue.c ****     /* Similar to xQueueGenericSend, except without blocking if there is no room
1013:..\FreeRTOS\Source/queue.c ****      * in the queue.  Also don't directly wake a task that was blocked on a queue
1014:..\FreeRTOS\Source/queue.c ****      * read, instead return a flag to say whether a context switch is required or
1015:..\FreeRTOS\Source/queue.c ****      * not (i.e. has a task with a higher priority than us been woken by this
1016:..\FreeRTOS\Source/queue.c ****      * post). */
1017:..\FreeRTOS\Source/queue.c ****     uxSavedInterruptStatus = portSET_INTERRUPT_MASK_FROM_ISR();
 862              		.loc 1 1017 0 is_stmt 1 discriminator 2
 863 003e FFF7FEFF 		bl	ulSetInterruptMaskFromISR
 864 0042 0300     		movs	r3, r0
ARM GAS  C:\Users\Jason\AppData\Local\Temp\ccMsFGiZ.s 			page 34


 865 0044 FB61     		str	r3, [r7, #28]
1018:..\FreeRTOS\Source/queue.c ****     {
1019:..\FreeRTOS\Source/queue.c ****         if( ( pxQueue->uxMessagesWaiting < pxQueue->uxLength ) || ( xCopyPosition == queueOVERWRITE
 866              		.loc 1 1019 0 discriminator 2
 867 0046 3B6A     		ldr	r3, [r7, #32]
 868 0048 9A6B     		ldr	r2, [r3, #56]
 869 004a 3B6A     		ldr	r3, [r7, #32]
 870 004c DB6B     		ldr	r3, [r3, #60]
 871 004e 9A42     		cmp	r2, r3
 872 0050 02D3     		bcc	.L97
 873              		.loc 1 1019 0 is_stmt 0 discriminator 1
 874 0052 3B68     		ldr	r3, [r7]
 875 0054 022B     		cmp	r3, #2
 876 0056 38D1     		bne	.L98
 877              	.L97:
 878              	.LBB3:
1020:..\FreeRTOS\Source/queue.c ****         {
1021:..\FreeRTOS\Source/queue.c ****             const int8_t cTxLock = pxQueue->cTxLock;
 879              		.loc 1 1021 0 is_stmt 1
 880 0058 1B23     		movs	r3, #27
 881 005a FB18     		adds	r3, r7, r3
 882 005c 3A6A     		ldr	r2, [r7, #32]
 883 005e 4521     		movs	r1, #69
 884 0060 525C     		ldrb	r2, [r2, r1]
 885 0062 1A70     		strb	r2, [r3]
1022:..\FreeRTOS\Source/queue.c ****             const UBaseType_t uxPreviousMessagesWaiting = pxQueue->uxMessagesWaiting;
 886              		.loc 1 1022 0
 887 0064 3B6A     		ldr	r3, [r7, #32]
 888 0066 9B6B     		ldr	r3, [r3, #56]
 889 0068 7B61     		str	r3, [r7, #20]
1023:..\FreeRTOS\Source/queue.c **** 
1024:..\FreeRTOS\Source/queue.c ****             traceQUEUE_SEND_FROM_ISR( pxQueue );
1025:..\FreeRTOS\Source/queue.c **** 
1026:..\FreeRTOS\Source/queue.c ****             /* Semaphores use xQueueGiveFromISR(), so pxQueue will not be a
1027:..\FreeRTOS\Source/queue.c ****              *  semaphore or mutex.  That means prvCopyDataToQueue() cannot result
1028:..\FreeRTOS\Source/queue.c ****              *  in a task disinheriting a priority and prvCopyDataToQueue() can be
1029:..\FreeRTOS\Source/queue.c ****              *  called here even though the disinherit function does not check if
1030:..\FreeRTOS\Source/queue.c ****              *  the scheduler is suspended before accessing the ready lists. */
1031:..\FreeRTOS\Source/queue.c ****             ( void ) prvCopyDataToQueue( pxQueue, pvItemToQueue, xCopyPosition );
 890              		.loc 1 1031 0
 891 006a 3A68     		ldr	r2, [r7]
 892 006c B968     		ldr	r1, [r7, #8]
 893 006e 3B6A     		ldr	r3, [r7, #32]
 894 0070 1800     		movs	r0, r3
 895 0072 FFF7FEFF 		bl	prvCopyDataToQueue
1032:..\FreeRTOS\Source/queue.c **** 
1033:..\FreeRTOS\Source/queue.c ****             /* The event list is not altered if the queue is locked.  This will
1034:..\FreeRTOS\Source/queue.c ****              * be done when the queue is unlocked later. */
1035:..\FreeRTOS\Source/queue.c ****             if( cTxLock == queueUNLOCKED )
 896              		.loc 1 1035 0
 897 0076 1B23     		movs	r3, #27
 898 0078 FB18     		adds	r3, r7, r3
 899 007a 1B78     		ldrb	r3, [r3]
 900 007c 5BB2     		sxtb	r3, r3
 901 007e 0133     		adds	r3, r3, #1
 902 0080 11D1     		bne	.L99
1036:..\FreeRTOS\Source/queue.c ****             {
ARM GAS  C:\Users\Jason\AppData\Local\Temp\ccMsFGiZ.s 			page 35


1037:..\FreeRTOS\Source/queue.c ****                 #if ( configUSE_QUEUE_SETS == 1 )
1038:..\FreeRTOS\Source/queue.c ****                     {
1039:..\FreeRTOS\Source/queue.c ****                         if( pxQueue->pxQueueSetContainer != NULL )
1040:..\FreeRTOS\Source/queue.c ****                         {
1041:..\FreeRTOS\Source/queue.c ****                             if( ( xCopyPosition == queueOVERWRITE ) && ( uxPreviousMessagesWaiting 
1042:..\FreeRTOS\Source/queue.c ****                             {
1043:..\FreeRTOS\Source/queue.c ****                                 /* Do not notify the queue set as an existing item
1044:..\FreeRTOS\Source/queue.c ****                                  * was overwritten in the queue so the number of items
1045:..\FreeRTOS\Source/queue.c ****                                  * in the queue has not changed. */
1046:..\FreeRTOS\Source/queue.c ****                                 mtCOVERAGE_TEST_MARKER();
1047:..\FreeRTOS\Source/queue.c ****                             }
1048:..\FreeRTOS\Source/queue.c ****                             else if( prvNotifyQueueSetContainer( pxQueue ) != pdFALSE )
1049:..\FreeRTOS\Source/queue.c ****                             {
1050:..\FreeRTOS\Source/queue.c ****                                 /* The queue is a member of a queue set, and posting
1051:..\FreeRTOS\Source/queue.c ****                                  * to the queue set caused a higher priority task to
1052:..\FreeRTOS\Source/queue.c ****                                  * unblock.  A context switch is required. */
1053:..\FreeRTOS\Source/queue.c ****                                 if( pxHigherPriorityTaskWoken != NULL )
1054:..\FreeRTOS\Source/queue.c ****                                 {
1055:..\FreeRTOS\Source/queue.c ****                                     *pxHigherPriorityTaskWoken = pdTRUE;
1056:..\FreeRTOS\Source/queue.c ****                                 }
1057:..\FreeRTOS\Source/queue.c ****                                 else
1058:..\FreeRTOS\Source/queue.c ****                                 {
1059:..\FreeRTOS\Source/queue.c ****                                     mtCOVERAGE_TEST_MARKER();
1060:..\FreeRTOS\Source/queue.c ****                                 }
1061:..\FreeRTOS\Source/queue.c ****                             }
1062:..\FreeRTOS\Source/queue.c ****                             else
1063:..\FreeRTOS\Source/queue.c ****                             {
1064:..\FreeRTOS\Source/queue.c ****                                 mtCOVERAGE_TEST_MARKER();
1065:..\FreeRTOS\Source/queue.c ****                             }
1066:..\FreeRTOS\Source/queue.c ****                         }
1067:..\FreeRTOS\Source/queue.c ****                         else
1068:..\FreeRTOS\Source/queue.c ****                         {
1069:..\FreeRTOS\Source/queue.c ****                             if( listLIST_IS_EMPTY( &( pxQueue->xTasksWaitingToReceive ) ) == pdFALS
1070:..\FreeRTOS\Source/queue.c ****                             {
1071:..\FreeRTOS\Source/queue.c ****                                 if( xTaskRemoveFromEventList( &( pxQueue->xTasksWaitingToReceive ) 
1072:..\FreeRTOS\Source/queue.c ****                                 {
1073:..\FreeRTOS\Source/queue.c ****                                     /* The task waiting has a higher priority so
1074:..\FreeRTOS\Source/queue.c ****                                      *  record that a context switch is required. */
1075:..\FreeRTOS\Source/queue.c ****                                     if( pxHigherPriorityTaskWoken != NULL )
1076:..\FreeRTOS\Source/queue.c ****                                     {
1077:..\FreeRTOS\Source/queue.c ****                                         *pxHigherPriorityTaskWoken = pdTRUE;
1078:..\FreeRTOS\Source/queue.c ****                                     }
1079:..\FreeRTOS\Source/queue.c ****                                     else
1080:..\FreeRTOS\Source/queue.c ****                                     {
1081:..\FreeRTOS\Source/queue.c ****                                         mtCOVERAGE_TEST_MARKER();
1082:..\FreeRTOS\Source/queue.c ****                                     }
1083:..\FreeRTOS\Source/queue.c ****                                 }
1084:..\FreeRTOS\Source/queue.c ****                                 else
1085:..\FreeRTOS\Source/queue.c ****                                 {
1086:..\FreeRTOS\Source/queue.c ****                                     mtCOVERAGE_TEST_MARKER();
1087:..\FreeRTOS\Source/queue.c ****                                 }
1088:..\FreeRTOS\Source/queue.c ****                             }
1089:..\FreeRTOS\Source/queue.c ****                             else
1090:..\FreeRTOS\Source/queue.c ****                             {
1091:..\FreeRTOS\Source/queue.c ****                                 mtCOVERAGE_TEST_MARKER();
1092:..\FreeRTOS\Source/queue.c ****                             }
1093:..\FreeRTOS\Source/queue.c ****                         }
ARM GAS  C:\Users\Jason\AppData\Local\Temp\ccMsFGiZ.s 			page 36


1094:..\FreeRTOS\Source/queue.c ****                     }
1095:..\FreeRTOS\Source/queue.c ****                 #else /* configUSE_QUEUE_SETS */
1096:..\FreeRTOS\Source/queue.c ****                     {
1097:..\FreeRTOS\Source/queue.c ****                         if( listLIST_IS_EMPTY( &( pxQueue->xTasksWaitingToReceive ) ) == pdFALSE )
 903              		.loc 1 1097 0
 904 0082 3B6A     		ldr	r3, [r7, #32]
 905 0084 5B6A     		ldr	r3, [r3, #36]
 906 0086 002B     		cmp	r3, #0
 907 0088 1CD0     		beq	.L100
1098:..\FreeRTOS\Source/queue.c ****                         {
1099:..\FreeRTOS\Source/queue.c ****                             if( xTaskRemoveFromEventList( &( pxQueue->xTasksWaitingToReceive ) ) !=
 908              		.loc 1 1099 0
 909 008a 3B6A     		ldr	r3, [r7, #32]
 910 008c 2433     		adds	r3, r3, #36
 911 008e 1800     		movs	r0, r3
 912 0090 FFF7FEFF 		bl	xTaskRemoveFromEventList
 913 0094 031E     		subs	r3, r0, #0
 914 0096 15D0     		beq	.L100
1100:..\FreeRTOS\Source/queue.c ****                             {
1101:..\FreeRTOS\Source/queue.c ****                                 /* The task waiting has a higher priority so record that a
1102:..\FreeRTOS\Source/queue.c ****                                  * context switch is required. */
1103:..\FreeRTOS\Source/queue.c ****                                 if( pxHigherPriorityTaskWoken != NULL )
 915              		.loc 1 1103 0
 916 0098 7B68     		ldr	r3, [r7, #4]
 917 009a 002B     		cmp	r3, #0
 918 009c 12D0     		beq	.L100
1104:..\FreeRTOS\Source/queue.c ****                                 {
1105:..\FreeRTOS\Source/queue.c ****                                     *pxHigherPriorityTaskWoken = pdTRUE;
 919              		.loc 1 1105 0
 920 009e 7B68     		ldr	r3, [r7, #4]
 921 00a0 0122     		movs	r2, #1
 922 00a2 1A60     		str	r2, [r3]
 923 00a4 0EE0     		b	.L100
 924              	.L99:
1106:..\FreeRTOS\Source/queue.c ****                                 }
1107:..\FreeRTOS\Source/queue.c ****                                 else
1108:..\FreeRTOS\Source/queue.c ****                                 {
1109:..\FreeRTOS\Source/queue.c ****                                     mtCOVERAGE_TEST_MARKER();
1110:..\FreeRTOS\Source/queue.c ****                                 }
1111:..\FreeRTOS\Source/queue.c ****                             }
1112:..\FreeRTOS\Source/queue.c ****                             else
1113:..\FreeRTOS\Source/queue.c ****                             {
1114:..\FreeRTOS\Source/queue.c ****                                 mtCOVERAGE_TEST_MARKER();
1115:..\FreeRTOS\Source/queue.c ****                             }
1116:..\FreeRTOS\Source/queue.c ****                         }
1117:..\FreeRTOS\Source/queue.c ****                         else
1118:..\FreeRTOS\Source/queue.c ****                         {
1119:..\FreeRTOS\Source/queue.c ****                             mtCOVERAGE_TEST_MARKER();
1120:..\FreeRTOS\Source/queue.c ****                         }
1121:..\FreeRTOS\Source/queue.c **** 
1122:..\FreeRTOS\Source/queue.c ****                         /* Not used in this path. */
1123:..\FreeRTOS\Source/queue.c ****                         ( void ) uxPreviousMessagesWaiting;
1124:..\FreeRTOS\Source/queue.c ****                     }
1125:..\FreeRTOS\Source/queue.c ****                 #endif /* configUSE_QUEUE_SETS */
1126:..\FreeRTOS\Source/queue.c ****             }
1127:..\FreeRTOS\Source/queue.c ****             else
1128:..\FreeRTOS\Source/queue.c ****             {
ARM GAS  C:\Users\Jason\AppData\Local\Temp\ccMsFGiZ.s 			page 37


1129:..\FreeRTOS\Source/queue.c ****                 /* Increment the lock count so the task that unlocks the queue
1130:..\FreeRTOS\Source/queue.c ****                  * knows that data was posted while it was locked. */
1131:..\FreeRTOS\Source/queue.c ****                 configASSERT( cTxLock != queueINT8_MAX );
 925              		.loc 1 1131 0
 926 00a6 0E4B     		ldr	r3, .L107
 927 00a8 1B88     		ldrh	r3, [r3]
 928 00aa 002B     		cmp	r3, #0
 929 00ac 01D1     		bne	.L101
 930              		.loc 1 1131 0 is_stmt 0 discriminator 1
 931              		.syntax divided
 932              	@ 1131 "..\FreeRTOS\Source\queue.c" 1
 933 00ae 72B6     		 cpsid i 
 934              	@ 0 "" 2
 935              		.thumb
 936              		.syntax unified
 937              	.L102:
 938              		.loc 1 1131 0 discriminator 6
 939 00b0 FEE7     		b	.L102
 940              	.L101:
1132:..\FreeRTOS\Source/queue.c **** 
1133:..\FreeRTOS\Source/queue.c ****                 pxQueue->cTxLock = ( int8_t ) ( cTxLock + 1 );
 941              		.loc 1 1133 0 is_stmt 1
 942 00b2 1B23     		movs	r3, #27
 943 00b4 FB18     		adds	r3, r7, r3
 944 00b6 1B78     		ldrb	r3, [r3]
 945 00b8 0133     		adds	r3, r3, #1
 946 00ba DBB2     		uxtb	r3, r3
 947 00bc 59B2     		sxtb	r1, r3
 948 00be 3B6A     		ldr	r3, [r7, #32]
 949 00c0 4522     		movs	r2, #69
 950 00c2 9954     		strb	r1, [r3, r2]
 951              	.L100:
1134:..\FreeRTOS\Source/queue.c ****             }
1135:..\FreeRTOS\Source/queue.c **** 
1136:..\FreeRTOS\Source/queue.c ****             xReturn = pdPASS;
 952              		.loc 1 1136 0
 953 00c4 0123     		movs	r3, #1
 954 00c6 7B62     		str	r3, [r7, #36]
 955              	.LBE3:
1020:..\FreeRTOS\Source/queue.c ****             const int8_t cTxLock = pxQueue->cTxLock;
 956              		.loc 1 1020 0
 957 00c8 01E0     		b	.L103
 958              	.L98:
1137:..\FreeRTOS\Source/queue.c ****         }
1138:..\FreeRTOS\Source/queue.c ****         else
1139:..\FreeRTOS\Source/queue.c ****         {
1140:..\FreeRTOS\Source/queue.c ****             traceQUEUE_SEND_FROM_ISR_FAILED( pxQueue );
1141:..\FreeRTOS\Source/queue.c ****             xReturn = errQUEUE_FULL;
 959              		.loc 1 1141 0
 960 00ca 0023     		movs	r3, #0
 961 00cc 7B62     		str	r3, [r7, #36]
 962              	.L103:
1142:..\FreeRTOS\Source/queue.c ****         }
1143:..\FreeRTOS\Source/queue.c ****     }
1144:..\FreeRTOS\Source/queue.c ****     portCLEAR_INTERRUPT_MASK_FROM_ISR( uxSavedInterruptStatus );
 963              		.loc 1 1144 0
 964 00ce FB69     		ldr	r3, [r7, #28]
ARM GAS  C:\Users\Jason\AppData\Local\Temp\ccMsFGiZ.s 			page 38


 965 00d0 1800     		movs	r0, r3
 966 00d2 FFF7FEFF 		bl	vClearInterruptMaskFromISR
1145:..\FreeRTOS\Source/queue.c **** 
1146:..\FreeRTOS\Source/queue.c ****     return xReturn;
 967              		.loc 1 1146 0
 968 00d6 7B6A     		ldr	r3, [r7, #36]
1147:..\FreeRTOS\Source/queue.c **** }
 969              		.loc 1 1147 0
 970 00d8 1800     		movs	r0, r3
 971 00da BD46     		mov	sp, r7
 972 00dc 0AB0     		add	sp, sp, #40
 973              		@ sp needed
 974 00de 80BD     		pop	{r7, pc}
 975              	.L108:
 976              		.align	2
 977              	.L107:
 978 00e0 00000000 		.word	x
 979              		.cfi_endproc
 980              	.LFE5:
 981              		.size	xQueueGenericSendFromISR, .-xQueueGenericSendFromISR
 982              		.section	.text.xQueueGiveFromISR,"ax",%progbits
 983              		.align	2
 984              		.global	xQueueGiveFromISR
 985              		.code	16
 986              		.thumb_func
 987              		.type	xQueueGiveFromISR, %function
 988              	xQueueGiveFromISR:
 989              	.LFB6:
1148:..\FreeRTOS\Source/queue.c **** /*-----------------------------------------------------------*/
1149:..\FreeRTOS\Source/queue.c **** 
1150:..\FreeRTOS\Source/queue.c **** BaseType_t xQueueGiveFromISR( QueueHandle_t xQueue,
1151:..\FreeRTOS\Source/queue.c ****                               BaseType_t * const pxHigherPriorityTaskWoken )
1152:..\FreeRTOS\Source/queue.c **** {
 990              		.loc 1 1152 0
 991              		.cfi_startproc
 992              		@ args = 0, pretend = 0, frame = 32
 993              		@ frame_needed = 1, uses_anonymous_args = 0
 994 0000 80B5     		push	{r7, lr}
 995              		.cfi_def_cfa_offset 8
 996              		.cfi_offset 7, -8
 997              		.cfi_offset 14, -4
 998 0002 88B0     		sub	sp, sp, #32
 999              		.cfi_def_cfa_offset 40
 1000 0004 00AF     		add	r7, sp, #0
 1001              		.cfi_def_cfa_register 7
 1002 0006 7860     		str	r0, [r7, #4]
 1003 0008 3960     		str	r1, [r7]
1153:..\FreeRTOS\Source/queue.c ****     BaseType_t xReturn;
1154:..\FreeRTOS\Source/queue.c ****     UBaseType_t uxSavedInterruptStatus;
1155:..\FreeRTOS\Source/queue.c ****     Queue_t * const pxQueue = xQueue;
 1004              		.loc 1 1155 0
 1005 000a 7B68     		ldr	r3, [r7, #4]
 1006 000c BB61     		str	r3, [r7, #24]
1156:..\FreeRTOS\Source/queue.c **** 
1157:..\FreeRTOS\Source/queue.c ****     /* Similar to xQueueGenericSendFromISR() but used with semaphores where the
1158:..\FreeRTOS\Source/queue.c ****      * item size is 0.  Don't directly wake a task that was blocked on a queue
1159:..\FreeRTOS\Source/queue.c ****      * read, instead return a flag to say whether a context switch is required or
ARM GAS  C:\Users\Jason\AppData\Local\Temp\ccMsFGiZ.s 			page 39


1160:..\FreeRTOS\Source/queue.c ****      * not (i.e. has a task with a higher priority than us been woken by this
1161:..\FreeRTOS\Source/queue.c ****      * post). */
1162:..\FreeRTOS\Source/queue.c **** 
1163:..\FreeRTOS\Source/queue.c ****     configASSERT( pxQueue );
 1007              		.loc 1 1163 0
 1008 000e 304B     		ldr	r3, .L127
 1009 0010 1B88     		ldrh	r3, [r3]
 1010 0012 002B     		cmp	r3, #0
 1011 0014 01D1     		bne	.L110
 1012              		.loc 1 1163 0 is_stmt 0 discriminator 1
 1013              		.syntax divided
 1014              	@ 1163 "..\FreeRTOS\Source\queue.c" 1
 1015 0016 72B6     		 cpsid i 
 1016              	@ 0 "" 2
 1017              		.thumb
 1018              		.syntax unified
 1019              	.L111:
 1020 0018 FEE7     		b	.L111
 1021              	.L110:
1164:..\FreeRTOS\Source/queue.c **** 
1165:..\FreeRTOS\Source/queue.c ****     /* xQueueGenericSendFromISR() should be used instead of xQueueGiveFromISR()
1166:..\FreeRTOS\Source/queue.c ****      * if the item size is not 0. */
1167:..\FreeRTOS\Source/queue.c ****     configASSERT( pxQueue->uxItemSize == 0 );
 1022              		.loc 1 1167 0 is_stmt 1
 1023 001a 2D4B     		ldr	r3, .L127
 1024 001c 1B88     		ldrh	r3, [r3]
 1025 001e 002B     		cmp	r3, #0
 1026 0020 01D1     		bne	.L112
 1027              		.loc 1 1167 0 is_stmt 0 discriminator 1
 1028              		.syntax divided
 1029              	@ 1167 "..\FreeRTOS\Source\queue.c" 1
 1030 0022 72B6     		 cpsid i 
 1031              	@ 0 "" 2
 1032              		.thumb
 1033              		.syntax unified
 1034              	.L113:
 1035              		.loc 1 1167 0 discriminator 2
 1036 0024 FEE7     		b	.L113
 1037              	.L112:
1168:..\FreeRTOS\Source/queue.c **** 
1169:..\FreeRTOS\Source/queue.c ****     /* Normally a mutex would not be given from an interrupt, especially if
1170:..\FreeRTOS\Source/queue.c ****      * there is a mutex holder, as priority inheritance makes no sense for an
1171:..\FreeRTOS\Source/queue.c ****      * interrupts, only tasks. */
1172:..\FreeRTOS\Source/queue.c ****     configASSERT( !( ( pxQueue->uxQueueType == queueQUEUE_IS_MUTEX ) && ( pxQueue->u.xSemaphore.xMu
 1038              		.loc 1 1172 0 is_stmt 1 discriminator 2
 1039 0026 2A4B     		ldr	r3, .L127
 1040 0028 1B88     		ldrh	r3, [r3]
 1041 002a 002B     		cmp	r3, #0
 1042 002c 01D1     		bne	.L114
 1043              		.loc 1 1172 0 is_stmt 0 discriminator 1
 1044              		.syntax divided
 1045              	@ 1172 "..\FreeRTOS\Source\queue.c" 1
 1046 002e 72B6     		 cpsid i 
 1047              	@ 0 "" 2
 1048              		.thumb
 1049              		.syntax unified
 1050              	.L115:
ARM GAS  C:\Users\Jason\AppData\Local\Temp\ccMsFGiZ.s 			page 40


 1051              		.loc 1 1172 0 discriminator 3
 1052 0030 FEE7     		b	.L115
 1053              	.L114:
 1054              		.loc 1 1172 0 discriminator 2
 1055 0032 BB69     		ldr	r3, [r7, #24]
 1056 0034 1B68     		ldr	r3, [r3]
 1057 0036 C046     		nop
1173:..\FreeRTOS\Source/queue.c **** 
1174:..\FreeRTOS\Source/queue.c ****     /* RTOS ports that support interrupt nesting have the concept of a maximum
1175:..\FreeRTOS\Source/queue.c ****      * system call (or maximum API call) interrupt priority.  Interrupts that are
1176:..\FreeRTOS\Source/queue.c ****      * above the maximum system call priority are kept permanently enabled, even
1177:..\FreeRTOS\Source/queue.c ****      * when the RTOS kernel is in a critical section, but cannot make any calls to
1178:..\FreeRTOS\Source/queue.c ****      * FreeRTOS API functions.  If configASSERT() is defined in FreeRTOSConfig.h
1179:..\FreeRTOS\Source/queue.c ****      * then portASSERT_IF_INTERRUPT_PRIORITY_INVALID() will result in an assertion
1180:..\FreeRTOS\Source/queue.c ****      * failure if a FreeRTOS API function is called from an interrupt that has been
1181:..\FreeRTOS\Source/queue.c ****      * assigned a priority above the configured maximum system call priority.
1182:..\FreeRTOS\Source/queue.c ****      * Only FreeRTOS functions that end in FromISR can be called from interrupts
1183:..\FreeRTOS\Source/queue.c ****      * that have been assigned a priority at or (logically) below the maximum
1184:..\FreeRTOS\Source/queue.c ****      * system call interrupt priority.  FreeRTOS maintains a separate interrupt
1185:..\FreeRTOS\Source/queue.c ****      * safe API to ensure interrupt entry is as fast and as simple as possible.
1186:..\FreeRTOS\Source/queue.c ****      * More information (albeit Cortex-M specific) is provided on the following
1187:..\FreeRTOS\Source/queue.c ****      * link: https://www.FreeRTOS.org/RTOS-Cortex-M3-M4.html */
1188:..\FreeRTOS\Source/queue.c ****     portASSERT_IF_INTERRUPT_PRIORITY_INVALID();
1189:..\FreeRTOS\Source/queue.c **** 
1190:..\FreeRTOS\Source/queue.c ****     uxSavedInterruptStatus = portSET_INTERRUPT_MASK_FROM_ISR();
 1058              		.loc 1 1190 0 is_stmt 1 discriminator 2
 1059 0038 FFF7FEFF 		bl	ulSetInterruptMaskFromISR
 1060 003c 0300     		movs	r3, r0
 1061 003e 7B61     		str	r3, [r7, #20]
 1062              	.LBB4:
1191:..\FreeRTOS\Source/queue.c ****     {
1192:..\FreeRTOS\Source/queue.c ****         const UBaseType_t uxMessagesWaiting = pxQueue->uxMessagesWaiting;
 1063              		.loc 1 1192 0 discriminator 2
 1064 0040 BB69     		ldr	r3, [r7, #24]
 1065 0042 9B6B     		ldr	r3, [r3, #56]
 1066 0044 3B61     		str	r3, [r7, #16]
1193:..\FreeRTOS\Source/queue.c **** 
1194:..\FreeRTOS\Source/queue.c ****         /* When the queue is used to implement a semaphore no data is ever
1195:..\FreeRTOS\Source/queue.c ****          * moved through the queue but it is still valid to see if the queue 'has
1196:..\FreeRTOS\Source/queue.c ****          * space'. */
1197:..\FreeRTOS\Source/queue.c ****         if( uxMessagesWaiting < pxQueue->uxLength )
 1067              		.loc 1 1197 0 discriminator 2
 1068 0046 BB69     		ldr	r3, [r7, #24]
 1069 0048 DA6B     		ldr	r2, [r3, #60]
 1070 004a 3B69     		ldr	r3, [r7, #16]
 1071 004c 9A42     		cmp	r2, r3
 1072 004e 33D9     		bls	.L119
 1073              	.LBB5:
1198:..\FreeRTOS\Source/queue.c ****         {
1199:..\FreeRTOS\Source/queue.c ****             const int8_t cTxLock = pxQueue->cTxLock;
 1074              		.loc 1 1199 0
 1075 0050 0F23     		movs	r3, #15
 1076 0052 FB18     		adds	r3, r7, r3
 1077 0054 BA69     		ldr	r2, [r7, #24]
 1078 0056 4521     		movs	r1, #69
 1079 0058 525C     		ldrb	r2, [r2, r1]
 1080 005a 1A70     		strb	r2, [r3]
ARM GAS  C:\Users\Jason\AppData\Local\Temp\ccMsFGiZ.s 			page 41


1200:..\FreeRTOS\Source/queue.c **** 
1201:..\FreeRTOS\Source/queue.c ****             traceQUEUE_SEND_FROM_ISR( pxQueue );
1202:..\FreeRTOS\Source/queue.c **** 
1203:..\FreeRTOS\Source/queue.c ****             /* A task can only have an inherited priority if it is a mutex
1204:..\FreeRTOS\Source/queue.c ****              * holder - and if there is a mutex holder then the mutex cannot be
1205:..\FreeRTOS\Source/queue.c ****              * given from an ISR.  As this is the ISR version of the function it
1206:..\FreeRTOS\Source/queue.c ****              * can be assumed there is no mutex holder and no need to determine if
1207:..\FreeRTOS\Source/queue.c ****              * priority disinheritance is needed.  Simply increase the count of
1208:..\FreeRTOS\Source/queue.c ****              * messages (semaphores) available. */
1209:..\FreeRTOS\Source/queue.c ****             pxQueue->uxMessagesWaiting = uxMessagesWaiting + ( UBaseType_t ) 1;
 1081              		.loc 1 1209 0
 1082 005c 3B69     		ldr	r3, [r7, #16]
 1083 005e 5A1C     		adds	r2, r3, #1
 1084 0060 BB69     		ldr	r3, [r7, #24]
 1085 0062 9A63     		str	r2, [r3, #56]
1210:..\FreeRTOS\Source/queue.c **** 
1211:..\FreeRTOS\Source/queue.c ****             /* The event list is not altered if the queue is locked.  This will
1212:..\FreeRTOS\Source/queue.c ****              * be done when the queue is unlocked later. */
1213:..\FreeRTOS\Source/queue.c ****             if( cTxLock == queueUNLOCKED )
 1086              		.loc 1 1213 0
 1087 0064 0F23     		movs	r3, #15
 1088 0066 FB18     		adds	r3, r7, r3
 1089 0068 1B78     		ldrb	r3, [r3]
 1090 006a 5BB2     		sxtb	r3, r3
 1091 006c 0133     		adds	r3, r3, #1
 1092 006e 11D1     		bne	.L120
1214:..\FreeRTOS\Source/queue.c ****             {
1215:..\FreeRTOS\Source/queue.c ****                 #if ( configUSE_QUEUE_SETS == 1 )
1216:..\FreeRTOS\Source/queue.c ****                     {
1217:..\FreeRTOS\Source/queue.c ****                         if( pxQueue->pxQueueSetContainer != NULL )
1218:..\FreeRTOS\Source/queue.c ****                         {
1219:..\FreeRTOS\Source/queue.c ****                             if( prvNotifyQueueSetContainer( pxQueue ) != pdFALSE )
1220:..\FreeRTOS\Source/queue.c ****                             {
1221:..\FreeRTOS\Source/queue.c ****                                 /* The semaphore is a member of a queue set, and
1222:..\FreeRTOS\Source/queue.c ****                                  * posting to the queue set caused a higher priority
1223:..\FreeRTOS\Source/queue.c ****                                  * task to unblock.  A context switch is required. */
1224:..\FreeRTOS\Source/queue.c ****                                 if( pxHigherPriorityTaskWoken != NULL )
1225:..\FreeRTOS\Source/queue.c ****                                 {
1226:..\FreeRTOS\Source/queue.c ****                                     *pxHigherPriorityTaskWoken = pdTRUE;
1227:..\FreeRTOS\Source/queue.c ****                                 }
1228:..\FreeRTOS\Source/queue.c ****                                 else
1229:..\FreeRTOS\Source/queue.c ****                                 {
1230:..\FreeRTOS\Source/queue.c ****                                     mtCOVERAGE_TEST_MARKER();
1231:..\FreeRTOS\Source/queue.c ****                                 }
1232:..\FreeRTOS\Source/queue.c ****                             }
1233:..\FreeRTOS\Source/queue.c ****                             else
1234:..\FreeRTOS\Source/queue.c ****                             {
1235:..\FreeRTOS\Source/queue.c ****                                 mtCOVERAGE_TEST_MARKER();
1236:..\FreeRTOS\Source/queue.c ****                             }
1237:..\FreeRTOS\Source/queue.c ****                         }
1238:..\FreeRTOS\Source/queue.c ****                         else
1239:..\FreeRTOS\Source/queue.c ****                         {
1240:..\FreeRTOS\Source/queue.c ****                             if( listLIST_IS_EMPTY( &( pxQueue->xTasksWaitingToReceive ) ) == pdFALS
1241:..\FreeRTOS\Source/queue.c ****                             {
1242:..\FreeRTOS\Source/queue.c ****                                 if( xTaskRemoveFromEventList( &( pxQueue->xTasksWaitingToReceive ) 
1243:..\FreeRTOS\Source/queue.c ****                                 {
1244:..\FreeRTOS\Source/queue.c ****                                     /* The task waiting has a higher priority so
ARM GAS  C:\Users\Jason\AppData\Local\Temp\ccMsFGiZ.s 			page 42


1245:..\FreeRTOS\Source/queue.c ****                                      *  record that a context switch is required. */
1246:..\FreeRTOS\Source/queue.c ****                                     if( pxHigherPriorityTaskWoken != NULL )
1247:..\FreeRTOS\Source/queue.c ****                                     {
1248:..\FreeRTOS\Source/queue.c ****                                         *pxHigherPriorityTaskWoken = pdTRUE;
1249:..\FreeRTOS\Source/queue.c ****                                     }
1250:..\FreeRTOS\Source/queue.c ****                                     else
1251:..\FreeRTOS\Source/queue.c ****                                     {
1252:..\FreeRTOS\Source/queue.c ****                                         mtCOVERAGE_TEST_MARKER();
1253:..\FreeRTOS\Source/queue.c ****                                     }
1254:..\FreeRTOS\Source/queue.c ****                                 }
1255:..\FreeRTOS\Source/queue.c ****                                 else
1256:..\FreeRTOS\Source/queue.c ****                                 {
1257:..\FreeRTOS\Source/queue.c ****                                     mtCOVERAGE_TEST_MARKER();
1258:..\FreeRTOS\Source/queue.c ****                                 }
1259:..\FreeRTOS\Source/queue.c ****                             }
1260:..\FreeRTOS\Source/queue.c ****                             else
1261:..\FreeRTOS\Source/queue.c ****                             {
1262:..\FreeRTOS\Source/queue.c ****                                 mtCOVERAGE_TEST_MARKER();
1263:..\FreeRTOS\Source/queue.c ****                             }
1264:..\FreeRTOS\Source/queue.c ****                         }
1265:..\FreeRTOS\Source/queue.c ****                     }
1266:..\FreeRTOS\Source/queue.c ****                 #else /* configUSE_QUEUE_SETS */
1267:..\FreeRTOS\Source/queue.c ****                     {
1268:..\FreeRTOS\Source/queue.c ****                         if( listLIST_IS_EMPTY( &( pxQueue->xTasksWaitingToReceive ) ) == pdFALSE )
 1093              		.loc 1 1268 0
 1094 0070 BB69     		ldr	r3, [r7, #24]
 1095 0072 5B6A     		ldr	r3, [r3, #36]
 1096 0074 002B     		cmp	r3, #0
 1097 0076 1CD0     		beq	.L121
1269:..\FreeRTOS\Source/queue.c ****                         {
1270:..\FreeRTOS\Source/queue.c ****                             if( xTaskRemoveFromEventList( &( pxQueue->xTasksWaitingToReceive ) ) !=
 1098              		.loc 1 1270 0
 1099 0078 BB69     		ldr	r3, [r7, #24]
 1100 007a 2433     		adds	r3, r3, #36
 1101 007c 1800     		movs	r0, r3
 1102 007e FFF7FEFF 		bl	xTaskRemoveFromEventList
 1103 0082 031E     		subs	r3, r0, #0
 1104 0084 15D0     		beq	.L121
1271:..\FreeRTOS\Source/queue.c ****                             {
1272:..\FreeRTOS\Source/queue.c ****                                 /* The task waiting has a higher priority so record that a
1273:..\FreeRTOS\Source/queue.c ****                                  * context switch is required. */
1274:..\FreeRTOS\Source/queue.c ****                                 if( pxHigherPriorityTaskWoken != NULL )
 1105              		.loc 1 1274 0
 1106 0086 3B68     		ldr	r3, [r7]
 1107 0088 002B     		cmp	r3, #0
 1108 008a 12D0     		beq	.L121
1275:..\FreeRTOS\Source/queue.c ****                                 {
1276:..\FreeRTOS\Source/queue.c ****                                     *pxHigherPriorityTaskWoken = pdTRUE;
 1109              		.loc 1 1276 0
 1110 008c 3B68     		ldr	r3, [r7]
 1111 008e 0122     		movs	r2, #1
 1112 0090 1A60     		str	r2, [r3]
 1113 0092 0EE0     		b	.L121
 1114              	.L120:
1277:..\FreeRTOS\Source/queue.c ****                                 }
1278:..\FreeRTOS\Source/queue.c ****                                 else
1279:..\FreeRTOS\Source/queue.c ****                                 {
ARM GAS  C:\Users\Jason\AppData\Local\Temp\ccMsFGiZ.s 			page 43


1280:..\FreeRTOS\Source/queue.c ****                                     mtCOVERAGE_TEST_MARKER();
1281:..\FreeRTOS\Source/queue.c ****                                 }
1282:..\FreeRTOS\Source/queue.c ****                             }
1283:..\FreeRTOS\Source/queue.c ****                             else
1284:..\FreeRTOS\Source/queue.c ****                             {
1285:..\FreeRTOS\Source/queue.c ****                                 mtCOVERAGE_TEST_MARKER();
1286:..\FreeRTOS\Source/queue.c ****                             }
1287:..\FreeRTOS\Source/queue.c ****                         }
1288:..\FreeRTOS\Source/queue.c ****                         else
1289:..\FreeRTOS\Source/queue.c ****                         {
1290:..\FreeRTOS\Source/queue.c ****                             mtCOVERAGE_TEST_MARKER();
1291:..\FreeRTOS\Source/queue.c ****                         }
1292:..\FreeRTOS\Source/queue.c ****                     }
1293:..\FreeRTOS\Source/queue.c ****                 #endif /* configUSE_QUEUE_SETS */
1294:..\FreeRTOS\Source/queue.c ****             }
1295:..\FreeRTOS\Source/queue.c ****             else
1296:..\FreeRTOS\Source/queue.c ****             {
1297:..\FreeRTOS\Source/queue.c ****                 /* Increment the lock count so the task that unlocks the queue
1298:..\FreeRTOS\Source/queue.c ****                  * knows that data was posted while it was locked. */
1299:..\FreeRTOS\Source/queue.c ****                 configASSERT( cTxLock != queueINT8_MAX );
 1115              		.loc 1 1299 0
 1116 0094 0E4B     		ldr	r3, .L127
 1117 0096 1B88     		ldrh	r3, [r3]
 1118 0098 002B     		cmp	r3, #0
 1119 009a 01D1     		bne	.L122
 1120              		.loc 1 1299 0 is_stmt 0 discriminator 1
 1121              		.syntax divided
 1122              	@ 1299 "..\FreeRTOS\Source\queue.c" 1
 1123 009c 72B6     		 cpsid i 
 1124              	@ 0 "" 2
 1125              		.thumb
 1126              		.syntax unified
 1127              	.L123:
 1128              		.loc 1 1299 0 discriminator 6
 1129 009e FEE7     		b	.L123
 1130              	.L122:
1300:..\FreeRTOS\Source/queue.c **** 
1301:..\FreeRTOS\Source/queue.c ****                 pxQueue->cTxLock = ( int8_t ) ( cTxLock + 1 );
 1131              		.loc 1 1301 0 is_stmt 1
 1132 00a0 0F23     		movs	r3, #15
 1133 00a2 FB18     		adds	r3, r7, r3
 1134 00a4 1B78     		ldrb	r3, [r3]
 1135 00a6 0133     		adds	r3, r3, #1
 1136 00a8 DBB2     		uxtb	r3, r3
 1137 00aa 59B2     		sxtb	r1, r3
 1138 00ac BB69     		ldr	r3, [r7, #24]
 1139 00ae 4522     		movs	r2, #69
 1140 00b0 9954     		strb	r1, [r3, r2]
 1141              	.L121:
1302:..\FreeRTOS\Source/queue.c ****             }
1303:..\FreeRTOS\Source/queue.c **** 
1304:..\FreeRTOS\Source/queue.c ****             xReturn = pdPASS;
 1142              		.loc 1 1304 0
 1143 00b2 0123     		movs	r3, #1
 1144 00b4 FB61     		str	r3, [r7, #28]
 1145              	.LBE5:
 1146 00b6 01E0     		b	.L124
ARM GAS  C:\Users\Jason\AppData\Local\Temp\ccMsFGiZ.s 			page 44


 1147              	.L119:
1305:..\FreeRTOS\Source/queue.c ****         }
1306:..\FreeRTOS\Source/queue.c ****         else
1307:..\FreeRTOS\Source/queue.c ****         {
1308:..\FreeRTOS\Source/queue.c ****             traceQUEUE_SEND_FROM_ISR_FAILED( pxQueue );
1309:..\FreeRTOS\Source/queue.c ****             xReturn = errQUEUE_FULL;
 1148              		.loc 1 1309 0
 1149 00b8 0023     		movs	r3, #0
 1150 00ba FB61     		str	r3, [r7, #28]
 1151              	.L124:
 1152              	.LBE4:
1310:..\FreeRTOS\Source/queue.c ****         }
1311:..\FreeRTOS\Source/queue.c ****     }
1312:..\FreeRTOS\Source/queue.c ****     portCLEAR_INTERRUPT_MASK_FROM_ISR( uxSavedInterruptStatus );
 1153              		.loc 1 1312 0
 1154 00bc 7B69     		ldr	r3, [r7, #20]
 1155 00be 1800     		movs	r0, r3
 1156 00c0 FFF7FEFF 		bl	vClearInterruptMaskFromISR
1313:..\FreeRTOS\Source/queue.c **** 
1314:..\FreeRTOS\Source/queue.c ****     return xReturn;
 1157              		.loc 1 1314 0
 1158 00c4 FB69     		ldr	r3, [r7, #28]
1315:..\FreeRTOS\Source/queue.c **** }
 1159              		.loc 1 1315 0
 1160 00c6 1800     		movs	r0, r3
 1161 00c8 BD46     		mov	sp, r7
 1162 00ca 08B0     		add	sp, sp, #32
 1163              		@ sp needed
 1164 00cc 80BD     		pop	{r7, pc}
 1165              	.L128:
 1166 00ce C046     		.align	2
 1167              	.L127:
 1168 00d0 00000000 		.word	x
 1169              		.cfi_endproc
 1170              	.LFE6:
 1171              		.size	xQueueGiveFromISR, .-xQueueGiveFromISR
 1172              		.section	.text.xQueueReceive,"ax",%progbits
 1173              		.align	2
 1174              		.global	xQueueReceive
 1175              		.code	16
 1176              		.thumb_func
 1177              		.type	xQueueReceive, %function
 1178              	xQueueReceive:
 1179              	.LFB7:
1316:..\FreeRTOS\Source/queue.c **** /*-----------------------------------------------------------*/
1317:..\FreeRTOS\Source/queue.c **** 
1318:..\FreeRTOS\Source/queue.c **** BaseType_t xQueueReceive( QueueHandle_t xQueue,
1319:..\FreeRTOS\Source/queue.c ****                           void * const pvBuffer,
1320:..\FreeRTOS\Source/queue.c ****                           TickType_t xTicksToWait )
1321:..\FreeRTOS\Source/queue.c **** {
 1180              		.loc 1 1321 0
 1181              		.cfi_startproc
 1182              		@ args = 0, pretend = 0, frame = 40
 1183              		@ frame_needed = 1, uses_anonymous_args = 0
 1184 0000 80B5     		push	{r7, lr}
 1185              		.cfi_def_cfa_offset 8
 1186              		.cfi_offset 7, -8
ARM GAS  C:\Users\Jason\AppData\Local\Temp\ccMsFGiZ.s 			page 45


 1187              		.cfi_offset 14, -4
 1188 0002 8AB0     		sub	sp, sp, #40
 1189              		.cfi_def_cfa_offset 48
 1190 0004 00AF     		add	r7, sp, #0
 1191              		.cfi_def_cfa_register 7
 1192 0006 F860     		str	r0, [r7, #12]
 1193 0008 B960     		str	r1, [r7, #8]
 1194 000a 7A60     		str	r2, [r7, #4]
1322:..\FreeRTOS\Source/queue.c ****     BaseType_t xEntryTimeSet = pdFALSE;
 1195              		.loc 1 1322 0
 1196 000c 0023     		movs	r3, #0
 1197 000e 7B62     		str	r3, [r7, #36]
1323:..\FreeRTOS\Source/queue.c ****     TimeOut_t xTimeOut;
1324:..\FreeRTOS\Source/queue.c ****     Queue_t * const pxQueue = xQueue;
 1198              		.loc 1 1324 0
 1199 0010 FB68     		ldr	r3, [r7, #12]
 1200 0012 3B62     		str	r3, [r7, #32]
1325:..\FreeRTOS\Source/queue.c **** 
1326:..\FreeRTOS\Source/queue.c ****     /* Check the pointer is not NULL. */
1327:..\FreeRTOS\Source/queue.c ****     configASSERT( ( pxQueue ) );
 1201              		.loc 1 1327 0
 1202 0014 514B     		ldr	r3, .L155
 1203 0016 1B88     		ldrh	r3, [r3]
 1204 0018 002B     		cmp	r3, #0
 1205 001a 01D1     		bne	.L130
 1206              		.loc 1 1327 0 is_stmt 0 discriminator 1
 1207              		.syntax divided
 1208              	@ 1327 "..\FreeRTOS\Source\queue.c" 1
 1209 001c 72B6     		 cpsid i 
 1210              	@ 0 "" 2
 1211              		.thumb
 1212              		.syntax unified
 1213              	.L131:
 1214 001e FEE7     		b	.L131
 1215              	.L130:
1328:..\FreeRTOS\Source/queue.c **** 
1329:..\FreeRTOS\Source/queue.c ****     /* The buffer into which data is received can only be NULL if the data size
1330:..\FreeRTOS\Source/queue.c ****      * is zero (so no data is copied into the buffer). */
1331:..\FreeRTOS\Source/queue.c ****     configASSERT( !( ( ( pvBuffer ) == NULL ) && ( ( pxQueue )->uxItemSize != ( UBaseType_t ) 0U ) 
 1216              		.loc 1 1331 0 is_stmt 1
 1217 0020 4E4B     		ldr	r3, .L155
 1218 0022 1B88     		ldrh	r3, [r3]
 1219 0024 002B     		cmp	r3, #0
 1220 0026 01D1     		bne	.L132
 1221              		.loc 1 1331 0 is_stmt 0 discriminator 1
 1222              		.syntax divided
 1223              	@ 1331 "..\FreeRTOS\Source\queue.c" 1
 1224 0028 72B6     		 cpsid i 
 1225              	@ 0 "" 2
 1226              		.thumb
 1227              		.syntax unified
 1228              	.L133:
 1229              		.loc 1 1331 0 discriminator 2
 1230 002a FEE7     		b	.L133
 1231              	.L132:
 1232 002c BB68     		ldr	r3, [r7, #8]
 1233 002e C046     		nop
ARM GAS  C:\Users\Jason\AppData\Local\Temp\ccMsFGiZ.s 			page 46


1332:..\FreeRTOS\Source/queue.c **** 
1333:..\FreeRTOS\Source/queue.c ****     /* Cannot block if the scheduler is suspended. */
1334:..\FreeRTOS\Source/queue.c ****     #if ( ( INCLUDE_xTaskGetSchedulerState == 1 ) || ( configUSE_TIMERS == 1 ) )
1335:..\FreeRTOS\Source/queue.c ****         {
1336:..\FreeRTOS\Source/queue.c ****             configASSERT( !( ( xTaskGetSchedulerState() == taskSCHEDULER_SUSPENDED ) && ( xTicksToW
 1234              		.loc 1 1336 0 is_stmt 1 discriminator 2
 1235 0030 4A4B     		ldr	r3, .L155
 1236 0032 1B88     		ldrh	r3, [r3]
 1237 0034 002B     		cmp	r3, #0
 1238 0036 01D1     		bne	.L137
 1239              		.loc 1 1336 0 is_stmt 0 discriminator 1
 1240              		.syntax divided
 1241              	@ 1336 "..\FreeRTOS\Source\queue.c" 1
 1242 0038 72B6     		 cpsid i 
 1243              	@ 0 "" 2
 1244              		.thumb
 1245              		.syntax unified
 1246              	.L138:
 1247              		.loc 1 1336 0 discriminator 3
 1248 003a FEE7     		b	.L138
 1249              	.L137:
 1250              		.loc 1 1336 0 discriminator 2
 1251 003c FFF7FEFF 		bl	xTaskGetSchedulerState
 1252 0040 031E     		subs	r3, r0, #0
 1253 0042 00D1     		bne	.L141
 1254              		.loc 1 1336 0 discriminator 4
 1255 0044 7B68     		ldr	r3, [r7, #4]
 1256              	.L141:
1337:..\FreeRTOS\Source/queue.c ****         }
1338:..\FreeRTOS\Source/queue.c ****     #endif
1339:..\FreeRTOS\Source/queue.c **** 
1340:..\FreeRTOS\Source/queue.c ****     /*lint -save -e904  This function relaxes the coding standard somewhat to
1341:..\FreeRTOS\Source/queue.c ****      * allow return statements within the function itself.  This is done in the
1342:..\FreeRTOS\Source/queue.c ****      * interest of execution time efficiency. */
1343:..\FreeRTOS\Source/queue.c ****     for( ; ; )
1344:..\FreeRTOS\Source/queue.c ****     {
1345:..\FreeRTOS\Source/queue.c ****         taskENTER_CRITICAL();
 1257              		.loc 1 1345 0 is_stmt 1
 1258 0046 FFF7FEFF 		bl	vPortEnterCritical
 1259              	.LBB6:
1346:..\FreeRTOS\Source/queue.c ****         {
1347:..\FreeRTOS\Source/queue.c ****             const UBaseType_t uxMessagesWaiting = pxQueue->uxMessagesWaiting;
 1260              		.loc 1 1347 0
 1261 004a 3B6A     		ldr	r3, [r7, #32]
 1262 004c 9B6B     		ldr	r3, [r3, #56]
 1263 004e FB61     		str	r3, [r7, #28]
1348:..\FreeRTOS\Source/queue.c **** 
1349:..\FreeRTOS\Source/queue.c ****             /* Is there data in the queue now?  To be running the calling task
1350:..\FreeRTOS\Source/queue.c ****              * must be the highest priority task wanting to access the queue. */
1351:..\FreeRTOS\Source/queue.c ****             if( uxMessagesWaiting > ( UBaseType_t ) 0 )
 1264              		.loc 1 1351 0
 1265 0050 FB69     		ldr	r3, [r7, #28]
 1266 0052 002B     		cmp	r3, #0
 1267 0054 1AD0     		beq	.L142
1352:..\FreeRTOS\Source/queue.c ****             {
1353:..\FreeRTOS\Source/queue.c ****                 /* Data available, remove one item. */
1354:..\FreeRTOS\Source/queue.c ****                 prvCopyDataFromQueue( pxQueue, pvBuffer );
ARM GAS  C:\Users\Jason\AppData\Local\Temp\ccMsFGiZ.s 			page 47


 1268              		.loc 1 1354 0
 1269 0056 BA68     		ldr	r2, [r7, #8]
 1270 0058 3B6A     		ldr	r3, [r7, #32]
 1271 005a 1100     		movs	r1, r2
 1272 005c 1800     		movs	r0, r3
 1273 005e FFF7FEFF 		bl	prvCopyDataFromQueue
1355:..\FreeRTOS\Source/queue.c ****                 traceQUEUE_RECEIVE( pxQueue );
1356:..\FreeRTOS\Source/queue.c ****                 pxQueue->uxMessagesWaiting = uxMessagesWaiting - ( UBaseType_t ) 1;
 1274              		.loc 1 1356 0
 1275 0062 FB69     		ldr	r3, [r7, #28]
 1276 0064 5A1E     		subs	r2, r3, #1
 1277 0066 3B6A     		ldr	r3, [r7, #32]
 1278 0068 9A63     		str	r2, [r3, #56]
1357:..\FreeRTOS\Source/queue.c **** 
1358:..\FreeRTOS\Source/queue.c ****                 /* There is now space in the queue, were any tasks waiting to
1359:..\FreeRTOS\Source/queue.c ****                  * post to the queue?  If so, unblock the highest priority waiting
1360:..\FreeRTOS\Source/queue.c ****                  * task. */
1361:..\FreeRTOS\Source/queue.c ****                 if( listLIST_IS_EMPTY( &( pxQueue->xTasksWaitingToSend ) ) == pdFALSE )
 1279              		.loc 1 1361 0
 1280 006a 3B6A     		ldr	r3, [r7, #32]
 1281 006c 1B69     		ldr	r3, [r3, #16]
 1282 006e 002B     		cmp	r3, #0
 1283 0070 08D0     		beq	.L143
1362:..\FreeRTOS\Source/queue.c ****                 {
1363:..\FreeRTOS\Source/queue.c ****                     if( xTaskRemoveFromEventList( &( pxQueue->xTasksWaitingToSend ) ) != pdFALSE )
 1284              		.loc 1 1363 0
 1285 0072 3B6A     		ldr	r3, [r7, #32]
 1286 0074 1033     		adds	r3, r3, #16
 1287 0076 1800     		movs	r0, r3
 1288 0078 FFF7FEFF 		bl	xTaskRemoveFromEventList
 1289 007c 031E     		subs	r3, r0, #0
 1290 007e 01D0     		beq	.L143
1364:..\FreeRTOS\Source/queue.c ****                     {
1365:..\FreeRTOS\Source/queue.c ****                         queueYIELD_IF_USING_PREEMPTION();
 1291              		.loc 1 1365 0
 1292 0080 FFF7FEFF 		bl	vPortYield
 1293              	.L143:
1366:..\FreeRTOS\Source/queue.c ****                     }
1367:..\FreeRTOS\Source/queue.c ****                     else
1368:..\FreeRTOS\Source/queue.c ****                     {
1369:..\FreeRTOS\Source/queue.c ****                         mtCOVERAGE_TEST_MARKER();
1370:..\FreeRTOS\Source/queue.c ****                     }
1371:..\FreeRTOS\Source/queue.c ****                 }
1372:..\FreeRTOS\Source/queue.c ****                 else
1373:..\FreeRTOS\Source/queue.c ****                 {
1374:..\FreeRTOS\Source/queue.c ****                     mtCOVERAGE_TEST_MARKER();
1375:..\FreeRTOS\Source/queue.c ****                 }
1376:..\FreeRTOS\Source/queue.c **** 
1377:..\FreeRTOS\Source/queue.c ****                 taskEXIT_CRITICAL();
 1294              		.loc 1 1377 0
 1295 0084 FFF7FEFF 		bl	vPortExitCritical
1378:..\FreeRTOS\Source/queue.c ****                 return pdPASS;
 1296              		.loc 1 1378 0
 1297 0088 0123     		movs	r3, #1
 1298 008a 62E0     		b	.L153
 1299              	.L142:
1379:..\FreeRTOS\Source/queue.c ****             }
ARM GAS  C:\Users\Jason\AppData\Local\Temp\ccMsFGiZ.s 			page 48


1380:..\FreeRTOS\Source/queue.c ****             else
1381:..\FreeRTOS\Source/queue.c ****             {
1382:..\FreeRTOS\Source/queue.c ****                 if( xTicksToWait == ( TickType_t ) 0 )
 1300              		.loc 1 1382 0
 1301 008c 7B68     		ldr	r3, [r7, #4]
 1302 008e 002B     		cmp	r3, #0
 1303 0090 03D1     		bne	.L145
1383:..\FreeRTOS\Source/queue.c ****                 {
1384:..\FreeRTOS\Source/queue.c ****                     /* The queue was empty and no block time is specified (or
1385:..\FreeRTOS\Source/queue.c ****                      * the block time has expired) so leave now. */
1386:..\FreeRTOS\Source/queue.c ****                     taskEXIT_CRITICAL();
 1304              		.loc 1 1386 0
 1305 0092 FFF7FEFF 		bl	vPortExitCritical
1387:..\FreeRTOS\Source/queue.c ****                     traceQUEUE_RECEIVE_FAILED( pxQueue );
1388:..\FreeRTOS\Source/queue.c ****                     return errQUEUE_EMPTY;
 1306              		.loc 1 1388 0
 1307 0096 0023     		movs	r3, #0
 1308 0098 5BE0     		b	.L153
 1309              	.L145:
1389:..\FreeRTOS\Source/queue.c ****                 }
1390:..\FreeRTOS\Source/queue.c ****                 else if( xEntryTimeSet == pdFALSE )
 1310              		.loc 1 1390 0
 1311 009a 7B6A     		ldr	r3, [r7, #36]
 1312 009c 002B     		cmp	r3, #0
 1313 009e 06D1     		bne	.L146
1391:..\FreeRTOS\Source/queue.c ****                 {
1392:..\FreeRTOS\Source/queue.c ****                     /* The queue was empty and a block time was specified so
1393:..\FreeRTOS\Source/queue.c ****                      * configure the timeout structure. */
1394:..\FreeRTOS\Source/queue.c ****                     vTaskInternalSetTimeOutState( &xTimeOut );
 1314              		.loc 1 1394 0
 1315 00a0 1423     		movs	r3, #20
 1316 00a2 FB18     		adds	r3, r7, r3
 1317 00a4 1800     		movs	r0, r3
 1318 00a6 FFF7FEFF 		bl	vTaskInternalSetTimeOutState
1395:..\FreeRTOS\Source/queue.c ****                     xEntryTimeSet = pdTRUE;
 1319              		.loc 1 1395 0
 1320 00aa 0123     		movs	r3, #1
 1321 00ac 7B62     		str	r3, [r7, #36]
 1322              	.L146:
 1323              	.LBE6:
1396:..\FreeRTOS\Source/queue.c ****                 }
1397:..\FreeRTOS\Source/queue.c ****                 else
1398:..\FreeRTOS\Source/queue.c ****                 {
1399:..\FreeRTOS\Source/queue.c ****                     /* Entry time was already set. */
1400:..\FreeRTOS\Source/queue.c ****                     mtCOVERAGE_TEST_MARKER();
1401:..\FreeRTOS\Source/queue.c ****                 }
1402:..\FreeRTOS\Source/queue.c ****             }
1403:..\FreeRTOS\Source/queue.c ****         }
1404:..\FreeRTOS\Source/queue.c ****         taskEXIT_CRITICAL();
 1324              		.loc 1 1404 0
 1325 00ae FFF7FEFF 		bl	vPortExitCritical
1405:..\FreeRTOS\Source/queue.c **** 
1406:..\FreeRTOS\Source/queue.c ****         /* Interrupts and other tasks can send to and receive from the queue
1407:..\FreeRTOS\Source/queue.c ****          * now the critical section has been exited. */
1408:..\FreeRTOS\Source/queue.c **** 
1409:..\FreeRTOS\Source/queue.c ****         vTaskSuspendAll();
 1326              		.loc 1 1409 0
ARM GAS  C:\Users\Jason\AppData\Local\Temp\ccMsFGiZ.s 			page 49


 1327 00b2 FFF7FEFF 		bl	vTaskSuspendAll
1410:..\FreeRTOS\Source/queue.c ****         prvLockQueue( pxQueue );
 1328              		.loc 1 1410 0
 1329 00b6 FFF7FEFF 		bl	vPortEnterCritical
 1330 00ba 3B6A     		ldr	r3, [r7, #32]
 1331 00bc 4422     		movs	r2, #68
 1332 00be 9B5C     		ldrb	r3, [r3, r2]
 1333 00c0 5BB2     		sxtb	r3, r3
 1334 00c2 0133     		adds	r3, r3, #1
 1335 00c4 03D1     		bne	.L147
 1336              		.loc 1 1410 0 is_stmt 0 discriminator 1
 1337 00c6 3B6A     		ldr	r3, [r7, #32]
 1338 00c8 4422     		movs	r2, #68
 1339 00ca 0021     		movs	r1, #0
 1340 00cc 9954     		strb	r1, [r3, r2]
 1341              	.L147:
 1342              		.loc 1 1410 0 discriminator 3
 1343 00ce 3B6A     		ldr	r3, [r7, #32]
 1344 00d0 4522     		movs	r2, #69
 1345 00d2 9B5C     		ldrb	r3, [r3, r2]
 1346 00d4 5BB2     		sxtb	r3, r3
 1347 00d6 0133     		adds	r3, r3, #1
 1348 00d8 03D1     		bne	.L148
 1349              		.loc 1 1410 0 discriminator 4
 1350 00da 3B6A     		ldr	r3, [r7, #32]
 1351 00dc 4522     		movs	r2, #69
 1352 00de 0021     		movs	r1, #0
 1353 00e0 9954     		strb	r1, [r3, r2]
 1354              	.L148:
 1355              		.loc 1 1410 0 discriminator 6
 1356 00e2 FFF7FEFF 		bl	vPortExitCritical
1411:..\FreeRTOS\Source/queue.c **** 
1412:..\FreeRTOS\Source/queue.c ****         /* Update the timeout state to see if it has expired yet. */
1413:..\FreeRTOS\Source/queue.c ****         if( xTaskCheckForTimeOut( &xTimeOut, &xTicksToWait ) == pdFALSE )
 1357              		.loc 1 1413 0 is_stmt 1 discriminator 6
 1358 00e6 3A1D     		adds	r2, r7, #4
 1359 00e8 1423     		movs	r3, #20
 1360 00ea FB18     		adds	r3, r7, r3
 1361 00ec 1100     		movs	r1, r2
 1362 00ee 1800     		movs	r0, r3
 1363 00f0 FFF7FEFF 		bl	xTaskCheckForTimeOut
 1364 00f4 031E     		subs	r3, r0, #0
 1365 00f6 1ED1     		bne	.L149
1414:..\FreeRTOS\Source/queue.c ****         {
1415:..\FreeRTOS\Source/queue.c ****             /* The timeout has not expired.  If the queue is still empty place
1416:..\FreeRTOS\Source/queue.c ****              * the task on the list of tasks waiting to receive from the queue. */
1417:..\FreeRTOS\Source/queue.c ****             if( prvIsQueueEmpty( pxQueue ) != pdFALSE )
 1366              		.loc 1 1417 0
 1367 00f8 3B6A     		ldr	r3, [r7, #32]
 1368 00fa 1800     		movs	r0, r3
 1369 00fc FFF7FEFF 		bl	prvIsQueueEmpty
 1370 0100 031E     		subs	r3, r0, #0
 1371 0102 11D0     		beq	.L150
1418:..\FreeRTOS\Source/queue.c ****             {
1419:..\FreeRTOS\Source/queue.c ****                 traceBLOCKING_ON_QUEUE_RECEIVE( pxQueue );
1420:..\FreeRTOS\Source/queue.c ****                 vTaskPlaceOnEventList( &( pxQueue->xTasksWaitingToReceive ), xTicksToWait );
 1372              		.loc 1 1420 0
ARM GAS  C:\Users\Jason\AppData\Local\Temp\ccMsFGiZ.s 			page 50


 1373 0104 3B6A     		ldr	r3, [r7, #32]
 1374 0106 2433     		adds	r3, r3, #36
 1375 0108 7A68     		ldr	r2, [r7, #4]
 1376 010a 1100     		movs	r1, r2
 1377 010c 1800     		movs	r0, r3
 1378 010e FFF7FEFF 		bl	vTaskPlaceOnEventList
1421:..\FreeRTOS\Source/queue.c ****                 prvUnlockQueue( pxQueue );
 1379              		.loc 1 1421 0
 1380 0112 3B6A     		ldr	r3, [r7, #32]
 1381 0114 1800     		movs	r0, r3
 1382 0116 FFF7FEFF 		bl	prvUnlockQueue
1422:..\FreeRTOS\Source/queue.c **** 
1423:..\FreeRTOS\Source/queue.c ****                 if( xTaskResumeAll() == pdFALSE )
 1383              		.loc 1 1423 0
 1384 011a FFF7FEFF 		bl	xTaskResumeAll
 1385 011e 031E     		subs	r3, r0, #0
 1386 0120 91D1     		bne	.L141
1424:..\FreeRTOS\Source/queue.c ****                 {
1425:..\FreeRTOS\Source/queue.c ****                     portYIELD_WITHIN_API();
 1387              		.loc 1 1425 0
 1388 0122 FFF7FEFF 		bl	vPortYield
 1389 0126 8EE7     		b	.L141
 1390              	.L150:
1426:..\FreeRTOS\Source/queue.c ****                 }
1427:..\FreeRTOS\Source/queue.c ****                 else
1428:..\FreeRTOS\Source/queue.c ****                 {
1429:..\FreeRTOS\Source/queue.c ****                     mtCOVERAGE_TEST_MARKER();
1430:..\FreeRTOS\Source/queue.c ****                 }
1431:..\FreeRTOS\Source/queue.c ****             }
1432:..\FreeRTOS\Source/queue.c ****             else
1433:..\FreeRTOS\Source/queue.c ****             {
1434:..\FreeRTOS\Source/queue.c ****                 /* The queue contains data again.  Loop back to try and read the
1435:..\FreeRTOS\Source/queue.c ****                  * data. */
1436:..\FreeRTOS\Source/queue.c ****                 prvUnlockQueue( pxQueue );
 1391              		.loc 1 1436 0
 1392 0128 3B6A     		ldr	r3, [r7, #32]
 1393 012a 1800     		movs	r0, r3
 1394 012c FFF7FEFF 		bl	prvUnlockQueue
1437:..\FreeRTOS\Source/queue.c ****                 ( void ) xTaskResumeAll();
 1395              		.loc 1 1437 0
 1396 0130 FFF7FEFF 		bl	xTaskResumeAll
 1397 0134 87E7     		b	.L141
 1398              	.L149:
1438:..\FreeRTOS\Source/queue.c ****             }
1439:..\FreeRTOS\Source/queue.c ****         }
1440:..\FreeRTOS\Source/queue.c ****         else
1441:..\FreeRTOS\Source/queue.c ****         {
1442:..\FreeRTOS\Source/queue.c ****             /* Timed out.  If there is no data in the queue exit, otherwise loop
1443:..\FreeRTOS\Source/queue.c ****              * back and attempt to read the data. */
1444:..\FreeRTOS\Source/queue.c ****             prvUnlockQueue( pxQueue );
 1399              		.loc 1 1444 0
 1400 0136 3B6A     		ldr	r3, [r7, #32]
 1401 0138 1800     		movs	r0, r3
 1402 013a FFF7FEFF 		bl	prvUnlockQueue
1445:..\FreeRTOS\Source/queue.c ****             ( void ) xTaskResumeAll();
 1403              		.loc 1 1445 0
 1404 013e FFF7FEFF 		bl	xTaskResumeAll
ARM GAS  C:\Users\Jason\AppData\Local\Temp\ccMsFGiZ.s 			page 51


1446:..\FreeRTOS\Source/queue.c **** 
1447:..\FreeRTOS\Source/queue.c ****             if( prvIsQueueEmpty( pxQueue ) != pdFALSE )
 1405              		.loc 1 1447 0
 1406 0142 3B6A     		ldr	r3, [r7, #32]
 1407 0144 1800     		movs	r0, r3
 1408 0146 FFF7FEFF 		bl	prvIsQueueEmpty
 1409 014a 031E     		subs	r3, r0, #0
 1410 014c 00D1     		bne	.LCB1147
 1411 014e 7AE7     		b	.L141	@long jump
 1412              	.LCB1147:
1448:..\FreeRTOS\Source/queue.c ****             {
1449:..\FreeRTOS\Source/queue.c ****                 traceQUEUE_RECEIVE_FAILED( pxQueue );
1450:..\FreeRTOS\Source/queue.c ****                 return errQUEUE_EMPTY;
 1413              		.loc 1 1450 0
 1414 0150 0023     		movs	r3, #0
 1415              	.L153:
1451:..\FreeRTOS\Source/queue.c ****             }
1452:..\FreeRTOS\Source/queue.c ****             else
1453:..\FreeRTOS\Source/queue.c ****             {
1454:..\FreeRTOS\Source/queue.c ****                 mtCOVERAGE_TEST_MARKER();
1455:..\FreeRTOS\Source/queue.c ****             }
1456:..\FreeRTOS\Source/queue.c ****         }
1457:..\FreeRTOS\Source/queue.c ****     } /*lint -restore */
1458:..\FreeRTOS\Source/queue.c **** }
 1416              		.loc 1 1458 0 discriminator 6
 1417 0152 1800     		movs	r0, r3
 1418 0154 BD46     		mov	sp, r7
 1419 0156 0AB0     		add	sp, sp, #40
 1420              		@ sp needed
 1421 0158 80BD     		pop	{r7, pc}
 1422              	.L156:
 1423 015a C046     		.align	2
 1424              	.L155:
 1425 015c 00000000 		.word	x
 1426              		.cfi_endproc
 1427              	.LFE7:
 1428              		.size	xQueueReceive, .-xQueueReceive
 1429              		.section	.text.xQueueSemaphoreTake,"ax",%progbits
 1430              		.align	2
 1431              		.global	xQueueSemaphoreTake
 1432              		.code	16
 1433              		.thumb_func
 1434              		.type	xQueueSemaphoreTake, %function
 1435              	xQueueSemaphoreTake:
 1436              	.LFB8:
1459:..\FreeRTOS\Source/queue.c **** /*-----------------------------------------------------------*/
1460:..\FreeRTOS\Source/queue.c **** 
1461:..\FreeRTOS\Source/queue.c **** BaseType_t xQueueSemaphoreTake( QueueHandle_t xQueue,
1462:..\FreeRTOS\Source/queue.c ****                                 TickType_t xTicksToWait )
1463:..\FreeRTOS\Source/queue.c **** {
 1437              		.loc 1 1463 0
 1438              		.cfi_startproc
 1439              		@ args = 0, pretend = 0, frame = 32
 1440              		@ frame_needed = 1, uses_anonymous_args = 0
 1441 0000 80B5     		push	{r7, lr}
 1442              		.cfi_def_cfa_offset 8
 1443              		.cfi_offset 7, -8
ARM GAS  C:\Users\Jason\AppData\Local\Temp\ccMsFGiZ.s 			page 52


 1444              		.cfi_offset 14, -4
 1445 0002 88B0     		sub	sp, sp, #32
 1446              		.cfi_def_cfa_offset 40
 1447 0004 00AF     		add	r7, sp, #0
 1448              		.cfi_def_cfa_register 7
 1449 0006 7860     		str	r0, [r7, #4]
 1450 0008 3960     		str	r1, [r7]
1464:..\FreeRTOS\Source/queue.c ****     BaseType_t xEntryTimeSet = pdFALSE;
 1451              		.loc 1 1464 0
 1452 000a 0023     		movs	r3, #0
 1453 000c FB61     		str	r3, [r7, #28]
1465:..\FreeRTOS\Source/queue.c ****     TimeOut_t xTimeOut;
1466:..\FreeRTOS\Source/queue.c ****     Queue_t * const pxQueue = xQueue;
 1454              		.loc 1 1466 0
 1455 000e 7B68     		ldr	r3, [r7, #4]
 1456 0010 BB61     		str	r3, [r7, #24]
1467:..\FreeRTOS\Source/queue.c **** 
1468:..\FreeRTOS\Source/queue.c ****     #if ( configUSE_MUTEXES == 1 )
1469:..\FreeRTOS\Source/queue.c ****         BaseType_t xInheritanceOccurred = pdFALSE;
1470:..\FreeRTOS\Source/queue.c ****     #endif
1471:..\FreeRTOS\Source/queue.c **** 
1472:..\FreeRTOS\Source/queue.c ****     /* Check the queue pointer is not NULL. */
1473:..\FreeRTOS\Source/queue.c ****     configASSERT( ( pxQueue ) );
 1457              		.loc 1 1473 0
 1458 0012 4D4B     		ldr	r3, .L179
 1459 0014 1B88     		ldrh	r3, [r3]
 1460 0016 002B     		cmp	r3, #0
 1461 0018 01D1     		bne	.L158
 1462              		.loc 1 1473 0 is_stmt 0 discriminator 1
 1463              		.syntax divided
 1464              	@ 1473 "..\FreeRTOS\Source\queue.c" 1
 1465 001a 72B6     		 cpsid i 
 1466              	@ 0 "" 2
 1467              		.thumb
 1468              		.syntax unified
 1469              	.L159:
 1470 001c FEE7     		b	.L159
 1471              	.L158:
1474:..\FreeRTOS\Source/queue.c **** 
1475:..\FreeRTOS\Source/queue.c ****     /* Check this really is a semaphore, in which case the item size will be
1476:..\FreeRTOS\Source/queue.c ****      * 0. */
1477:..\FreeRTOS\Source/queue.c ****     configASSERT( pxQueue->uxItemSize == 0 );
 1472              		.loc 1 1477 0 is_stmt 1
 1473 001e 4A4B     		ldr	r3, .L179
 1474 0020 1B88     		ldrh	r3, [r3]
 1475 0022 002B     		cmp	r3, #0
 1476 0024 01D1     		bne	.L160
 1477              		.loc 1 1477 0 is_stmt 0 discriminator 1
 1478              		.syntax divided
 1479              	@ 1477 "..\FreeRTOS\Source\queue.c" 1
 1480 0026 72B6     		 cpsid i 
 1481              	@ 0 "" 2
 1482              		.thumb
 1483              		.syntax unified
 1484              	.L161:
 1485              		.loc 1 1477 0 discriminator 2
 1486 0028 FEE7     		b	.L161
ARM GAS  C:\Users\Jason\AppData\Local\Temp\ccMsFGiZ.s 			page 53


 1487              	.L160:
1478:..\FreeRTOS\Source/queue.c **** 
1479:..\FreeRTOS\Source/queue.c ****     /* Cannot block if the scheduler is suspended. */
1480:..\FreeRTOS\Source/queue.c ****     #if ( ( INCLUDE_xTaskGetSchedulerState == 1 ) || ( configUSE_TIMERS == 1 ) )
1481:..\FreeRTOS\Source/queue.c ****         {
1482:..\FreeRTOS\Source/queue.c ****             configASSERT( !( ( xTaskGetSchedulerState() == taskSCHEDULER_SUSPENDED ) && ( xTicksToW
 1488              		.loc 1 1482 0 is_stmt 1 discriminator 2
 1489 002a 474B     		ldr	r3, .L179
 1490 002c 1B88     		ldrh	r3, [r3]
 1491 002e 002B     		cmp	r3, #0
 1492 0030 01D1     		bne	.L162
 1493              		.loc 1 1482 0 is_stmt 0 discriminator 1
 1494              		.syntax divided
 1495              	@ 1482 "..\FreeRTOS\Source\queue.c" 1
 1496 0032 72B6     		 cpsid i 
 1497              	@ 0 "" 2
 1498              		.thumb
 1499              		.syntax unified
 1500              	.L163:
 1501              		.loc 1 1482 0 discriminator 3
 1502 0034 FEE7     		b	.L163
 1503              	.L162:
 1504              		.loc 1 1482 0 discriminator 2
 1505 0036 FFF7FEFF 		bl	xTaskGetSchedulerState
 1506 003a 031E     		subs	r3, r0, #0
 1507 003c 00D1     		bne	.L166
 1508              		.loc 1 1482 0 discriminator 4
 1509 003e 3B68     		ldr	r3, [r7]
 1510              	.L166:
1483:..\FreeRTOS\Source/queue.c ****         }
1484:..\FreeRTOS\Source/queue.c ****     #endif
1485:..\FreeRTOS\Source/queue.c **** 
1486:..\FreeRTOS\Source/queue.c ****     /*lint -save -e904 This function relaxes the coding standard somewhat to allow return
1487:..\FreeRTOS\Source/queue.c ****      * statements within the function itself.  This is done in the interest
1488:..\FreeRTOS\Source/queue.c ****      * of execution time efficiency. */
1489:..\FreeRTOS\Source/queue.c ****     for( ; ; )
1490:..\FreeRTOS\Source/queue.c ****     {
1491:..\FreeRTOS\Source/queue.c ****         taskENTER_CRITICAL();
 1511              		.loc 1 1491 0 is_stmt 1
 1512 0040 FFF7FEFF 		bl	vPortEnterCritical
 1513              	.LBB7:
1492:..\FreeRTOS\Source/queue.c ****         {
1493:..\FreeRTOS\Source/queue.c ****             /* Semaphores are queues with an item size of 0, and where the
1494:..\FreeRTOS\Source/queue.c ****              * number of messages in the queue is the semaphore's count value. */
1495:..\FreeRTOS\Source/queue.c ****             const UBaseType_t uxSemaphoreCount = pxQueue->uxMessagesWaiting;
 1514              		.loc 1 1495 0
 1515 0044 BB69     		ldr	r3, [r7, #24]
 1516 0046 9B6B     		ldr	r3, [r3, #56]
 1517 0048 7B61     		str	r3, [r7, #20]
1496:..\FreeRTOS\Source/queue.c **** 
1497:..\FreeRTOS\Source/queue.c ****             /* Is there data in the queue now?  To be running the calling task
1498:..\FreeRTOS\Source/queue.c ****              * must be the highest priority task wanting to access the queue. */
1499:..\FreeRTOS\Source/queue.c ****             if( uxSemaphoreCount > ( UBaseType_t ) 0 )
 1518              		.loc 1 1499 0
 1519 004a 7B69     		ldr	r3, [r7, #20]
 1520 004c 002B     		cmp	r3, #0
 1521 004e 14D0     		beq	.L167
ARM GAS  C:\Users\Jason\AppData\Local\Temp\ccMsFGiZ.s 			page 54


1500:..\FreeRTOS\Source/queue.c ****             {
1501:..\FreeRTOS\Source/queue.c ****                 traceQUEUE_RECEIVE( pxQueue );
1502:..\FreeRTOS\Source/queue.c **** 
1503:..\FreeRTOS\Source/queue.c ****                 /* Semaphores are queues with a data size of zero and where the
1504:..\FreeRTOS\Source/queue.c ****                  * messages waiting is the semaphore's count.  Reduce the count. */
1505:..\FreeRTOS\Source/queue.c ****                 pxQueue->uxMessagesWaiting = uxSemaphoreCount - ( UBaseType_t ) 1;
 1522              		.loc 1 1505 0
 1523 0050 7B69     		ldr	r3, [r7, #20]
 1524 0052 5A1E     		subs	r2, r3, #1
 1525 0054 BB69     		ldr	r3, [r7, #24]
 1526 0056 9A63     		str	r2, [r3, #56]
1506:..\FreeRTOS\Source/queue.c **** 
1507:..\FreeRTOS\Source/queue.c ****                 #if ( configUSE_MUTEXES == 1 )
1508:..\FreeRTOS\Source/queue.c ****                     {
1509:..\FreeRTOS\Source/queue.c ****                         if( pxQueue->uxQueueType == queueQUEUE_IS_MUTEX )
1510:..\FreeRTOS\Source/queue.c ****                         {
1511:..\FreeRTOS\Source/queue.c ****                             /* Record the information required to implement
1512:..\FreeRTOS\Source/queue.c ****                              * priority inheritance should it become necessary. */
1513:..\FreeRTOS\Source/queue.c ****                             pxQueue->u.xSemaphore.xMutexHolder = pvTaskIncrementMutexHeldCount();
1514:..\FreeRTOS\Source/queue.c ****                         }
1515:..\FreeRTOS\Source/queue.c ****                         else
1516:..\FreeRTOS\Source/queue.c ****                         {
1517:..\FreeRTOS\Source/queue.c ****                             mtCOVERAGE_TEST_MARKER();
1518:..\FreeRTOS\Source/queue.c ****                         }
1519:..\FreeRTOS\Source/queue.c ****                     }
1520:..\FreeRTOS\Source/queue.c ****                 #endif /* configUSE_MUTEXES */
1521:..\FreeRTOS\Source/queue.c **** 
1522:..\FreeRTOS\Source/queue.c ****                 /* Check to see if other tasks are blocked waiting to give the
1523:..\FreeRTOS\Source/queue.c ****                  * semaphore, and if so, unblock the highest priority such task. */
1524:..\FreeRTOS\Source/queue.c ****                 if( listLIST_IS_EMPTY( &( pxQueue->xTasksWaitingToSend ) ) == pdFALSE )
 1527              		.loc 1 1524 0
 1528 0058 BB69     		ldr	r3, [r7, #24]
 1529 005a 1B69     		ldr	r3, [r3, #16]
 1530 005c 002B     		cmp	r3, #0
 1531 005e 08D0     		beq	.L168
1525:..\FreeRTOS\Source/queue.c ****                 {
1526:..\FreeRTOS\Source/queue.c ****                     if( xTaskRemoveFromEventList( &( pxQueue->xTasksWaitingToSend ) ) != pdFALSE )
 1532              		.loc 1 1526 0
 1533 0060 BB69     		ldr	r3, [r7, #24]
 1534 0062 1033     		adds	r3, r3, #16
 1535 0064 1800     		movs	r0, r3
 1536 0066 FFF7FEFF 		bl	xTaskRemoveFromEventList
 1537 006a 031E     		subs	r3, r0, #0
 1538 006c 01D0     		beq	.L168
1527:..\FreeRTOS\Source/queue.c ****                     {
1528:..\FreeRTOS\Source/queue.c ****                         queueYIELD_IF_USING_PREEMPTION();
 1539              		.loc 1 1528 0
 1540 006e FFF7FEFF 		bl	vPortYield
 1541              	.L168:
1529:..\FreeRTOS\Source/queue.c ****                     }
1530:..\FreeRTOS\Source/queue.c ****                     else
1531:..\FreeRTOS\Source/queue.c ****                     {
1532:..\FreeRTOS\Source/queue.c ****                         mtCOVERAGE_TEST_MARKER();
1533:..\FreeRTOS\Source/queue.c ****                     }
1534:..\FreeRTOS\Source/queue.c ****                 }
1535:..\FreeRTOS\Source/queue.c ****                 else
1536:..\FreeRTOS\Source/queue.c ****                 {
ARM GAS  C:\Users\Jason\AppData\Local\Temp\ccMsFGiZ.s 			page 55


1537:..\FreeRTOS\Source/queue.c ****                     mtCOVERAGE_TEST_MARKER();
1538:..\FreeRTOS\Source/queue.c ****                 }
1539:..\FreeRTOS\Source/queue.c **** 
1540:..\FreeRTOS\Source/queue.c ****                 taskEXIT_CRITICAL();
 1542              		.loc 1 1540 0
 1543 0072 FFF7FEFF 		bl	vPortExitCritical
1541:..\FreeRTOS\Source/queue.c ****                 return pdPASS;
 1544              		.loc 1 1541 0
 1545 0076 0123     		movs	r3, #1
 1546 0078 62E0     		b	.L178
 1547              	.L167:
1542:..\FreeRTOS\Source/queue.c ****             }
1543:..\FreeRTOS\Source/queue.c ****             else
1544:..\FreeRTOS\Source/queue.c ****             {
1545:..\FreeRTOS\Source/queue.c ****                 if( xTicksToWait == ( TickType_t ) 0 )
 1548              		.loc 1 1545 0
 1549 007a 3B68     		ldr	r3, [r7]
 1550 007c 002B     		cmp	r3, #0
 1551 007e 03D1     		bne	.L170
1546:..\FreeRTOS\Source/queue.c ****                 {
1547:..\FreeRTOS\Source/queue.c ****                     /* For inheritance to have occurred there must have been an
1548:..\FreeRTOS\Source/queue.c ****                      * initial timeout, and an adjusted timeout cannot become 0, as
1549:..\FreeRTOS\Source/queue.c ****                      * if it were 0 the function would have exited. */
1550:..\FreeRTOS\Source/queue.c ****                     #if ( configUSE_MUTEXES == 1 )
1551:..\FreeRTOS\Source/queue.c ****                         {
1552:..\FreeRTOS\Source/queue.c ****                             configASSERT( xInheritanceOccurred == pdFALSE );
1553:..\FreeRTOS\Source/queue.c ****                         }
1554:..\FreeRTOS\Source/queue.c ****                     #endif /* configUSE_MUTEXES */
1555:..\FreeRTOS\Source/queue.c **** 
1556:..\FreeRTOS\Source/queue.c ****                     /* The semaphore count was 0 and no block time is specified
1557:..\FreeRTOS\Source/queue.c ****                      * (or the block time has expired) so exit now. */
1558:..\FreeRTOS\Source/queue.c ****                     taskEXIT_CRITICAL();
 1552              		.loc 1 1558 0
 1553 0080 FFF7FEFF 		bl	vPortExitCritical
1559:..\FreeRTOS\Source/queue.c ****                     traceQUEUE_RECEIVE_FAILED( pxQueue );
1560:..\FreeRTOS\Source/queue.c ****                     return errQUEUE_EMPTY;
 1554              		.loc 1 1560 0
 1555 0084 0023     		movs	r3, #0
 1556 0086 5BE0     		b	.L178
 1557              	.L170:
1561:..\FreeRTOS\Source/queue.c ****                 }
1562:..\FreeRTOS\Source/queue.c ****                 else if( xEntryTimeSet == pdFALSE )
 1558              		.loc 1 1562 0
 1559 0088 FB69     		ldr	r3, [r7, #28]
 1560 008a 002B     		cmp	r3, #0
 1561 008c 06D1     		bne	.L171
1563:..\FreeRTOS\Source/queue.c ****                 {
1564:..\FreeRTOS\Source/queue.c ****                     /* The semaphore count was 0 and a block time was specified
1565:..\FreeRTOS\Source/queue.c ****                      * so configure the timeout structure ready to block. */
1566:..\FreeRTOS\Source/queue.c ****                     vTaskInternalSetTimeOutState( &xTimeOut );
 1562              		.loc 1 1566 0
 1563 008e 0C23     		movs	r3, #12
 1564 0090 FB18     		adds	r3, r7, r3
 1565 0092 1800     		movs	r0, r3
 1566 0094 FFF7FEFF 		bl	vTaskInternalSetTimeOutState
1567:..\FreeRTOS\Source/queue.c ****                     xEntryTimeSet = pdTRUE;
 1567              		.loc 1 1567 0
ARM GAS  C:\Users\Jason\AppData\Local\Temp\ccMsFGiZ.s 			page 56


 1568 0098 0123     		movs	r3, #1
 1569 009a FB61     		str	r3, [r7, #28]
 1570              	.L171:
 1571              	.LBE7:
1568:..\FreeRTOS\Source/queue.c ****                 }
1569:..\FreeRTOS\Source/queue.c ****                 else
1570:..\FreeRTOS\Source/queue.c ****                 {
1571:..\FreeRTOS\Source/queue.c ****                     /* Entry time was already set. */
1572:..\FreeRTOS\Source/queue.c ****                     mtCOVERAGE_TEST_MARKER();
1573:..\FreeRTOS\Source/queue.c ****                 }
1574:..\FreeRTOS\Source/queue.c ****             }
1575:..\FreeRTOS\Source/queue.c ****         }
1576:..\FreeRTOS\Source/queue.c ****         taskEXIT_CRITICAL();
 1572              		.loc 1 1576 0
 1573 009c FFF7FEFF 		bl	vPortExitCritical
1577:..\FreeRTOS\Source/queue.c **** 
1578:..\FreeRTOS\Source/queue.c ****         /* Interrupts and other tasks can give to and take from the semaphore
1579:..\FreeRTOS\Source/queue.c ****          * now the critical section has been exited. */
1580:..\FreeRTOS\Source/queue.c **** 
1581:..\FreeRTOS\Source/queue.c ****         vTaskSuspendAll();
 1574              		.loc 1 1581 0
 1575 00a0 FFF7FEFF 		bl	vTaskSuspendAll
1582:..\FreeRTOS\Source/queue.c ****         prvLockQueue( pxQueue );
 1576              		.loc 1 1582 0
 1577 00a4 FFF7FEFF 		bl	vPortEnterCritical
 1578 00a8 BB69     		ldr	r3, [r7, #24]
 1579 00aa 4422     		movs	r2, #68
 1580 00ac 9B5C     		ldrb	r3, [r3, r2]
 1581 00ae 5BB2     		sxtb	r3, r3
 1582 00b0 0133     		adds	r3, r3, #1
 1583 00b2 03D1     		bne	.L172
 1584              		.loc 1 1582 0 is_stmt 0 discriminator 1
 1585 00b4 BB69     		ldr	r3, [r7, #24]
 1586 00b6 4422     		movs	r2, #68
 1587 00b8 0021     		movs	r1, #0
 1588 00ba 9954     		strb	r1, [r3, r2]
 1589              	.L172:
 1590              		.loc 1 1582 0 discriminator 3
 1591 00bc BB69     		ldr	r3, [r7, #24]
 1592 00be 4522     		movs	r2, #69
 1593 00c0 9B5C     		ldrb	r3, [r3, r2]
 1594 00c2 5BB2     		sxtb	r3, r3
 1595 00c4 0133     		adds	r3, r3, #1
 1596 00c6 03D1     		bne	.L173
 1597              		.loc 1 1582 0 discriminator 4
 1598 00c8 BB69     		ldr	r3, [r7, #24]
 1599 00ca 4522     		movs	r2, #69
 1600 00cc 0021     		movs	r1, #0
 1601 00ce 9954     		strb	r1, [r3, r2]
 1602              	.L173:
 1603              		.loc 1 1582 0 discriminator 6
 1604 00d0 FFF7FEFF 		bl	vPortExitCritical
1583:..\FreeRTOS\Source/queue.c **** 
1584:..\FreeRTOS\Source/queue.c ****         /* Update the timeout state to see if it has expired yet. */
1585:..\FreeRTOS\Source/queue.c ****         if( xTaskCheckForTimeOut( &xTimeOut, &xTicksToWait ) == pdFALSE )
 1605              		.loc 1 1585 0 is_stmt 1 discriminator 6
 1606 00d4 3A00     		movs	r2, r7
ARM GAS  C:\Users\Jason\AppData\Local\Temp\ccMsFGiZ.s 			page 57


 1607 00d6 0C23     		movs	r3, #12
 1608 00d8 FB18     		adds	r3, r7, r3
 1609 00da 1100     		movs	r1, r2
 1610 00dc 1800     		movs	r0, r3
 1611 00de FFF7FEFF 		bl	xTaskCheckForTimeOut
 1612 00e2 031E     		subs	r3, r0, #0
 1613 00e4 1ED1     		bne	.L174
1586:..\FreeRTOS\Source/queue.c ****         {
1587:..\FreeRTOS\Source/queue.c ****             /* A block time is specified and not expired.  If the semaphore
1588:..\FreeRTOS\Source/queue.c ****              * count is 0 then enter the Blocked state to wait for a semaphore to
1589:..\FreeRTOS\Source/queue.c ****              * become available.  As semaphores are implemented with queues the
1590:..\FreeRTOS\Source/queue.c ****              * queue being empty is equivalent to the semaphore count being 0. */
1591:..\FreeRTOS\Source/queue.c ****             if( prvIsQueueEmpty( pxQueue ) != pdFALSE )
 1614              		.loc 1 1591 0
 1615 00e6 BB69     		ldr	r3, [r7, #24]
 1616 00e8 1800     		movs	r0, r3
 1617 00ea FFF7FEFF 		bl	prvIsQueueEmpty
 1618 00ee 031E     		subs	r3, r0, #0
 1619 00f0 11D0     		beq	.L175
1592:..\FreeRTOS\Source/queue.c ****             {
1593:..\FreeRTOS\Source/queue.c ****                 traceBLOCKING_ON_QUEUE_RECEIVE( pxQueue );
1594:..\FreeRTOS\Source/queue.c **** 
1595:..\FreeRTOS\Source/queue.c ****                 #if ( configUSE_MUTEXES == 1 )
1596:..\FreeRTOS\Source/queue.c ****                     {
1597:..\FreeRTOS\Source/queue.c ****                         if( pxQueue->uxQueueType == queueQUEUE_IS_MUTEX )
1598:..\FreeRTOS\Source/queue.c ****                         {
1599:..\FreeRTOS\Source/queue.c ****                             taskENTER_CRITICAL();
1600:..\FreeRTOS\Source/queue.c ****                             {
1601:..\FreeRTOS\Source/queue.c ****                                 xInheritanceOccurred = xTaskPriorityInherit( pxQueue->u.xSemaphore.
1602:..\FreeRTOS\Source/queue.c ****                             }
1603:..\FreeRTOS\Source/queue.c ****                             taskEXIT_CRITICAL();
1604:..\FreeRTOS\Source/queue.c ****                         }
1605:..\FreeRTOS\Source/queue.c ****                         else
1606:..\FreeRTOS\Source/queue.c ****                         {
1607:..\FreeRTOS\Source/queue.c ****                             mtCOVERAGE_TEST_MARKER();
1608:..\FreeRTOS\Source/queue.c ****                         }
1609:..\FreeRTOS\Source/queue.c ****                     }
1610:..\FreeRTOS\Source/queue.c ****                 #endif /* if ( configUSE_MUTEXES == 1 ) */
1611:..\FreeRTOS\Source/queue.c **** 
1612:..\FreeRTOS\Source/queue.c ****                 vTaskPlaceOnEventList( &( pxQueue->xTasksWaitingToReceive ), xTicksToWait );
 1620              		.loc 1 1612 0
 1621 00f2 BB69     		ldr	r3, [r7, #24]
 1622 00f4 2433     		adds	r3, r3, #36
 1623 00f6 3A68     		ldr	r2, [r7]
 1624 00f8 1100     		movs	r1, r2
 1625 00fa 1800     		movs	r0, r3
 1626 00fc FFF7FEFF 		bl	vTaskPlaceOnEventList
1613:..\FreeRTOS\Source/queue.c ****                 prvUnlockQueue( pxQueue );
 1627              		.loc 1 1613 0
 1628 0100 BB69     		ldr	r3, [r7, #24]
 1629 0102 1800     		movs	r0, r3
 1630 0104 FFF7FEFF 		bl	prvUnlockQueue
1614:..\FreeRTOS\Source/queue.c **** 
1615:..\FreeRTOS\Source/queue.c ****                 if( xTaskResumeAll() == pdFALSE )
 1631              		.loc 1 1615 0
 1632 0108 FFF7FEFF 		bl	xTaskResumeAll
 1633 010c 031E     		subs	r3, r0, #0
ARM GAS  C:\Users\Jason\AppData\Local\Temp\ccMsFGiZ.s 			page 58


 1634 010e 97D1     		bne	.L166
1616:..\FreeRTOS\Source/queue.c ****                 {
1617:..\FreeRTOS\Source/queue.c ****                     portYIELD_WITHIN_API();
 1635              		.loc 1 1617 0
 1636 0110 FFF7FEFF 		bl	vPortYield
 1637 0114 94E7     		b	.L166
 1638              	.L175:
1618:..\FreeRTOS\Source/queue.c ****                 }
1619:..\FreeRTOS\Source/queue.c ****                 else
1620:..\FreeRTOS\Source/queue.c ****                 {
1621:..\FreeRTOS\Source/queue.c ****                     mtCOVERAGE_TEST_MARKER();
1622:..\FreeRTOS\Source/queue.c ****                 }
1623:..\FreeRTOS\Source/queue.c ****             }
1624:..\FreeRTOS\Source/queue.c ****             else
1625:..\FreeRTOS\Source/queue.c ****             {
1626:..\FreeRTOS\Source/queue.c ****                 /* There was no timeout and the semaphore count was not 0, so
1627:..\FreeRTOS\Source/queue.c ****                  * attempt to take the semaphore again. */
1628:..\FreeRTOS\Source/queue.c ****                 prvUnlockQueue( pxQueue );
 1639              		.loc 1 1628 0
 1640 0116 BB69     		ldr	r3, [r7, #24]
 1641 0118 1800     		movs	r0, r3
 1642 011a FFF7FEFF 		bl	prvUnlockQueue
1629:..\FreeRTOS\Source/queue.c ****                 ( void ) xTaskResumeAll();
 1643              		.loc 1 1629 0
 1644 011e FFF7FEFF 		bl	xTaskResumeAll
 1645 0122 8DE7     		b	.L166
 1646              	.L174:
1630:..\FreeRTOS\Source/queue.c ****             }
1631:..\FreeRTOS\Source/queue.c ****         }
1632:..\FreeRTOS\Source/queue.c ****         else
1633:..\FreeRTOS\Source/queue.c ****         {
1634:..\FreeRTOS\Source/queue.c ****             /* Timed out. */
1635:..\FreeRTOS\Source/queue.c ****             prvUnlockQueue( pxQueue );
 1647              		.loc 1 1635 0
 1648 0124 BB69     		ldr	r3, [r7, #24]
 1649 0126 1800     		movs	r0, r3
 1650 0128 FFF7FEFF 		bl	prvUnlockQueue
1636:..\FreeRTOS\Source/queue.c ****             ( void ) xTaskResumeAll();
 1651              		.loc 1 1636 0
 1652 012c FFF7FEFF 		bl	xTaskResumeAll
1637:..\FreeRTOS\Source/queue.c **** 
1638:..\FreeRTOS\Source/queue.c ****             /* If the semaphore count is 0 exit now as the timeout has
1639:..\FreeRTOS\Source/queue.c ****              * expired.  Otherwise return to attempt to take the semaphore that is
1640:..\FreeRTOS\Source/queue.c ****              * known to be available.  As semaphores are implemented by queues the
1641:..\FreeRTOS\Source/queue.c ****              * queue being empty is equivalent to the semaphore count being 0. */
1642:..\FreeRTOS\Source/queue.c ****             if( prvIsQueueEmpty( pxQueue ) != pdFALSE )
 1653              		.loc 1 1642 0
 1654 0130 BB69     		ldr	r3, [r7, #24]
 1655 0132 1800     		movs	r0, r3
 1656 0134 FFF7FEFF 		bl	prvIsQueueEmpty
 1657 0138 031E     		subs	r3, r0, #0
 1658 013a 00D1     		bne	.LCB1357
 1659 013c 80E7     		b	.L166	@long jump
 1660              	.LCB1357:
1643:..\FreeRTOS\Source/queue.c ****             {
1644:..\FreeRTOS\Source/queue.c ****                 #if ( configUSE_MUTEXES == 1 )
1645:..\FreeRTOS\Source/queue.c ****                     {
ARM GAS  C:\Users\Jason\AppData\Local\Temp\ccMsFGiZ.s 			page 59


1646:..\FreeRTOS\Source/queue.c ****                         /* xInheritanceOccurred could only have be set if
1647:..\FreeRTOS\Source/queue.c ****                          * pxQueue->uxQueueType == queueQUEUE_IS_MUTEX so no need to
1648:..\FreeRTOS\Source/queue.c ****                          * test the mutex type again to check it is actually a mutex. */
1649:..\FreeRTOS\Source/queue.c ****                         if( xInheritanceOccurred != pdFALSE )
1650:..\FreeRTOS\Source/queue.c ****                         {
1651:..\FreeRTOS\Source/queue.c ****                             taskENTER_CRITICAL();
1652:..\FreeRTOS\Source/queue.c ****                             {
1653:..\FreeRTOS\Source/queue.c ****                                 UBaseType_t uxHighestWaitingPriority;
1654:..\FreeRTOS\Source/queue.c **** 
1655:..\FreeRTOS\Source/queue.c ****                                 /* This task blocking on the mutex caused another
1656:..\FreeRTOS\Source/queue.c ****                                  * task to inherit this task's priority.  Now this task
1657:..\FreeRTOS\Source/queue.c ****                                  * has timed out the priority should be disinherited
1658:..\FreeRTOS\Source/queue.c ****                                  * again, but only as low as the next highest priority
1659:..\FreeRTOS\Source/queue.c ****                                  * task that is waiting for the same mutex. */
1660:..\FreeRTOS\Source/queue.c ****                                 uxHighestWaitingPriority = prvGetDisinheritPriorityAfterTimeout( px
1661:..\FreeRTOS\Source/queue.c ****                                 vTaskPriorityDisinheritAfterTimeout( pxQueue->u.xSemaphore.xMutexHo
1662:..\FreeRTOS\Source/queue.c ****                             }
1663:..\FreeRTOS\Source/queue.c ****                             taskEXIT_CRITICAL();
1664:..\FreeRTOS\Source/queue.c ****                         }
1665:..\FreeRTOS\Source/queue.c ****                     }
1666:..\FreeRTOS\Source/queue.c ****                 #endif /* configUSE_MUTEXES */
1667:..\FreeRTOS\Source/queue.c **** 
1668:..\FreeRTOS\Source/queue.c ****                 traceQUEUE_RECEIVE_FAILED( pxQueue );
1669:..\FreeRTOS\Source/queue.c ****                 return errQUEUE_EMPTY;
 1661              		.loc 1 1669 0
 1662 013e 0023     		movs	r3, #0
 1663              	.L178:
1670:..\FreeRTOS\Source/queue.c ****             }
1671:..\FreeRTOS\Source/queue.c ****             else
1672:..\FreeRTOS\Source/queue.c ****             {
1673:..\FreeRTOS\Source/queue.c ****                 mtCOVERAGE_TEST_MARKER();
1674:..\FreeRTOS\Source/queue.c ****             }
1675:..\FreeRTOS\Source/queue.c ****         }
1676:..\FreeRTOS\Source/queue.c ****     } /*lint -restore */
1677:..\FreeRTOS\Source/queue.c **** }
 1664              		.loc 1 1677 0 discriminator 6
 1665 0140 1800     		movs	r0, r3
 1666 0142 BD46     		mov	sp, r7
 1667 0144 08B0     		add	sp, sp, #32
 1668              		@ sp needed
 1669 0146 80BD     		pop	{r7, pc}
 1670              	.L180:
 1671              		.align	2
 1672              	.L179:
 1673 0148 00000000 		.word	x
 1674              		.cfi_endproc
 1675              	.LFE8:
 1676              		.size	xQueueSemaphoreTake, .-xQueueSemaphoreTake
 1677              		.section	.text.xQueuePeek,"ax",%progbits
 1678              		.align	2
 1679              		.global	xQueuePeek
 1680              		.code	16
 1681              		.thumb_func
 1682              		.type	xQueuePeek, %function
 1683              	xQueuePeek:
 1684              	.LFB9:
1678:..\FreeRTOS\Source/queue.c **** /*-----------------------------------------------------------*/
ARM GAS  C:\Users\Jason\AppData\Local\Temp\ccMsFGiZ.s 			page 60


1679:..\FreeRTOS\Source/queue.c **** 
1680:..\FreeRTOS\Source/queue.c **** BaseType_t xQueuePeek( QueueHandle_t xQueue,
1681:..\FreeRTOS\Source/queue.c ****                        void * const pvBuffer,
1682:..\FreeRTOS\Source/queue.c ****                        TickType_t xTicksToWait )
1683:..\FreeRTOS\Source/queue.c **** {
 1685              		.loc 1 1683 0
 1686              		.cfi_startproc
 1687              		@ args = 0, pretend = 0, frame = 40
 1688              		@ frame_needed = 1, uses_anonymous_args = 0
 1689 0000 80B5     		push	{r7, lr}
 1690              		.cfi_def_cfa_offset 8
 1691              		.cfi_offset 7, -8
 1692              		.cfi_offset 14, -4
 1693 0002 8AB0     		sub	sp, sp, #40
 1694              		.cfi_def_cfa_offset 48
 1695 0004 00AF     		add	r7, sp, #0
 1696              		.cfi_def_cfa_register 7
 1697 0006 F860     		str	r0, [r7, #12]
 1698 0008 B960     		str	r1, [r7, #8]
 1699 000a 7A60     		str	r2, [r7, #4]
1684:..\FreeRTOS\Source/queue.c ****     BaseType_t xEntryTimeSet = pdFALSE;
 1700              		.loc 1 1684 0
 1701 000c 0023     		movs	r3, #0
 1702 000e 7B62     		str	r3, [r7, #36]
1685:..\FreeRTOS\Source/queue.c ****     TimeOut_t xTimeOut;
1686:..\FreeRTOS\Source/queue.c ****     int8_t * pcOriginalReadPosition;
1687:..\FreeRTOS\Source/queue.c ****     Queue_t * const pxQueue = xQueue;
 1703              		.loc 1 1687 0
 1704 0010 FB68     		ldr	r3, [r7, #12]
 1705 0012 3B62     		str	r3, [r7, #32]
1688:..\FreeRTOS\Source/queue.c **** 
1689:..\FreeRTOS\Source/queue.c ****     /* Check the pointer is not NULL. */
1690:..\FreeRTOS\Source/queue.c ****     configASSERT( ( pxQueue ) );
 1706              		.loc 1 1690 0
 1707 0014 524B     		ldr	r3, .L207
 1708 0016 1B88     		ldrh	r3, [r3]
 1709 0018 002B     		cmp	r3, #0
 1710 001a 01D1     		bne	.L182
 1711              		.loc 1 1690 0 is_stmt 0 discriminator 1
 1712              		.syntax divided
 1713              	@ 1690 "..\FreeRTOS\Source\queue.c" 1
 1714 001c 72B6     		 cpsid i 
 1715              	@ 0 "" 2
 1716              		.thumb
 1717              		.syntax unified
 1718              	.L183:
 1719 001e FEE7     		b	.L183
 1720              	.L182:
1691:..\FreeRTOS\Source/queue.c **** 
1692:..\FreeRTOS\Source/queue.c ****     /* The buffer into which data is received can only be NULL if the data size
1693:..\FreeRTOS\Source/queue.c ****      * is zero (so no data is copied into the buffer. */
1694:..\FreeRTOS\Source/queue.c ****     configASSERT( !( ( ( pvBuffer ) == NULL ) && ( ( pxQueue )->uxItemSize != ( UBaseType_t ) 0U ) 
 1721              		.loc 1 1694 0 is_stmt 1
 1722 0020 4F4B     		ldr	r3, .L207
 1723 0022 1B88     		ldrh	r3, [r3]
 1724 0024 002B     		cmp	r3, #0
 1725 0026 01D1     		bne	.L184
ARM GAS  C:\Users\Jason\AppData\Local\Temp\ccMsFGiZ.s 			page 61


 1726              		.loc 1 1694 0 is_stmt 0 discriminator 1
 1727              		.syntax divided
 1728              	@ 1694 "..\FreeRTOS\Source\queue.c" 1
 1729 0028 72B6     		 cpsid i 
 1730              	@ 0 "" 2
 1731              		.thumb
 1732              		.syntax unified
 1733              	.L185:
 1734              		.loc 1 1694 0 discriminator 2
 1735 002a FEE7     		b	.L185
 1736              	.L184:
 1737 002c BB68     		ldr	r3, [r7, #8]
 1738 002e C046     		nop
1695:..\FreeRTOS\Source/queue.c **** 
1696:..\FreeRTOS\Source/queue.c ****     /* Cannot block if the scheduler is suspended. */
1697:..\FreeRTOS\Source/queue.c ****     #if ( ( INCLUDE_xTaskGetSchedulerState == 1 ) || ( configUSE_TIMERS == 1 ) )
1698:..\FreeRTOS\Source/queue.c ****         {
1699:..\FreeRTOS\Source/queue.c ****             configASSERT( !( ( xTaskGetSchedulerState() == taskSCHEDULER_SUSPENDED ) && ( xTicksToW
 1739              		.loc 1 1699 0 is_stmt 1 discriminator 2
 1740 0030 4B4B     		ldr	r3, .L207
 1741 0032 1B88     		ldrh	r3, [r3]
 1742 0034 002B     		cmp	r3, #0
 1743 0036 01D1     		bne	.L189
 1744              		.loc 1 1699 0 is_stmt 0 discriminator 1
 1745              		.syntax divided
 1746              	@ 1699 "..\FreeRTOS\Source\queue.c" 1
 1747 0038 72B6     		 cpsid i 
 1748              	@ 0 "" 2
 1749              		.thumb
 1750              		.syntax unified
 1751              	.L190:
 1752              		.loc 1 1699 0 discriminator 3
 1753 003a FEE7     		b	.L190
 1754              	.L189:
 1755              		.loc 1 1699 0 discriminator 2
 1756 003c FFF7FEFF 		bl	xTaskGetSchedulerState
 1757 0040 031E     		subs	r3, r0, #0
 1758 0042 00D1     		bne	.L193
 1759              		.loc 1 1699 0 discriminator 4
 1760 0044 7B68     		ldr	r3, [r7, #4]
 1761              	.L193:
1700:..\FreeRTOS\Source/queue.c ****         }
1701:..\FreeRTOS\Source/queue.c ****     #endif
1702:..\FreeRTOS\Source/queue.c **** 
1703:..\FreeRTOS\Source/queue.c ****     /*lint -save -e904  This function relaxes the coding standard somewhat to
1704:..\FreeRTOS\Source/queue.c ****      * allow return statements within the function itself.  This is done in the
1705:..\FreeRTOS\Source/queue.c ****      * interest of execution time efficiency. */
1706:..\FreeRTOS\Source/queue.c ****     for( ; ; )
1707:..\FreeRTOS\Source/queue.c ****     {
1708:..\FreeRTOS\Source/queue.c ****         taskENTER_CRITICAL();
 1762              		.loc 1 1708 0 is_stmt 1
 1763 0046 FFF7FEFF 		bl	vPortEnterCritical
 1764              	.LBB8:
1709:..\FreeRTOS\Source/queue.c ****         {
1710:..\FreeRTOS\Source/queue.c ****             const UBaseType_t uxMessagesWaiting = pxQueue->uxMessagesWaiting;
 1765              		.loc 1 1710 0
 1766 004a 3B6A     		ldr	r3, [r7, #32]
ARM GAS  C:\Users\Jason\AppData\Local\Temp\ccMsFGiZ.s 			page 62


 1767 004c 9B6B     		ldr	r3, [r3, #56]
 1768 004e FB61     		str	r3, [r7, #28]
1711:..\FreeRTOS\Source/queue.c **** 
1712:..\FreeRTOS\Source/queue.c ****             /* Is there data in the queue now?  To be running the calling task
1713:..\FreeRTOS\Source/queue.c ****              * must be the highest priority task wanting to access the queue. */
1714:..\FreeRTOS\Source/queue.c ****             if( uxMessagesWaiting > ( UBaseType_t ) 0 )
 1769              		.loc 1 1714 0
 1770 0050 FB69     		ldr	r3, [r7, #28]
 1771 0052 002B     		cmp	r3, #0
 1772 0054 1CD0     		beq	.L194
1715:..\FreeRTOS\Source/queue.c ****             {
1716:..\FreeRTOS\Source/queue.c ****                 /* Remember the read position so it can be reset after the data
1717:..\FreeRTOS\Source/queue.c ****                  * is read from the queue as this function is only peeking the
1718:..\FreeRTOS\Source/queue.c ****                  * data, not removing it. */
1719:..\FreeRTOS\Source/queue.c ****                 pcOriginalReadPosition = pxQueue->u.xQueue.pcReadFrom;
 1773              		.loc 1 1719 0
 1774 0056 3B6A     		ldr	r3, [r7, #32]
 1775 0058 DB68     		ldr	r3, [r3, #12]
 1776 005a BB61     		str	r3, [r7, #24]
1720:..\FreeRTOS\Source/queue.c **** 
1721:..\FreeRTOS\Source/queue.c ****                 prvCopyDataFromQueue( pxQueue, pvBuffer );
 1777              		.loc 1 1721 0
 1778 005c BA68     		ldr	r2, [r7, #8]
 1779 005e 3B6A     		ldr	r3, [r7, #32]
 1780 0060 1100     		movs	r1, r2
 1781 0062 1800     		movs	r0, r3
 1782 0064 FFF7FEFF 		bl	prvCopyDataFromQueue
1722:..\FreeRTOS\Source/queue.c ****                 traceQUEUE_PEEK( pxQueue );
1723:..\FreeRTOS\Source/queue.c **** 
1724:..\FreeRTOS\Source/queue.c ****                 /* The data is not being removed, so reset the read pointer. */
1725:..\FreeRTOS\Source/queue.c ****                 pxQueue->u.xQueue.pcReadFrom = pcOriginalReadPosition;
 1783              		.loc 1 1725 0
 1784 0068 3B6A     		ldr	r3, [r7, #32]
 1785 006a BA69     		ldr	r2, [r7, #24]
 1786 006c DA60     		str	r2, [r3, #12]
1726:..\FreeRTOS\Source/queue.c **** 
1727:..\FreeRTOS\Source/queue.c ****                 /* The data is being left in the queue, so see if there are
1728:..\FreeRTOS\Source/queue.c ****                  * any other tasks waiting for the data. */
1729:..\FreeRTOS\Source/queue.c ****                 if( listLIST_IS_EMPTY( &( pxQueue->xTasksWaitingToReceive ) ) == pdFALSE )
 1787              		.loc 1 1729 0
 1788 006e 3B6A     		ldr	r3, [r7, #32]
 1789 0070 5B6A     		ldr	r3, [r3, #36]
 1790 0072 002B     		cmp	r3, #0
 1791 0074 08D0     		beq	.L195
1730:..\FreeRTOS\Source/queue.c ****                 {
1731:..\FreeRTOS\Source/queue.c ****                     if( xTaskRemoveFromEventList( &( pxQueue->xTasksWaitingToReceive ) ) != pdFALSE
 1792              		.loc 1 1731 0
 1793 0076 3B6A     		ldr	r3, [r7, #32]
 1794 0078 2433     		adds	r3, r3, #36
 1795 007a 1800     		movs	r0, r3
 1796 007c FFF7FEFF 		bl	xTaskRemoveFromEventList
 1797 0080 031E     		subs	r3, r0, #0
 1798 0082 01D0     		beq	.L195
1732:..\FreeRTOS\Source/queue.c ****                     {
1733:..\FreeRTOS\Source/queue.c ****                         /* The task waiting has a higher priority than this task. */
1734:..\FreeRTOS\Source/queue.c ****                         queueYIELD_IF_USING_PREEMPTION();
 1799              		.loc 1 1734 0
ARM GAS  C:\Users\Jason\AppData\Local\Temp\ccMsFGiZ.s 			page 63


 1800 0084 FFF7FEFF 		bl	vPortYield
 1801              	.L195:
1735:..\FreeRTOS\Source/queue.c ****                     }
1736:..\FreeRTOS\Source/queue.c ****                     else
1737:..\FreeRTOS\Source/queue.c ****                     {
1738:..\FreeRTOS\Source/queue.c ****                         mtCOVERAGE_TEST_MARKER();
1739:..\FreeRTOS\Source/queue.c ****                     }
1740:..\FreeRTOS\Source/queue.c ****                 }
1741:..\FreeRTOS\Source/queue.c ****                 else
1742:..\FreeRTOS\Source/queue.c ****                 {
1743:..\FreeRTOS\Source/queue.c ****                     mtCOVERAGE_TEST_MARKER();
1744:..\FreeRTOS\Source/queue.c ****                 }
1745:..\FreeRTOS\Source/queue.c **** 
1746:..\FreeRTOS\Source/queue.c ****                 taskEXIT_CRITICAL();
 1802              		.loc 1 1746 0
 1803 0088 FFF7FEFF 		bl	vPortExitCritical
1747:..\FreeRTOS\Source/queue.c ****                 return pdPASS;
 1804              		.loc 1 1747 0
 1805 008c 0123     		movs	r3, #1
 1806 008e 62E0     		b	.L205
 1807              	.L194:
1748:..\FreeRTOS\Source/queue.c ****             }
1749:..\FreeRTOS\Source/queue.c ****             else
1750:..\FreeRTOS\Source/queue.c ****             {
1751:..\FreeRTOS\Source/queue.c ****                 if( xTicksToWait == ( TickType_t ) 0 )
 1808              		.loc 1 1751 0
 1809 0090 7B68     		ldr	r3, [r7, #4]
 1810 0092 002B     		cmp	r3, #0
 1811 0094 03D1     		bne	.L197
1752:..\FreeRTOS\Source/queue.c ****                 {
1753:..\FreeRTOS\Source/queue.c ****                     /* The queue was empty and no block time is specified (or
1754:..\FreeRTOS\Source/queue.c ****                      * the block time has expired) so leave now. */
1755:..\FreeRTOS\Source/queue.c ****                     taskEXIT_CRITICAL();
 1812              		.loc 1 1755 0
 1813 0096 FFF7FEFF 		bl	vPortExitCritical
1756:..\FreeRTOS\Source/queue.c ****                     traceQUEUE_PEEK_FAILED( pxQueue );
1757:..\FreeRTOS\Source/queue.c ****                     return errQUEUE_EMPTY;
 1814              		.loc 1 1757 0
 1815 009a 0023     		movs	r3, #0
 1816 009c 5BE0     		b	.L205
 1817              	.L197:
1758:..\FreeRTOS\Source/queue.c ****                 }
1759:..\FreeRTOS\Source/queue.c ****                 else if( xEntryTimeSet == pdFALSE )
 1818              		.loc 1 1759 0
 1819 009e 7B6A     		ldr	r3, [r7, #36]
 1820 00a0 002B     		cmp	r3, #0
 1821 00a2 06D1     		bne	.L198
1760:..\FreeRTOS\Source/queue.c ****                 {
1761:..\FreeRTOS\Source/queue.c ****                     /* The queue was empty and a block time was specified so
1762:..\FreeRTOS\Source/queue.c ****                      * configure the timeout structure ready to enter the blocked
1763:..\FreeRTOS\Source/queue.c ****                      * state. */
1764:..\FreeRTOS\Source/queue.c ****                     vTaskInternalSetTimeOutState( &xTimeOut );
 1822              		.loc 1 1764 0
 1823 00a4 1023     		movs	r3, #16
 1824 00a6 FB18     		adds	r3, r7, r3
 1825 00a8 1800     		movs	r0, r3
 1826 00aa FFF7FEFF 		bl	vTaskInternalSetTimeOutState
ARM GAS  C:\Users\Jason\AppData\Local\Temp\ccMsFGiZ.s 			page 64


1765:..\FreeRTOS\Source/queue.c ****                     xEntryTimeSet = pdTRUE;
 1827              		.loc 1 1765 0
 1828 00ae 0123     		movs	r3, #1
 1829 00b0 7B62     		str	r3, [r7, #36]
 1830              	.L198:
 1831              	.LBE8:
1766:..\FreeRTOS\Source/queue.c ****                 }
1767:..\FreeRTOS\Source/queue.c ****                 else
1768:..\FreeRTOS\Source/queue.c ****                 {
1769:..\FreeRTOS\Source/queue.c ****                     /* Entry time was already set. */
1770:..\FreeRTOS\Source/queue.c ****                     mtCOVERAGE_TEST_MARKER();
1771:..\FreeRTOS\Source/queue.c ****                 }
1772:..\FreeRTOS\Source/queue.c ****             }
1773:..\FreeRTOS\Source/queue.c ****         }
1774:..\FreeRTOS\Source/queue.c ****         taskEXIT_CRITICAL();
 1832              		.loc 1 1774 0
 1833 00b2 FFF7FEFF 		bl	vPortExitCritical
1775:..\FreeRTOS\Source/queue.c **** 
1776:..\FreeRTOS\Source/queue.c ****         /* Interrupts and other tasks can send to and receive from the queue
1777:..\FreeRTOS\Source/queue.c ****          * now the critical section has been exited. */
1778:..\FreeRTOS\Source/queue.c **** 
1779:..\FreeRTOS\Source/queue.c ****         vTaskSuspendAll();
 1834              		.loc 1 1779 0
 1835 00b6 FFF7FEFF 		bl	vTaskSuspendAll
1780:..\FreeRTOS\Source/queue.c ****         prvLockQueue( pxQueue );
 1836              		.loc 1 1780 0
 1837 00ba FFF7FEFF 		bl	vPortEnterCritical
 1838 00be 3B6A     		ldr	r3, [r7, #32]
 1839 00c0 4422     		movs	r2, #68
 1840 00c2 9B5C     		ldrb	r3, [r3, r2]
 1841 00c4 5BB2     		sxtb	r3, r3
 1842 00c6 0133     		adds	r3, r3, #1
 1843 00c8 03D1     		bne	.L199
 1844              		.loc 1 1780 0 is_stmt 0 discriminator 1
 1845 00ca 3B6A     		ldr	r3, [r7, #32]
 1846 00cc 4422     		movs	r2, #68
 1847 00ce 0021     		movs	r1, #0
 1848 00d0 9954     		strb	r1, [r3, r2]
 1849              	.L199:
 1850              		.loc 1 1780 0 discriminator 3
 1851 00d2 3B6A     		ldr	r3, [r7, #32]
 1852 00d4 4522     		movs	r2, #69
 1853 00d6 9B5C     		ldrb	r3, [r3, r2]
 1854 00d8 5BB2     		sxtb	r3, r3
 1855 00da 0133     		adds	r3, r3, #1
 1856 00dc 03D1     		bne	.L200
 1857              		.loc 1 1780 0 discriminator 4
 1858 00de 3B6A     		ldr	r3, [r7, #32]
 1859 00e0 4522     		movs	r2, #69
 1860 00e2 0021     		movs	r1, #0
 1861 00e4 9954     		strb	r1, [r3, r2]
 1862              	.L200:
 1863              		.loc 1 1780 0 discriminator 6
 1864 00e6 FFF7FEFF 		bl	vPortExitCritical
1781:..\FreeRTOS\Source/queue.c **** 
1782:..\FreeRTOS\Source/queue.c ****         /* Update the timeout state to see if it has expired yet. */
1783:..\FreeRTOS\Source/queue.c ****         if( xTaskCheckForTimeOut( &xTimeOut, &xTicksToWait ) == pdFALSE )
ARM GAS  C:\Users\Jason\AppData\Local\Temp\ccMsFGiZ.s 			page 65


 1865              		.loc 1 1783 0 is_stmt 1 discriminator 6
 1866 00ea 3A1D     		adds	r2, r7, #4
 1867 00ec 1023     		movs	r3, #16
 1868 00ee FB18     		adds	r3, r7, r3
 1869 00f0 1100     		movs	r1, r2
 1870 00f2 1800     		movs	r0, r3
 1871 00f4 FFF7FEFF 		bl	xTaskCheckForTimeOut
 1872 00f8 031E     		subs	r3, r0, #0
 1873 00fa 1ED1     		bne	.L201
1784:..\FreeRTOS\Source/queue.c ****         {
1785:..\FreeRTOS\Source/queue.c ****             /* Timeout has not expired yet, check to see if there is data in the
1786:..\FreeRTOS\Source/queue.c ****             * queue now, and if not enter the Blocked state to wait for data. */
1787:..\FreeRTOS\Source/queue.c ****             if( prvIsQueueEmpty( pxQueue ) != pdFALSE )
 1874              		.loc 1 1787 0
 1875 00fc 3B6A     		ldr	r3, [r7, #32]
 1876 00fe 1800     		movs	r0, r3
 1877 0100 FFF7FEFF 		bl	prvIsQueueEmpty
 1878 0104 031E     		subs	r3, r0, #0
 1879 0106 11D0     		beq	.L202
1788:..\FreeRTOS\Source/queue.c ****             {
1789:..\FreeRTOS\Source/queue.c ****                 traceBLOCKING_ON_QUEUE_PEEK( pxQueue );
1790:..\FreeRTOS\Source/queue.c ****                 vTaskPlaceOnEventList( &( pxQueue->xTasksWaitingToReceive ), xTicksToWait );
 1880              		.loc 1 1790 0
 1881 0108 3B6A     		ldr	r3, [r7, #32]
 1882 010a 2433     		adds	r3, r3, #36
 1883 010c 7A68     		ldr	r2, [r7, #4]
 1884 010e 1100     		movs	r1, r2
 1885 0110 1800     		movs	r0, r3
 1886 0112 FFF7FEFF 		bl	vTaskPlaceOnEventList
1791:..\FreeRTOS\Source/queue.c ****                 prvUnlockQueue( pxQueue );
 1887              		.loc 1 1791 0
 1888 0116 3B6A     		ldr	r3, [r7, #32]
 1889 0118 1800     		movs	r0, r3
 1890 011a FFF7FEFF 		bl	prvUnlockQueue
1792:..\FreeRTOS\Source/queue.c **** 
1793:..\FreeRTOS\Source/queue.c ****                 if( xTaskResumeAll() == pdFALSE )
 1891              		.loc 1 1793 0
 1892 011e FFF7FEFF 		bl	xTaskResumeAll
 1893 0122 031E     		subs	r3, r0, #0
 1894 0124 8FD1     		bne	.L193
1794:..\FreeRTOS\Source/queue.c ****                 {
1795:..\FreeRTOS\Source/queue.c ****                     portYIELD_WITHIN_API();
 1895              		.loc 1 1795 0
 1896 0126 FFF7FEFF 		bl	vPortYield
 1897 012a 8CE7     		b	.L193
 1898              	.L202:
1796:..\FreeRTOS\Source/queue.c ****                 }
1797:..\FreeRTOS\Source/queue.c ****                 else
1798:..\FreeRTOS\Source/queue.c ****                 {
1799:..\FreeRTOS\Source/queue.c ****                     mtCOVERAGE_TEST_MARKER();
1800:..\FreeRTOS\Source/queue.c ****                 }
1801:..\FreeRTOS\Source/queue.c ****             }
1802:..\FreeRTOS\Source/queue.c ****             else
1803:..\FreeRTOS\Source/queue.c ****             {
1804:..\FreeRTOS\Source/queue.c ****                 /* There is data in the queue now, so don't enter the blocked
1805:..\FreeRTOS\Source/queue.c ****                  * state, instead return to try and obtain the data. */
1806:..\FreeRTOS\Source/queue.c ****                 prvUnlockQueue( pxQueue );
ARM GAS  C:\Users\Jason\AppData\Local\Temp\ccMsFGiZ.s 			page 66


 1899              		.loc 1 1806 0
 1900 012c 3B6A     		ldr	r3, [r7, #32]
 1901 012e 1800     		movs	r0, r3
 1902 0130 FFF7FEFF 		bl	prvUnlockQueue
1807:..\FreeRTOS\Source/queue.c ****                 ( void ) xTaskResumeAll();
 1903              		.loc 1 1807 0
 1904 0134 FFF7FEFF 		bl	xTaskResumeAll
 1905 0138 85E7     		b	.L193
 1906              	.L201:
1808:..\FreeRTOS\Source/queue.c ****             }
1809:..\FreeRTOS\Source/queue.c ****         }
1810:..\FreeRTOS\Source/queue.c ****         else
1811:..\FreeRTOS\Source/queue.c ****         {
1812:..\FreeRTOS\Source/queue.c ****             /* The timeout has expired.  If there is still no data in the queue
1813:..\FreeRTOS\Source/queue.c ****              * exit, otherwise go back and try to read the data again. */
1814:..\FreeRTOS\Source/queue.c ****             prvUnlockQueue( pxQueue );
 1907              		.loc 1 1814 0
 1908 013a 3B6A     		ldr	r3, [r7, #32]
 1909 013c 1800     		movs	r0, r3
 1910 013e FFF7FEFF 		bl	prvUnlockQueue
1815:..\FreeRTOS\Source/queue.c ****             ( void ) xTaskResumeAll();
 1911              		.loc 1 1815 0
 1912 0142 FFF7FEFF 		bl	xTaskResumeAll
1816:..\FreeRTOS\Source/queue.c **** 
1817:..\FreeRTOS\Source/queue.c ****             if( prvIsQueueEmpty( pxQueue ) != pdFALSE )
 1913              		.loc 1 1817 0
 1914 0146 3B6A     		ldr	r3, [r7, #32]
 1915 0148 1800     		movs	r0, r3
 1916 014a FFF7FEFF 		bl	prvIsQueueEmpty
 1917 014e 031E     		subs	r3, r0, #0
 1918 0150 00D1     		bne	.LCB1577
 1919 0152 78E7     		b	.L193	@long jump
 1920              	.LCB1577:
1818:..\FreeRTOS\Source/queue.c ****             {
1819:..\FreeRTOS\Source/queue.c ****                 traceQUEUE_PEEK_FAILED( pxQueue );
1820:..\FreeRTOS\Source/queue.c ****                 return errQUEUE_EMPTY;
 1921              		.loc 1 1820 0
 1922 0154 0023     		movs	r3, #0
 1923              	.L205:
1821:..\FreeRTOS\Source/queue.c ****             }
1822:..\FreeRTOS\Source/queue.c ****             else
1823:..\FreeRTOS\Source/queue.c ****             {
1824:..\FreeRTOS\Source/queue.c ****                 mtCOVERAGE_TEST_MARKER();
1825:..\FreeRTOS\Source/queue.c ****             }
1826:..\FreeRTOS\Source/queue.c ****         }
1827:..\FreeRTOS\Source/queue.c ****     } /*lint -restore */
1828:..\FreeRTOS\Source/queue.c **** }
 1924              		.loc 1 1828 0 discriminator 6
 1925 0156 1800     		movs	r0, r3
 1926 0158 BD46     		mov	sp, r7
 1927 015a 0AB0     		add	sp, sp, #40
 1928              		@ sp needed
 1929 015c 80BD     		pop	{r7, pc}
 1930              	.L208:
 1931 015e C046     		.align	2
 1932              	.L207:
 1933 0160 00000000 		.word	x
ARM GAS  C:\Users\Jason\AppData\Local\Temp\ccMsFGiZ.s 			page 67


 1934              		.cfi_endproc
 1935              	.LFE9:
 1936              		.size	xQueuePeek, .-xQueuePeek
 1937              		.section	.text.xQueueReceiveFromISR,"ax",%progbits
 1938              		.align	2
 1939              		.global	xQueueReceiveFromISR
 1940              		.code	16
 1941              		.thumb_func
 1942              		.type	xQueueReceiveFromISR, %function
 1943              	xQueueReceiveFromISR:
 1944              	.LFB10:
1829:..\FreeRTOS\Source/queue.c **** /*-----------------------------------------------------------*/
1830:..\FreeRTOS\Source/queue.c **** 
1831:..\FreeRTOS\Source/queue.c **** BaseType_t xQueueReceiveFromISR( QueueHandle_t xQueue,
1832:..\FreeRTOS\Source/queue.c ****                                  void * const pvBuffer,
1833:..\FreeRTOS\Source/queue.c ****                                  BaseType_t * const pxHigherPriorityTaskWoken )
1834:..\FreeRTOS\Source/queue.c **** {
 1945              		.loc 1 1834 0
 1946              		.cfi_startproc
 1947              		@ args = 0, pretend = 0, frame = 40
 1948              		@ frame_needed = 1, uses_anonymous_args = 0
 1949 0000 80B5     		push	{r7, lr}
 1950              		.cfi_def_cfa_offset 8
 1951              		.cfi_offset 7, -8
 1952              		.cfi_offset 14, -4
 1953 0002 8AB0     		sub	sp, sp, #40
 1954              		.cfi_def_cfa_offset 48
 1955 0004 00AF     		add	r7, sp, #0
 1956              		.cfi_def_cfa_register 7
 1957 0006 F860     		str	r0, [r7, #12]
 1958 0008 B960     		str	r1, [r7, #8]
 1959 000a 7A60     		str	r2, [r7, #4]
1835:..\FreeRTOS\Source/queue.c ****     BaseType_t xReturn;
1836:..\FreeRTOS\Source/queue.c ****     UBaseType_t uxSavedInterruptStatus;
1837:..\FreeRTOS\Source/queue.c ****     Queue_t * const pxQueue = xQueue;
 1960              		.loc 1 1837 0
 1961 000c FB68     		ldr	r3, [r7, #12]
 1962 000e 3B62     		str	r3, [r7, #32]
1838:..\FreeRTOS\Source/queue.c **** 
1839:..\FreeRTOS\Source/queue.c ****     configASSERT( pxQueue );
 1963              		.loc 1 1839 0
 1964 0010 2E4B     		ldr	r3, .L225
 1965 0012 1B88     		ldrh	r3, [r3]
 1966 0014 002B     		cmp	r3, #0
 1967 0016 01D1     		bne	.L210
 1968              		.loc 1 1839 0 is_stmt 0 discriminator 1
 1969              		.syntax divided
 1970              	@ 1839 "..\FreeRTOS\Source\queue.c" 1
 1971 0018 72B6     		 cpsid i 
 1972              	@ 0 "" 2
 1973              		.thumb
 1974              		.syntax unified
 1975              	.L211:
 1976 001a FEE7     		b	.L211
 1977              	.L210:
1840:..\FreeRTOS\Source/queue.c ****     configASSERT( !( ( pvBuffer == NULL ) && ( pxQueue->uxItemSize != ( UBaseType_t ) 0U ) ) );
 1978              		.loc 1 1840 0 is_stmt 1
ARM GAS  C:\Users\Jason\AppData\Local\Temp\ccMsFGiZ.s 			page 68


 1979 001c 2B4B     		ldr	r3, .L225
 1980 001e 1B88     		ldrh	r3, [r3]
 1981 0020 002B     		cmp	r3, #0
 1982 0022 01D1     		bne	.L212
 1983              		.loc 1 1840 0 is_stmt 0 discriminator 1
 1984              		.syntax divided
 1985              	@ 1840 "..\FreeRTOS\Source\queue.c" 1
 1986 0024 72B6     		 cpsid i 
 1987              	@ 0 "" 2
 1988              		.thumb
 1989              		.syntax unified
 1990              	.L213:
 1991              		.loc 1 1840 0 discriminator 2
 1992 0026 FEE7     		b	.L213
 1993              	.L212:
 1994 0028 BB68     		ldr	r3, [r7, #8]
 1995 002a C046     		nop
1841:..\FreeRTOS\Source/queue.c **** 
1842:..\FreeRTOS\Source/queue.c ****     /* RTOS ports that support interrupt nesting have the concept of a maximum
1843:..\FreeRTOS\Source/queue.c ****      * system call (or maximum API call) interrupt priority.  Interrupts that are
1844:..\FreeRTOS\Source/queue.c ****      * above the maximum system call priority are kept permanently enabled, even
1845:..\FreeRTOS\Source/queue.c ****      * when the RTOS kernel is in a critical section, but cannot make any calls to
1846:..\FreeRTOS\Source/queue.c ****      * FreeRTOS API functions.  If configASSERT() is defined in FreeRTOSConfig.h
1847:..\FreeRTOS\Source/queue.c ****      * then portASSERT_IF_INTERRUPT_PRIORITY_INVALID() will result in an assertion
1848:..\FreeRTOS\Source/queue.c ****      * failure if a FreeRTOS API function is called from an interrupt that has been
1849:..\FreeRTOS\Source/queue.c ****      * assigned a priority above the configured maximum system call priority.
1850:..\FreeRTOS\Source/queue.c ****      * Only FreeRTOS functions that end in FromISR can be called from interrupts
1851:..\FreeRTOS\Source/queue.c ****      * that have been assigned a priority at or (logically) below the maximum
1852:..\FreeRTOS\Source/queue.c ****      * system call interrupt priority.  FreeRTOS maintains a separate interrupt
1853:..\FreeRTOS\Source/queue.c ****      * safe API to ensure interrupt entry is as fast and as simple as possible.
1854:..\FreeRTOS\Source/queue.c ****      * More information (albeit Cortex-M specific) is provided on the following
1855:..\FreeRTOS\Source/queue.c ****      * link: https://www.FreeRTOS.org/RTOS-Cortex-M3-M4.html */
1856:..\FreeRTOS\Source/queue.c ****     portASSERT_IF_INTERRUPT_PRIORITY_INVALID();
1857:..\FreeRTOS\Source/queue.c **** 
1858:..\FreeRTOS\Source/queue.c ****     uxSavedInterruptStatus = portSET_INTERRUPT_MASK_FROM_ISR();
 1996              		.loc 1 1858 0 is_stmt 1 discriminator 2
 1997 002c FFF7FEFF 		bl	ulSetInterruptMaskFromISR
 1998 0030 0300     		movs	r3, r0
 1999 0032 FB61     		str	r3, [r7, #28]
 2000              	.LBB9:
1859:..\FreeRTOS\Source/queue.c ****     {
1860:..\FreeRTOS\Source/queue.c ****         const UBaseType_t uxMessagesWaiting = pxQueue->uxMessagesWaiting;
 2001              		.loc 1 1860 0 discriminator 2
 2002 0034 3B6A     		ldr	r3, [r7, #32]
 2003 0036 9B6B     		ldr	r3, [r3, #56]
 2004 0038 BB61     		str	r3, [r7, #24]
1861:..\FreeRTOS\Source/queue.c **** 
1862:..\FreeRTOS\Source/queue.c ****         /* Cannot block in an ISR, so check there is data available. */
1863:..\FreeRTOS\Source/queue.c ****         if( uxMessagesWaiting > ( UBaseType_t ) 0 )
 2005              		.loc 1 1863 0 discriminator 2
 2006 003a BB69     		ldr	r3, [r7, #24]
 2007 003c 002B     		cmp	r3, #0
 2008 003e 39D0     		beq	.L217
 2009              	.LBB10:
1864:..\FreeRTOS\Source/queue.c ****         {
1865:..\FreeRTOS\Source/queue.c ****             const int8_t cRxLock = pxQueue->cRxLock;
 2010              		.loc 1 1865 0
ARM GAS  C:\Users\Jason\AppData\Local\Temp\ccMsFGiZ.s 			page 69


 2011 0040 1723     		movs	r3, #23
 2012 0042 FB18     		adds	r3, r7, r3
 2013 0044 3A6A     		ldr	r2, [r7, #32]
 2014 0046 4421     		movs	r1, #68
 2015 0048 525C     		ldrb	r2, [r2, r1]
 2016 004a 1A70     		strb	r2, [r3]
1866:..\FreeRTOS\Source/queue.c **** 
1867:..\FreeRTOS\Source/queue.c ****             traceQUEUE_RECEIVE_FROM_ISR( pxQueue );
1868:..\FreeRTOS\Source/queue.c **** 
1869:..\FreeRTOS\Source/queue.c ****             prvCopyDataFromQueue( pxQueue, pvBuffer );
 2017              		.loc 1 1869 0
 2018 004c BA68     		ldr	r2, [r7, #8]
 2019 004e 3B6A     		ldr	r3, [r7, #32]
 2020 0050 1100     		movs	r1, r2
 2021 0052 1800     		movs	r0, r3
 2022 0054 FFF7FEFF 		bl	prvCopyDataFromQueue
1870:..\FreeRTOS\Source/queue.c ****             pxQueue->uxMessagesWaiting = uxMessagesWaiting - ( UBaseType_t ) 1;
 2023              		.loc 1 1870 0
 2024 0058 BB69     		ldr	r3, [r7, #24]
 2025 005a 5A1E     		subs	r2, r3, #1
 2026 005c 3B6A     		ldr	r3, [r7, #32]
 2027 005e 9A63     		str	r2, [r3, #56]
1871:..\FreeRTOS\Source/queue.c **** 
1872:..\FreeRTOS\Source/queue.c ****             /* If the queue is locked the event list will not be modified.
1873:..\FreeRTOS\Source/queue.c ****              * Instead update the lock count so the task that unlocks the queue
1874:..\FreeRTOS\Source/queue.c ****              * will know that an ISR has removed data while the queue was
1875:..\FreeRTOS\Source/queue.c ****              * locked. */
1876:..\FreeRTOS\Source/queue.c ****             if( cRxLock == queueUNLOCKED )
 2028              		.loc 1 1876 0
 2029 0060 1723     		movs	r3, #23
 2030 0062 FB18     		adds	r3, r7, r3
 2031 0064 1B78     		ldrb	r3, [r3]
 2032 0066 5BB2     		sxtb	r3, r3
 2033 0068 0133     		adds	r3, r3, #1
 2034 006a 11D1     		bne	.L218
1877:..\FreeRTOS\Source/queue.c ****             {
1878:..\FreeRTOS\Source/queue.c ****                 if( listLIST_IS_EMPTY( &( pxQueue->xTasksWaitingToSend ) ) == pdFALSE )
 2035              		.loc 1 1878 0
 2036 006c 3B6A     		ldr	r3, [r7, #32]
 2037 006e 1B69     		ldr	r3, [r3, #16]
 2038 0070 002B     		cmp	r3, #0
 2039 0072 1CD0     		beq	.L219
1879:..\FreeRTOS\Source/queue.c ****                 {
1880:..\FreeRTOS\Source/queue.c ****                     if( xTaskRemoveFromEventList( &( pxQueue->xTasksWaitingToSend ) ) != pdFALSE )
 2040              		.loc 1 1880 0
 2041 0074 3B6A     		ldr	r3, [r7, #32]
 2042 0076 1033     		adds	r3, r3, #16
 2043 0078 1800     		movs	r0, r3
 2044 007a FFF7FEFF 		bl	xTaskRemoveFromEventList
 2045 007e 031E     		subs	r3, r0, #0
 2046 0080 15D0     		beq	.L219
1881:..\FreeRTOS\Source/queue.c ****                     {
1882:..\FreeRTOS\Source/queue.c ****                         /* The task waiting has a higher priority than us so
1883:..\FreeRTOS\Source/queue.c ****                          * force a context switch. */
1884:..\FreeRTOS\Source/queue.c ****                         if( pxHigherPriorityTaskWoken != NULL )
 2047              		.loc 1 1884 0
 2048 0082 7B68     		ldr	r3, [r7, #4]
ARM GAS  C:\Users\Jason\AppData\Local\Temp\ccMsFGiZ.s 			page 70


 2049 0084 002B     		cmp	r3, #0
 2050 0086 12D0     		beq	.L219
1885:..\FreeRTOS\Source/queue.c ****                         {
1886:..\FreeRTOS\Source/queue.c ****                             *pxHigherPriorityTaskWoken = pdTRUE;
 2051              		.loc 1 1886 0
 2052 0088 7B68     		ldr	r3, [r7, #4]
 2053 008a 0122     		movs	r2, #1
 2054 008c 1A60     		str	r2, [r3]
 2055 008e 0EE0     		b	.L219
 2056              	.L218:
1887:..\FreeRTOS\Source/queue.c ****                         }
1888:..\FreeRTOS\Source/queue.c ****                         else
1889:..\FreeRTOS\Source/queue.c ****                         {
1890:..\FreeRTOS\Source/queue.c ****                             mtCOVERAGE_TEST_MARKER();
1891:..\FreeRTOS\Source/queue.c ****                         }
1892:..\FreeRTOS\Source/queue.c ****                     }
1893:..\FreeRTOS\Source/queue.c ****                     else
1894:..\FreeRTOS\Source/queue.c ****                     {
1895:..\FreeRTOS\Source/queue.c ****                         mtCOVERAGE_TEST_MARKER();
1896:..\FreeRTOS\Source/queue.c ****                     }
1897:..\FreeRTOS\Source/queue.c ****                 }
1898:..\FreeRTOS\Source/queue.c ****                 else
1899:..\FreeRTOS\Source/queue.c ****                 {
1900:..\FreeRTOS\Source/queue.c ****                     mtCOVERAGE_TEST_MARKER();
1901:..\FreeRTOS\Source/queue.c ****                 }
1902:..\FreeRTOS\Source/queue.c ****             }
1903:..\FreeRTOS\Source/queue.c ****             else
1904:..\FreeRTOS\Source/queue.c ****             {
1905:..\FreeRTOS\Source/queue.c ****                 /* Increment the lock count so the task that unlocks the queue
1906:..\FreeRTOS\Source/queue.c ****                  * knows that data was removed while it was locked. */
1907:..\FreeRTOS\Source/queue.c ****                 configASSERT( cRxLock != queueINT8_MAX );
 2057              		.loc 1 1907 0
 2058 0090 0E4B     		ldr	r3, .L225
 2059 0092 1B88     		ldrh	r3, [r3]
 2060 0094 002B     		cmp	r3, #0
 2061 0096 01D1     		bne	.L220
 2062              		.loc 1 1907 0 is_stmt 0 discriminator 1
 2063              		.syntax divided
 2064              	@ 1907 "..\FreeRTOS\Source\queue.c" 1
 2065 0098 72B6     		 cpsid i 
 2066              	@ 0 "" 2
 2067              		.thumb
 2068              		.syntax unified
 2069              	.L221:
 2070              		.loc 1 1907 0 discriminator 5
 2071 009a FEE7     		b	.L221
 2072              	.L220:
1908:..\FreeRTOS\Source/queue.c **** 
1909:..\FreeRTOS\Source/queue.c ****                 pxQueue->cRxLock = ( int8_t ) ( cRxLock + 1 );
 2073              		.loc 1 1909 0 is_stmt 1
 2074 009c 1723     		movs	r3, #23
 2075 009e FB18     		adds	r3, r7, r3
 2076 00a0 1B78     		ldrb	r3, [r3]
 2077 00a2 0133     		adds	r3, r3, #1
 2078 00a4 DBB2     		uxtb	r3, r3
 2079 00a6 59B2     		sxtb	r1, r3
 2080 00a8 3B6A     		ldr	r3, [r7, #32]
ARM GAS  C:\Users\Jason\AppData\Local\Temp\ccMsFGiZ.s 			page 71


 2081 00aa 4422     		movs	r2, #68
 2082 00ac 9954     		strb	r1, [r3, r2]
 2083              	.L219:
1910:..\FreeRTOS\Source/queue.c ****             }
1911:..\FreeRTOS\Source/queue.c **** 
1912:..\FreeRTOS\Source/queue.c ****             xReturn = pdPASS;
 2084              		.loc 1 1912 0
 2085 00ae 0123     		movs	r3, #1
 2086 00b0 7B62     		str	r3, [r7, #36]
 2087              	.LBE10:
 2088 00b2 01E0     		b	.L222
 2089              	.L217:
1913:..\FreeRTOS\Source/queue.c ****         }
1914:..\FreeRTOS\Source/queue.c ****         else
1915:..\FreeRTOS\Source/queue.c ****         {
1916:..\FreeRTOS\Source/queue.c ****             xReturn = pdFAIL;
 2090              		.loc 1 1916 0
 2091 00b4 0023     		movs	r3, #0
 2092 00b6 7B62     		str	r3, [r7, #36]
 2093              	.L222:
 2094              	.LBE9:
1917:..\FreeRTOS\Source/queue.c ****             traceQUEUE_RECEIVE_FROM_ISR_FAILED( pxQueue );
1918:..\FreeRTOS\Source/queue.c ****         }
1919:..\FreeRTOS\Source/queue.c ****     }
1920:..\FreeRTOS\Source/queue.c ****     portCLEAR_INTERRUPT_MASK_FROM_ISR( uxSavedInterruptStatus );
 2095              		.loc 1 1920 0
 2096 00b8 FB69     		ldr	r3, [r7, #28]
 2097 00ba 1800     		movs	r0, r3
 2098 00bc FFF7FEFF 		bl	vClearInterruptMaskFromISR
1921:..\FreeRTOS\Source/queue.c **** 
1922:..\FreeRTOS\Source/queue.c ****     return xReturn;
 2099              		.loc 1 1922 0
 2100 00c0 7B6A     		ldr	r3, [r7, #36]
1923:..\FreeRTOS\Source/queue.c **** }
 2101              		.loc 1 1923 0
 2102 00c2 1800     		movs	r0, r3
 2103 00c4 BD46     		mov	sp, r7
 2104 00c6 0AB0     		add	sp, sp, #40
 2105              		@ sp needed
 2106 00c8 80BD     		pop	{r7, pc}
 2107              	.L226:
 2108 00ca C046     		.align	2
 2109              	.L225:
 2110 00cc 00000000 		.word	x
 2111              		.cfi_endproc
 2112              	.LFE10:
 2113              		.size	xQueueReceiveFromISR, .-xQueueReceiveFromISR
 2114              		.section	.text.xQueuePeekFromISR,"ax",%progbits
 2115              		.align	2
 2116              		.global	xQueuePeekFromISR
 2117              		.code	16
 2118              		.thumb_func
 2119              		.type	xQueuePeekFromISR, %function
 2120              	xQueuePeekFromISR:
 2121              	.LFB11:
1924:..\FreeRTOS\Source/queue.c **** /*-----------------------------------------------------------*/
1925:..\FreeRTOS\Source/queue.c **** 
ARM GAS  C:\Users\Jason\AppData\Local\Temp\ccMsFGiZ.s 			page 72


1926:..\FreeRTOS\Source/queue.c **** BaseType_t xQueuePeekFromISR( QueueHandle_t xQueue,
1927:..\FreeRTOS\Source/queue.c ****                               void * const pvBuffer )
1928:..\FreeRTOS\Source/queue.c **** {
 2122              		.loc 1 1928 0
 2123              		.cfi_startproc
 2124              		@ args = 0, pretend = 0, frame = 24
 2125              		@ frame_needed = 1, uses_anonymous_args = 0
 2126 0000 80B5     		push	{r7, lr}
 2127              		.cfi_def_cfa_offset 8
 2128              		.cfi_offset 7, -8
 2129              		.cfi_offset 14, -4
 2130 0002 86B0     		sub	sp, sp, #24
 2131              		.cfi_def_cfa_offset 32
 2132 0004 00AF     		add	r7, sp, #0
 2133              		.cfi_def_cfa_register 7
 2134 0006 7860     		str	r0, [r7, #4]
 2135 0008 3960     		str	r1, [r7]
1929:..\FreeRTOS\Source/queue.c ****     BaseType_t xReturn;
1930:..\FreeRTOS\Source/queue.c ****     UBaseType_t uxSavedInterruptStatus;
1931:..\FreeRTOS\Source/queue.c ****     int8_t * pcOriginalReadPosition;
1932:..\FreeRTOS\Source/queue.c ****     Queue_t * const pxQueue = xQueue;
 2136              		.loc 1 1932 0
 2137 000a 7B68     		ldr	r3, [r7, #4]
 2138 000c 3B61     		str	r3, [r7, #16]
1933:..\FreeRTOS\Source/queue.c **** 
1934:..\FreeRTOS\Source/queue.c ****     configASSERT( pxQueue );
 2139              		.loc 1 1934 0
 2140 000e 1B4B     		ldr	r3, .L241
 2141 0010 1B88     		ldrh	r3, [r3]
 2142 0012 002B     		cmp	r3, #0
 2143 0014 01D1     		bne	.L228
 2144              		.loc 1 1934 0 is_stmt 0 discriminator 1
 2145              		.syntax divided
 2146              	@ 1934 "..\FreeRTOS\Source\queue.c" 1
 2147 0016 72B6     		 cpsid i 
 2148              	@ 0 "" 2
 2149              		.thumb
 2150              		.syntax unified
 2151              	.L229:
 2152 0018 FEE7     		b	.L229
 2153              	.L228:
1935:..\FreeRTOS\Source/queue.c ****     configASSERT( !( ( pvBuffer == NULL ) && ( pxQueue->uxItemSize != ( UBaseType_t ) 0U ) ) );
 2154              		.loc 1 1935 0 is_stmt 1
 2155 001a 184B     		ldr	r3, .L241
 2156 001c 1B88     		ldrh	r3, [r3]
 2157 001e 002B     		cmp	r3, #0
 2158 0020 01D1     		bne	.L230
 2159              		.loc 1 1935 0 is_stmt 0 discriminator 1
 2160              		.syntax divided
 2161              	@ 1935 "..\FreeRTOS\Source\queue.c" 1
 2162 0022 72B6     		 cpsid i 
 2163              	@ 0 "" 2
 2164              		.thumb
 2165              		.syntax unified
 2166              	.L231:
 2167              		.loc 1 1935 0 discriminator 2
 2168 0024 FEE7     		b	.L231
ARM GAS  C:\Users\Jason\AppData\Local\Temp\ccMsFGiZ.s 			page 73


 2169              	.L230:
 2170 0026 3B68     		ldr	r3, [r7]
 2171 0028 C046     		nop
1936:..\FreeRTOS\Source/queue.c ****     configASSERT( pxQueue->uxItemSize != 0 ); /* Can't peek a semaphore. */
 2172              		.loc 1 1936 0 is_stmt 1 discriminator 2
 2173 002a 144B     		ldr	r3, .L241
 2174 002c 1B88     		ldrh	r3, [r3]
 2175 002e 002B     		cmp	r3, #0
 2176 0030 01D1     		bne	.L235
 2177              		.loc 1 1936 0 is_stmt 0 discriminator 1
 2178              		.syntax divided
 2179              	@ 1936 "..\FreeRTOS\Source\queue.c" 1
 2180 0032 72B6     		 cpsid i 
 2181              	@ 0 "" 2
 2182              		.thumb
 2183              		.syntax unified
 2184              	.L236:
 2185              		.loc 1 1936 0 discriminator 3
 2186 0034 FEE7     		b	.L236
 2187              	.L235:
1937:..\FreeRTOS\Source/queue.c **** 
1938:..\FreeRTOS\Source/queue.c ****     /* RTOS ports that support interrupt nesting have the concept of a maximum
1939:..\FreeRTOS\Source/queue.c ****      * system call (or maximum API call) interrupt priority.  Interrupts that are
1940:..\FreeRTOS\Source/queue.c ****      * above the maximum system call priority are kept permanently enabled, even
1941:..\FreeRTOS\Source/queue.c ****      * when the RTOS kernel is in a critical section, but cannot make any calls to
1942:..\FreeRTOS\Source/queue.c ****      * FreeRTOS API functions.  If configASSERT() is defined in FreeRTOSConfig.h
1943:..\FreeRTOS\Source/queue.c ****      * then portASSERT_IF_INTERRUPT_PRIORITY_INVALID() will result in an assertion
1944:..\FreeRTOS\Source/queue.c ****      * failure if a FreeRTOS API function is called from an interrupt that has been
1945:..\FreeRTOS\Source/queue.c ****      * assigned a priority above the configured maximum system call priority.
1946:..\FreeRTOS\Source/queue.c ****      * Only FreeRTOS functions that end in FromISR can be called from interrupts
1947:..\FreeRTOS\Source/queue.c ****      * that have been assigned a priority at or (logically) below the maximum
1948:..\FreeRTOS\Source/queue.c ****      * system call interrupt priority.  FreeRTOS maintains a separate interrupt
1949:..\FreeRTOS\Source/queue.c ****      * safe API to ensure interrupt entry is as fast and as simple as possible.
1950:..\FreeRTOS\Source/queue.c ****      * More information (albeit Cortex-M specific) is provided on the following
1951:..\FreeRTOS\Source/queue.c ****      * link: https://www.FreeRTOS.org/RTOS-Cortex-M3-M4.html */
1952:..\FreeRTOS\Source/queue.c ****     portASSERT_IF_INTERRUPT_PRIORITY_INVALID();
1953:..\FreeRTOS\Source/queue.c **** 
1954:..\FreeRTOS\Source/queue.c ****     uxSavedInterruptStatus = portSET_INTERRUPT_MASK_FROM_ISR();
 2188              		.loc 1 1954 0 is_stmt 1 discriminator 2
 2189 0036 FFF7FEFF 		bl	ulSetInterruptMaskFromISR
 2190 003a 0300     		movs	r3, r0
 2191 003c FB60     		str	r3, [r7, #12]
1955:..\FreeRTOS\Source/queue.c ****     {
1956:..\FreeRTOS\Source/queue.c ****         /* Cannot block in an ISR, so check there is data available. */
1957:..\FreeRTOS\Source/queue.c ****         if( pxQueue->uxMessagesWaiting > ( UBaseType_t ) 0 )
 2192              		.loc 1 1957 0 discriminator 2
 2193 003e 3B69     		ldr	r3, [r7, #16]
 2194 0040 9B6B     		ldr	r3, [r3, #56]
 2195 0042 002B     		cmp	r3, #0
 2196 0044 0ED0     		beq	.L237
1958:..\FreeRTOS\Source/queue.c ****         {
1959:..\FreeRTOS\Source/queue.c ****             traceQUEUE_PEEK_FROM_ISR( pxQueue );
1960:..\FreeRTOS\Source/queue.c **** 
1961:..\FreeRTOS\Source/queue.c ****             /* Remember the read position so it can be reset as nothing is
1962:..\FreeRTOS\Source/queue.c ****              * actually being removed from the queue. */
1963:..\FreeRTOS\Source/queue.c ****             pcOriginalReadPosition = pxQueue->u.xQueue.pcReadFrom;
 2197              		.loc 1 1963 0
ARM GAS  C:\Users\Jason\AppData\Local\Temp\ccMsFGiZ.s 			page 74


 2198 0046 3B69     		ldr	r3, [r7, #16]
 2199 0048 DB68     		ldr	r3, [r3, #12]
 2200 004a BB60     		str	r3, [r7, #8]
1964:..\FreeRTOS\Source/queue.c ****             prvCopyDataFromQueue( pxQueue, pvBuffer );
 2201              		.loc 1 1964 0
 2202 004c 3A68     		ldr	r2, [r7]
 2203 004e 3B69     		ldr	r3, [r7, #16]
 2204 0050 1100     		movs	r1, r2
 2205 0052 1800     		movs	r0, r3
 2206 0054 FFF7FEFF 		bl	prvCopyDataFromQueue
1965:..\FreeRTOS\Source/queue.c ****             pxQueue->u.xQueue.pcReadFrom = pcOriginalReadPosition;
 2207              		.loc 1 1965 0
 2208 0058 3B69     		ldr	r3, [r7, #16]
 2209 005a BA68     		ldr	r2, [r7, #8]
 2210 005c DA60     		str	r2, [r3, #12]
1966:..\FreeRTOS\Source/queue.c **** 
1967:..\FreeRTOS\Source/queue.c ****             xReturn = pdPASS;
 2211              		.loc 1 1967 0
 2212 005e 0123     		movs	r3, #1
 2213 0060 7B61     		str	r3, [r7, #20]
 2214 0062 01E0     		b	.L238
 2215              	.L237:
1968:..\FreeRTOS\Source/queue.c ****         }
1969:..\FreeRTOS\Source/queue.c ****         else
1970:..\FreeRTOS\Source/queue.c ****         {
1971:..\FreeRTOS\Source/queue.c ****             xReturn = pdFAIL;
 2216              		.loc 1 1971 0
 2217 0064 0023     		movs	r3, #0
 2218 0066 7B61     		str	r3, [r7, #20]
 2219              	.L238:
1972:..\FreeRTOS\Source/queue.c ****             traceQUEUE_PEEK_FROM_ISR_FAILED( pxQueue );
1973:..\FreeRTOS\Source/queue.c ****         }
1974:..\FreeRTOS\Source/queue.c ****     }
1975:..\FreeRTOS\Source/queue.c ****     portCLEAR_INTERRUPT_MASK_FROM_ISR( uxSavedInterruptStatus );
 2220              		.loc 1 1975 0
 2221 0068 FB68     		ldr	r3, [r7, #12]
 2222 006a 1800     		movs	r0, r3
 2223 006c FFF7FEFF 		bl	vClearInterruptMaskFromISR
1976:..\FreeRTOS\Source/queue.c **** 
1977:..\FreeRTOS\Source/queue.c ****     return xReturn;
 2224              		.loc 1 1977 0
 2225 0070 7B69     		ldr	r3, [r7, #20]
1978:..\FreeRTOS\Source/queue.c **** }
 2226              		.loc 1 1978 0
 2227 0072 1800     		movs	r0, r3
 2228 0074 BD46     		mov	sp, r7
 2229 0076 06B0     		add	sp, sp, #24
 2230              		@ sp needed
 2231 0078 80BD     		pop	{r7, pc}
 2232              	.L242:
 2233 007a C046     		.align	2
 2234              	.L241:
 2235 007c 00000000 		.word	x
 2236              		.cfi_endproc
 2237              	.LFE11:
 2238              		.size	xQueuePeekFromISR, .-xQueuePeekFromISR
 2239              		.section	.text.uxQueueMessagesWaiting,"ax",%progbits
ARM GAS  C:\Users\Jason\AppData\Local\Temp\ccMsFGiZ.s 			page 75


 2240              		.align	2
 2241              		.global	uxQueueMessagesWaiting
 2242              		.code	16
 2243              		.thumb_func
 2244              		.type	uxQueueMessagesWaiting, %function
 2245              	uxQueueMessagesWaiting:
 2246              	.LFB12:
1979:..\FreeRTOS\Source/queue.c **** /*-----------------------------------------------------------*/
1980:..\FreeRTOS\Source/queue.c **** 
1981:..\FreeRTOS\Source/queue.c **** UBaseType_t uxQueueMessagesWaiting( const QueueHandle_t xQueue )
1982:..\FreeRTOS\Source/queue.c **** {
 2247              		.loc 1 1982 0
 2248              		.cfi_startproc
 2249              		@ args = 0, pretend = 0, frame = 16
 2250              		@ frame_needed = 1, uses_anonymous_args = 0
 2251 0000 80B5     		push	{r7, lr}
 2252              		.cfi_def_cfa_offset 8
 2253              		.cfi_offset 7, -8
 2254              		.cfi_offset 14, -4
 2255 0002 84B0     		sub	sp, sp, #16
 2256              		.cfi_def_cfa_offset 24
 2257 0004 00AF     		add	r7, sp, #0
 2258              		.cfi_def_cfa_register 7
 2259 0006 7860     		str	r0, [r7, #4]
1983:..\FreeRTOS\Source/queue.c ****     UBaseType_t uxReturn;
1984:..\FreeRTOS\Source/queue.c **** 
1985:..\FreeRTOS\Source/queue.c ****     configASSERT( xQueue );
 2260              		.loc 1 1985 0
 2261 0008 084B     		ldr	r3, .L247
 2262 000a 1B88     		ldrh	r3, [r3]
 2263 000c 002B     		cmp	r3, #0
 2264 000e 01D1     		bne	.L244
 2265              		.loc 1 1985 0 is_stmt 0 discriminator 1
 2266              		.syntax divided
 2267              	@ 1985 "..\FreeRTOS\Source\queue.c" 1
 2268 0010 72B6     		 cpsid i 
 2269              	@ 0 "" 2
 2270              		.thumb
 2271              		.syntax unified
 2272              	.L245:
 2273 0012 FEE7     		b	.L245
 2274              	.L244:
1986:..\FreeRTOS\Source/queue.c **** 
1987:..\FreeRTOS\Source/queue.c ****     taskENTER_CRITICAL();
 2275              		.loc 1 1987 0 is_stmt 1
 2276 0014 FFF7FEFF 		bl	vPortEnterCritical
1988:..\FreeRTOS\Source/queue.c ****     {
1989:..\FreeRTOS\Source/queue.c ****         uxReturn = ( ( Queue_t * ) xQueue )->uxMessagesWaiting;
 2277              		.loc 1 1989 0
 2278 0018 7B68     		ldr	r3, [r7, #4]
 2279 001a 9B6B     		ldr	r3, [r3, #56]
 2280 001c FB60     		str	r3, [r7, #12]
1990:..\FreeRTOS\Source/queue.c ****     }
1991:..\FreeRTOS\Source/queue.c ****     taskEXIT_CRITICAL();
 2281              		.loc 1 1991 0
 2282 001e FFF7FEFF 		bl	vPortExitCritical
1992:..\FreeRTOS\Source/queue.c **** 
ARM GAS  C:\Users\Jason\AppData\Local\Temp\ccMsFGiZ.s 			page 76


1993:..\FreeRTOS\Source/queue.c ****     return uxReturn;
 2283              		.loc 1 1993 0
 2284 0022 FB68     		ldr	r3, [r7, #12]
1994:..\FreeRTOS\Source/queue.c **** } /*lint !e818 Pointer cannot be declared const as xQueue is a typedef not pointer. */
 2285              		.loc 1 1994 0
 2286 0024 1800     		movs	r0, r3
 2287 0026 BD46     		mov	sp, r7
 2288 0028 04B0     		add	sp, sp, #16
 2289              		@ sp needed
 2290 002a 80BD     		pop	{r7, pc}
 2291              	.L248:
 2292              		.align	2
 2293              	.L247:
 2294 002c 00000000 		.word	x
 2295              		.cfi_endproc
 2296              	.LFE12:
 2297              		.size	uxQueueMessagesWaiting, .-uxQueueMessagesWaiting
 2298              		.section	.text.uxQueueSpacesAvailable,"ax",%progbits
 2299              		.align	2
 2300              		.global	uxQueueSpacesAvailable
 2301              		.code	16
 2302              		.thumb_func
 2303              		.type	uxQueueSpacesAvailable, %function
 2304              	uxQueueSpacesAvailable:
 2305              	.LFB13:
1995:..\FreeRTOS\Source/queue.c **** /*-----------------------------------------------------------*/
1996:..\FreeRTOS\Source/queue.c **** 
1997:..\FreeRTOS\Source/queue.c **** UBaseType_t uxQueueSpacesAvailable( const QueueHandle_t xQueue )
1998:..\FreeRTOS\Source/queue.c **** {
 2306              		.loc 1 1998 0
 2307              		.cfi_startproc
 2308              		@ args = 0, pretend = 0, frame = 16
 2309              		@ frame_needed = 1, uses_anonymous_args = 0
 2310 0000 80B5     		push	{r7, lr}
 2311              		.cfi_def_cfa_offset 8
 2312              		.cfi_offset 7, -8
 2313              		.cfi_offset 14, -4
 2314 0002 84B0     		sub	sp, sp, #16
 2315              		.cfi_def_cfa_offset 24
 2316 0004 00AF     		add	r7, sp, #0
 2317              		.cfi_def_cfa_register 7
 2318 0006 7860     		str	r0, [r7, #4]
1999:..\FreeRTOS\Source/queue.c ****     UBaseType_t uxReturn;
2000:..\FreeRTOS\Source/queue.c ****     Queue_t * const pxQueue = xQueue;
 2319              		.loc 1 2000 0
 2320 0008 7B68     		ldr	r3, [r7, #4]
 2321 000a FB60     		str	r3, [r7, #12]
2001:..\FreeRTOS\Source/queue.c **** 
2002:..\FreeRTOS\Source/queue.c ****     configASSERT( pxQueue );
 2322              		.loc 1 2002 0
 2323 000c 0A4B     		ldr	r3, .L253
 2324 000e 1B88     		ldrh	r3, [r3]
 2325 0010 002B     		cmp	r3, #0
 2326 0012 01D1     		bne	.L250
 2327              		.loc 1 2002 0 is_stmt 0 discriminator 1
 2328              		.syntax divided
 2329              	@ 2002 "..\FreeRTOS\Source\queue.c" 1
ARM GAS  C:\Users\Jason\AppData\Local\Temp\ccMsFGiZ.s 			page 77


 2330 0014 72B6     		 cpsid i 
 2331              	@ 0 "" 2
 2332              		.thumb
 2333              		.syntax unified
 2334              	.L251:
 2335 0016 FEE7     		b	.L251
 2336              	.L250:
2003:..\FreeRTOS\Source/queue.c **** 
2004:..\FreeRTOS\Source/queue.c ****     taskENTER_CRITICAL();
 2337              		.loc 1 2004 0 is_stmt 1
 2338 0018 FFF7FEFF 		bl	vPortEnterCritical
2005:..\FreeRTOS\Source/queue.c ****     {
2006:..\FreeRTOS\Source/queue.c ****         uxReturn = pxQueue->uxLength - pxQueue->uxMessagesWaiting;
