ARM GAS  C:\Users\Jason\AppData\Local\Temp\cclSZdbR.s 			page 1


   1              		.syntax unified
   2              		.cpu cortex-m0
   3              		.fpu softvfp
   4              		.eabi_attribute 20, 1
   5              		.eabi_attribute 21, 1
   6              		.eabi_attribute 23, 3
   7              		.eabi_attribute 24, 1
   8              		.eabi_attribute 25, 1
   9              		.eabi_attribute 26, 1
  10              		.eabi_attribute 30, 6
  11              		.eabi_attribute 34, 0
  12              		.eabi_attribute 18, 4
  13              		.thumb
  14              		.syntax unified
  15              		.file	"tasks.c"
  16              		.text
  17              	.Ltext0:
  18              		.cfi_sections	.debug_frame
  19              		.comm	x,2,2
  20              		.global	pxCurrentTCB
  21              		.bss
  22              		.align	2
  23              		.type	pxCurrentTCB, %object
  24              		.size	pxCurrentTCB, 4
  25              	pxCurrentTCB:
  26 0000 00000000 		.space	4
  27              		.align	2
  28              	pxReadyTasksLists:
  29 0004 00000000 		.space	100
  29      00000000 
  29      00000000 
  29      00000000 
  29      00000000 
  30              		.align	2
  31              	xDelayedTaskList1:
  32 0068 00000000 		.space	20
  32      00000000 
  32      00000000 
  32      00000000 
  32      00000000 
  33              		.align	2
  34              	xDelayedTaskList2:
  35 007c 00000000 		.space	20
  35      00000000 
  35      00000000 
  35      00000000 
  35      00000000 
  36              		.align	2
  37              	pxDelayedTaskList:
  38 0090 00000000 		.space	4
  39              		.align	2
  40              	pxOverflowDelayedTaskList:
  41 0094 00000000 		.space	4
  42              		.align	2
  43              	xPendingReadyList:
  44 0098 00000000 		.space	20
  44      00000000 
ARM GAS  C:\Users\Jason\AppData\Local\Temp\cclSZdbR.s 			page 2


  44      00000000 
  44      00000000 
  44      00000000 
  45              		.align	2
  46              	xTasksWaitingTermination:
  47 00ac 00000000 		.space	20
  47      00000000 
  47      00000000 
  47      00000000 
  47      00000000 
  48              		.align	2
  49              	uxDeletedTasksWaitingCleanUp:
  50 00c0 00000000 		.space	4
  51              		.align	2
  52              	xSuspendedTaskList:
  53 00c4 00000000 		.space	20
  53      00000000 
  53      00000000 
  53      00000000 
  53      00000000 
  54              		.align	2
  55              	uxCurrentNumberOfTasks:
  56 00d8 00000000 		.space	4
  57              		.align	2
  58              	xTickCount:
  59 00dc 00000000 		.space	4
  60              		.align	2
  61              	uxTopReadyPriority:
  62 00e0 00000000 		.space	4
  63              		.align	2
  64              	xSchedulerRunning:
  65 00e4 00000000 		.space	4
  66              		.align	2
  67              	xPendedTicks:
  68 00e8 00000000 		.space	4
  69              		.align	2
  70              	xYieldPending:
  71 00ec 00000000 		.space	4
  72              		.align	2
  73              	xNumOfOverflows:
  74 00f0 00000000 		.space	4
  75              		.align	2
  76              	uxTaskNumber:
  77 00f4 00000000 		.space	4
  78              		.align	2
  79              	xNextTaskUnblockTime:
  80 00f8 00000000 		.space	4
  81              		.align	2
  82              	xIdleTaskHandle:
  83 00fc 00000000 		.space	4
  84              		.global	uxTopUsedPriority
  85              		.data
  86              		.align	2
  87              		.type	uxTopUsedPriority, %object
  88              		.size	uxTopUsedPriority, 4
  89              	uxTopUsedPriority:
  90 0000 04000000 		.word	4
ARM GAS  C:\Users\Jason\AppData\Local\Temp\cclSZdbR.s 			page 3


  91              		.bss
  92              		.align	2
  93              	uxSchedulerSuspended:
  94 0100 00000000 		.space	4
  95              		.section	.text.xTaskCreateStatic,"ax",%progbits
  96              		.align	2
  97              		.global	xTaskCreateStatic
  98              		.code	16
  99              		.thumb_func
 100              		.type	xTaskCreateStatic, %function
 101              	xTaskCreateStatic:
 102              	.LFB0:
 103              		.file 1 "..\\FreeRTOS\\Source\\tasks.c"
   1:..\FreeRTOS\Source/tasks.c **** /*
   2:..\FreeRTOS\Source/tasks.c ****  * FreeRTOS Kernel V10.4.3
   3:..\FreeRTOS\Source/tasks.c ****  * Copyright (C) 2020 Amazon.com, Inc. or its affiliates.  All Rights Reserved.
   4:..\FreeRTOS\Source/tasks.c ****  *
   5:..\FreeRTOS\Source/tasks.c ****  * Permission is hereby granted, free of charge, to any person obtaining a copy of
   6:..\FreeRTOS\Source/tasks.c ****  * this software and associated documentation files (the "Software"), to deal in
   7:..\FreeRTOS\Source/tasks.c ****  * the Software without restriction, including without limitation the rights to
   8:..\FreeRTOS\Source/tasks.c ****  * use, copy, modify, merge, publish, distribute, sublicense, and/or sell copies of
   9:..\FreeRTOS\Source/tasks.c ****  * the Software, and to permit persons to whom the Software is furnished to do so,
  10:..\FreeRTOS\Source/tasks.c ****  * subject to the following conditions:
  11:..\FreeRTOS\Source/tasks.c ****  *
  12:..\FreeRTOS\Source/tasks.c ****  * The above copyright notice and this permission notice shall be included in all
  13:..\FreeRTOS\Source/tasks.c ****  * copies or substantial portions of the Software.
  14:..\FreeRTOS\Source/tasks.c ****  *
  15:..\FreeRTOS\Source/tasks.c ****  * THE SOFTWARE IS PROVIDED "AS IS", WITHOUT WARRANTY OF ANY KIND, EXPRESS OR
  16:..\FreeRTOS\Source/tasks.c ****  * IMPLIED, INCLUDING BUT NOT LIMITED TO THE WARRANTIES OF MERCHANTABILITY, FITNESS
  17:..\FreeRTOS\Source/tasks.c ****  * FOR A PARTICULAR PURPOSE AND NONINFRINGEMENT. IN NO EVENT SHALL THE AUTHORS OR
  18:..\FreeRTOS\Source/tasks.c ****  * COPYRIGHT HOLDERS BE LIABLE FOR ANY CLAIM, DAMAGES OR OTHER LIABILITY, WHETHER
  19:..\FreeRTOS\Source/tasks.c ****  * IN AN ACTION OF CONTRACT, TORT OR OTHERWISE, ARISING FROM, OUT OF OR IN
  20:..\FreeRTOS\Source/tasks.c ****  * CONNECTION WITH THE SOFTWARE OR THE USE OR OTHER DEALINGS IN THE SOFTWARE.
  21:..\FreeRTOS\Source/tasks.c ****  *
  22:..\FreeRTOS\Source/tasks.c ****  * https://www.FreeRTOS.org
  23:..\FreeRTOS\Source/tasks.c ****  * https://github.com/FreeRTOS
  24:..\FreeRTOS\Source/tasks.c ****  *
  25:..\FreeRTOS\Source/tasks.c ****  */
  26:..\FreeRTOS\Source/tasks.c **** 
  27:..\FreeRTOS\Source/tasks.c **** /* Standard includes. */
  28:..\FreeRTOS\Source/tasks.c **** #include <stdlib.h>
  29:..\FreeRTOS\Source/tasks.c **** #include <string.h>
  30:..\FreeRTOS\Source/tasks.c **** 
  31:..\FreeRTOS\Source/tasks.c **** /* Defining MPU_WRAPPERS_INCLUDED_FROM_API_FILE prevents task.h from redefining
  32:..\FreeRTOS\Source/tasks.c ****  * all the API functions to use the MPU wrappers.  That should only be done when
  33:..\FreeRTOS\Source/tasks.c ****  * task.h is included from an application file. */
  34:..\FreeRTOS\Source/tasks.c **** #define MPU_WRAPPERS_INCLUDED_FROM_API_FILE
  35:..\FreeRTOS\Source/tasks.c **** 
  36:..\FreeRTOS\Source/tasks.c **** /* FreeRTOS includes. */
  37:..\FreeRTOS\Source/tasks.c **** #include "FreeRTOS.h"
  38:..\FreeRTOS\Source/tasks.c **** #include "task.h"
  39:..\FreeRTOS\Source/tasks.c **** #include "timers.h"
  40:..\FreeRTOS\Source/tasks.c **** #include "stack_macros.h"
  41:..\FreeRTOS\Source/tasks.c **** 
  42:..\FreeRTOS\Source/tasks.c **** /* Lint e9021, e961 and e750 are suppressed as a MISRA exception justified
  43:..\FreeRTOS\Source/tasks.c ****  * because the MPU ports require MPU_WRAPPERS_INCLUDED_FROM_API_FILE to be defined
  44:..\FreeRTOS\Source/tasks.c ****  * for the header files above, but not in this file, in order to generate the
ARM GAS  C:\Users\Jason\AppData\Local\Temp\cclSZdbR.s 			page 4


  45:..\FreeRTOS\Source/tasks.c ****  * correct privileged Vs unprivileged linkage and placement. */
  46:..\FreeRTOS\Source/tasks.c **** #undef MPU_WRAPPERS_INCLUDED_FROM_API_FILE /*lint !e961 !e750 !e9021. */
  47:..\FreeRTOS\Source/tasks.c **** 
  48:..\FreeRTOS\Source/tasks.c **** /* Set configUSE_STATS_FORMATTING_FUNCTIONS to 2 to include the stats formatting
  49:..\FreeRTOS\Source/tasks.c ****  * functions but without including stdio.h here. */
  50:..\FreeRTOS\Source/tasks.c **** #if ( configUSE_STATS_FORMATTING_FUNCTIONS == 1 )
  51:..\FreeRTOS\Source/tasks.c **** 
  52:..\FreeRTOS\Source/tasks.c **** /* At the bottom of this file are two optional functions that can be used
  53:..\FreeRTOS\Source/tasks.c ****  * to generate human readable text from the raw data generated by the
  54:..\FreeRTOS\Source/tasks.c ****  * uxTaskGetSystemState() function.  Note the formatting functions are provided
  55:..\FreeRTOS\Source/tasks.c ****  * for convenience only, and are NOT considered part of the kernel. */
  56:..\FreeRTOS\Source/tasks.c ****     #include <stdio.h>
  57:..\FreeRTOS\Source/tasks.c **** #endif /* configUSE_STATS_FORMATTING_FUNCTIONS == 1 ) */
  58:..\FreeRTOS\Source/tasks.c **** 
  59:..\FreeRTOS\Source/tasks.c **** #if ( configUSE_PREEMPTION == 0 )
  60:..\FreeRTOS\Source/tasks.c **** 
  61:..\FreeRTOS\Source/tasks.c **** /* If the cooperative scheduler is being used then a yield should not be
  62:..\FreeRTOS\Source/tasks.c ****  * performed just because a higher priority task has been woken. */
  63:..\FreeRTOS\Source/tasks.c ****     #define taskYIELD_IF_USING_PREEMPTION()
  64:..\FreeRTOS\Source/tasks.c **** #else
  65:..\FreeRTOS\Source/tasks.c ****     #define taskYIELD_IF_USING_PREEMPTION()    portYIELD_WITHIN_API()
  66:..\FreeRTOS\Source/tasks.c **** #endif
  67:..\FreeRTOS\Source/tasks.c **** 
  68:..\FreeRTOS\Source/tasks.c **** /* Values that can be assigned to the ucNotifyState member of the TCB. */
  69:..\FreeRTOS\Source/tasks.c **** #define taskNOT_WAITING_NOTIFICATION              ( ( uint8_t ) 0 ) /* Must be zero as it is the in
  70:..\FreeRTOS\Source/tasks.c **** #define taskWAITING_NOTIFICATION                  ( ( uint8_t ) 1 )
  71:..\FreeRTOS\Source/tasks.c **** #define taskNOTIFICATION_RECEIVED                 ( ( uint8_t ) 2 )
  72:..\FreeRTOS\Source/tasks.c **** 
  73:..\FreeRTOS\Source/tasks.c **** /*
  74:..\FreeRTOS\Source/tasks.c ****  * The value used to fill the stack of a task when the task is created.  This
  75:..\FreeRTOS\Source/tasks.c ****  * is used purely for checking the high water mark for tasks.
  76:..\FreeRTOS\Source/tasks.c ****  */
  77:..\FreeRTOS\Source/tasks.c **** #define tskSTACK_FILL_BYTE                        ( 0xa5U )
  78:..\FreeRTOS\Source/tasks.c **** 
  79:..\FreeRTOS\Source/tasks.c **** /* Bits used to recored how a task's stack and TCB were allocated. */
  80:..\FreeRTOS\Source/tasks.c **** #define tskDYNAMICALLY_ALLOCATED_STACK_AND_TCB    ( ( uint8_t ) 0 )
  81:..\FreeRTOS\Source/tasks.c **** #define tskSTATICALLY_ALLOCATED_STACK_ONLY        ( ( uint8_t ) 1 )
  82:..\FreeRTOS\Source/tasks.c **** #define tskSTATICALLY_ALLOCATED_STACK_AND_TCB     ( ( uint8_t ) 2 )
  83:..\FreeRTOS\Source/tasks.c **** 
  84:..\FreeRTOS\Source/tasks.c **** /* If any of the following are set then task stacks are filled with a known
  85:..\FreeRTOS\Source/tasks.c ****  * value so the high water mark can be determined.  If none of the following are
  86:..\FreeRTOS\Source/tasks.c ****  * set then don't fill the stack so there is no unnecessary dependency on memset. */
  87:..\FreeRTOS\Source/tasks.c **** #if ( ( configCHECK_FOR_STACK_OVERFLOW > 1 ) || ( configUSE_TRACE_FACILITY == 1 ) || ( INCLUDE_uxTa
  88:..\FreeRTOS\Source/tasks.c ****     #define tskSET_NEW_STACKS_TO_KNOWN_VALUE    1
  89:..\FreeRTOS\Source/tasks.c **** #else
  90:..\FreeRTOS\Source/tasks.c ****     #define tskSET_NEW_STACKS_TO_KNOWN_VALUE    0
  91:..\FreeRTOS\Source/tasks.c **** #endif
  92:..\FreeRTOS\Source/tasks.c **** 
  93:..\FreeRTOS\Source/tasks.c **** /*
  94:..\FreeRTOS\Source/tasks.c ****  * Macros used by vListTask to indicate which state a task is in.
  95:..\FreeRTOS\Source/tasks.c ****  */
  96:..\FreeRTOS\Source/tasks.c **** #define tskRUNNING_CHAR      ( 'X' )
  97:..\FreeRTOS\Source/tasks.c **** #define tskBLOCKED_CHAR      ( 'B' )
  98:..\FreeRTOS\Source/tasks.c **** #define tskREADY_CHAR        ( 'R' )
  99:..\FreeRTOS\Source/tasks.c **** #define tskDELETED_CHAR      ( 'D' )
 100:..\FreeRTOS\Source/tasks.c **** #define tskSUSPENDED_CHAR    ( 'S' )
 101:..\FreeRTOS\Source/tasks.c **** 
ARM GAS  C:\Users\Jason\AppData\Local\Temp\cclSZdbR.s 			page 5


 102:..\FreeRTOS\Source/tasks.c **** /*
 103:..\FreeRTOS\Source/tasks.c ****  * Some kernel aware debuggers require the data the debugger needs access to be
 104:..\FreeRTOS\Source/tasks.c ****  * global, rather than file scope.
 105:..\FreeRTOS\Source/tasks.c ****  */
 106:..\FreeRTOS\Source/tasks.c **** #ifdef portREMOVE_STATIC_QUALIFIER
 107:..\FreeRTOS\Source/tasks.c ****     #define static
 108:..\FreeRTOS\Source/tasks.c **** #endif
 109:..\FreeRTOS\Source/tasks.c **** 
 110:..\FreeRTOS\Source/tasks.c **** /* The name allocated to the Idle task.  This can be overridden by defining
 111:..\FreeRTOS\Source/tasks.c ****  * configIDLE_TASK_NAME in FreeRTOSConfig.h. */
 112:..\FreeRTOS\Source/tasks.c **** #ifndef configIDLE_TASK_NAME
 113:..\FreeRTOS\Source/tasks.c ****     #define configIDLE_TASK_NAME    "IDLE"
 114:..\FreeRTOS\Source/tasks.c **** #endif
 115:..\FreeRTOS\Source/tasks.c **** 
 116:..\FreeRTOS\Source/tasks.c **** #if ( configUSE_PORT_OPTIMISED_TASK_SELECTION == 0 )
 117:..\FreeRTOS\Source/tasks.c **** 
 118:..\FreeRTOS\Source/tasks.c **** /* If configUSE_PORT_OPTIMISED_TASK_SELECTION is 0 then task selection is
 119:..\FreeRTOS\Source/tasks.c ****  * performed in a generic way that is not optimised to any particular
 120:..\FreeRTOS\Source/tasks.c ****  * microcontroller architecture. */
 121:..\FreeRTOS\Source/tasks.c **** 
 122:..\FreeRTOS\Source/tasks.c **** /* uxTopReadyPriority holds the priority of the highest priority ready
 123:..\FreeRTOS\Source/tasks.c ****  * state task. */
 124:..\FreeRTOS\Source/tasks.c ****     #define taskRECORD_READY_PRIORITY( uxPriority ) \
 125:..\FreeRTOS\Source/tasks.c ****     {                                               \
 126:..\FreeRTOS\Source/tasks.c ****         if( ( uxPriority ) > uxTopReadyPriority )   \
 127:..\FreeRTOS\Source/tasks.c ****         {                                           \
 128:..\FreeRTOS\Source/tasks.c ****             uxTopReadyPriority = ( uxPriority );    \
 129:..\FreeRTOS\Source/tasks.c ****         }                                           \
 130:..\FreeRTOS\Source/tasks.c ****     } /* taskRECORD_READY_PRIORITY */
 131:..\FreeRTOS\Source/tasks.c **** 
 132:..\FreeRTOS\Source/tasks.c **** /*-----------------------------------------------------------*/
 133:..\FreeRTOS\Source/tasks.c **** 
 134:..\FreeRTOS\Source/tasks.c ****     #define taskSELECT_HIGHEST_PRIORITY_TASK()                                \
 135:..\FreeRTOS\Source/tasks.c ****     {                                                                         \
 136:..\FreeRTOS\Source/tasks.c ****         UBaseType_t uxTopPriority = uxTopReadyPriority;                       \
 137:..\FreeRTOS\Source/tasks.c ****                                                                               \
 138:..\FreeRTOS\Source/tasks.c ****         /* Find the highest priority queue that contains ready tasks. */      \
 139:..\FreeRTOS\Source/tasks.c ****         while( listLIST_IS_EMPTY( &( pxReadyTasksLists[ uxTopPriority ] ) ) ) \
 140:..\FreeRTOS\Source/tasks.c ****         {                                                                     \
 141:..\FreeRTOS\Source/tasks.c ****             configASSERT( uxTopPriority );                                    \
 142:..\FreeRTOS\Source/tasks.c ****             --uxTopPriority;                                                  \
 143:..\FreeRTOS\Source/tasks.c ****         }                                                                     \
 144:..\FreeRTOS\Source/tasks.c ****                                                                               \
 145:..\FreeRTOS\Source/tasks.c ****         /* listGET_OWNER_OF_NEXT_ENTRY indexes through the list, so the tasks of \
 146:..\FreeRTOS\Source/tasks.c ****          * the  same priority get an equal share of the processor time. */                    \
 147:..\FreeRTOS\Source/tasks.c ****         listGET_OWNER_OF_NEXT_ENTRY( pxCurrentTCB, &( pxReadyTasksLists[ uxTopPriority ] ) ); \
 148:..\FreeRTOS\Source/tasks.c ****         uxTopReadyPriority = uxTopPriority;                                                   \
 149:..\FreeRTOS\Source/tasks.c ****     } /* taskSELECT_HIGHEST_PRIORITY_TASK */
 150:..\FreeRTOS\Source/tasks.c **** 
 151:..\FreeRTOS\Source/tasks.c **** /*-----------------------------------------------------------*/
 152:..\FreeRTOS\Source/tasks.c **** 
 153:..\FreeRTOS\Source/tasks.c **** /* Define away taskRESET_READY_PRIORITY() and portRESET_READY_PRIORITY() as
 154:..\FreeRTOS\Source/tasks.c ****  * they are only required when a port optimised method of task selection is
 155:..\FreeRTOS\Source/tasks.c ****  * being used. */
 156:..\FreeRTOS\Source/tasks.c ****     #define taskRESET_READY_PRIORITY( uxPriority )
 157:..\FreeRTOS\Source/tasks.c ****     #define portRESET_READY_PRIORITY( uxPriority, uxTopReadyPriority )
 158:..\FreeRTOS\Source/tasks.c **** 
ARM GAS  C:\Users\Jason\AppData\Local\Temp\cclSZdbR.s 			page 6


 159:..\FreeRTOS\Source/tasks.c **** #else /* configUSE_PORT_OPTIMISED_TASK_SELECTION */
 160:..\FreeRTOS\Source/tasks.c **** 
 161:..\FreeRTOS\Source/tasks.c **** /* If configUSE_PORT_OPTIMISED_TASK_SELECTION is 1 then task selection is
 162:..\FreeRTOS\Source/tasks.c ****  * performed in a way that is tailored to the particular microcontroller
 163:..\FreeRTOS\Source/tasks.c ****  * architecture being used. */
 164:..\FreeRTOS\Source/tasks.c **** 
 165:..\FreeRTOS\Source/tasks.c **** /* A port optimised version is provided.  Call the port defined macros. */
 166:..\FreeRTOS\Source/tasks.c ****     #define taskRECORD_READY_PRIORITY( uxPriority )    portRECORD_READY_PRIORITY( uxPriority, uxTop
 167:..\FreeRTOS\Source/tasks.c **** 
 168:..\FreeRTOS\Source/tasks.c **** /*-----------------------------------------------------------*/
 169:..\FreeRTOS\Source/tasks.c **** 
 170:..\FreeRTOS\Source/tasks.c ****     #define taskSELECT_HIGHEST_PRIORITY_TASK()                                                  \
 171:..\FreeRTOS\Source/tasks.c ****     {                                                                                           \
 172:..\FreeRTOS\Source/tasks.c ****         UBaseType_t uxTopPriority;                                                              \
 173:..\FreeRTOS\Source/tasks.c ****                                                                                                 \
 174:..\FreeRTOS\Source/tasks.c ****         /* Find the highest priority list that contains ready tasks. */                         \
 175:..\FreeRTOS\Source/tasks.c ****         portGET_HIGHEST_PRIORITY( uxTopPriority, uxTopReadyPriority );                          \
 176:..\FreeRTOS\Source/tasks.c ****         configASSERT( listCURRENT_LIST_LENGTH( &( pxReadyTasksLists[ uxTopPriority ] ) ) > 0 ); \
 177:..\FreeRTOS\Source/tasks.c ****         listGET_OWNER_OF_NEXT_ENTRY( pxCurrentTCB, &( pxReadyTasksLists[ uxTopPriority ] ) );   \
 178:..\FreeRTOS\Source/tasks.c ****     } /* taskSELECT_HIGHEST_PRIORITY_TASK() */
 179:..\FreeRTOS\Source/tasks.c **** 
 180:..\FreeRTOS\Source/tasks.c **** /*-----------------------------------------------------------*/
 181:..\FreeRTOS\Source/tasks.c **** 
 182:..\FreeRTOS\Source/tasks.c **** /* A port optimised version is provided, call it only if the TCB being reset
 183:..\FreeRTOS\Source/tasks.c ****  * is being referenced from a ready list.  If it is referenced from a delayed
 184:..\FreeRTOS\Source/tasks.c ****  * or suspended list then it won't be in a ready list. */
 185:..\FreeRTOS\Source/tasks.c ****     #define taskRESET_READY_PRIORITY( uxPriority )                                                 
 186:..\FreeRTOS\Source/tasks.c ****     {                                                                                              
 187:..\FreeRTOS\Source/tasks.c ****         if( listCURRENT_LIST_LENGTH( &( pxReadyTasksLists[ ( uxPriority ) ] ) ) == ( UBaseType_t ) 
 188:..\FreeRTOS\Source/tasks.c ****         {                                                                                          
 189:..\FreeRTOS\Source/tasks.c ****             portRESET_READY_PRIORITY( ( uxPriority ), ( uxTopReadyPriority ) );                    
 190:..\FreeRTOS\Source/tasks.c ****         }                                                                                          
 191:..\FreeRTOS\Source/tasks.c ****     }
 192:..\FreeRTOS\Source/tasks.c **** 
 193:..\FreeRTOS\Source/tasks.c **** #endif /* configUSE_PORT_OPTIMISED_TASK_SELECTION */
 194:..\FreeRTOS\Source/tasks.c **** 
 195:..\FreeRTOS\Source/tasks.c **** /*-----------------------------------------------------------*/
 196:..\FreeRTOS\Source/tasks.c **** 
 197:..\FreeRTOS\Source/tasks.c **** /* pxDelayedTaskList and pxOverflowDelayedTaskList are switched when the tick
 198:..\FreeRTOS\Source/tasks.c ****  * count overflows. */
 199:..\FreeRTOS\Source/tasks.c **** #define taskSWITCH_DELAYED_LISTS()                                                \
 200:..\FreeRTOS\Source/tasks.c ****     {                                                                             \
 201:..\FreeRTOS\Source/tasks.c ****         List_t * pxTemp;                                                          \
 202:..\FreeRTOS\Source/tasks.c ****                                                                                   \
 203:..\FreeRTOS\Source/tasks.c ****         /* The delayed tasks list should be empty when the lists are switched. */ \
 204:..\FreeRTOS\Source/tasks.c ****         configASSERT( ( listLIST_IS_EMPTY( pxDelayedTaskList ) ) );               \
 205:..\FreeRTOS\Source/tasks.c ****                                                                                   \
 206:..\FreeRTOS\Source/tasks.c ****         pxTemp = pxDelayedTaskList;                                               \
 207:..\FreeRTOS\Source/tasks.c ****         pxDelayedTaskList = pxOverflowDelayedTaskList;                            \
 208:..\FreeRTOS\Source/tasks.c ****         pxOverflowDelayedTaskList = pxTemp;                                       \
 209:..\FreeRTOS\Source/tasks.c ****         xNumOfOverflows++;                                                        \
 210:..\FreeRTOS\Source/tasks.c ****         prvResetNextTaskUnblockTime();                                            \
 211:..\FreeRTOS\Source/tasks.c ****     }
 212:..\FreeRTOS\Source/tasks.c **** 
 213:..\FreeRTOS\Source/tasks.c **** /*-----------------------------------------------------------*/
 214:..\FreeRTOS\Source/tasks.c **** 
 215:..\FreeRTOS\Source/tasks.c **** /*
ARM GAS  C:\Users\Jason\AppData\Local\Temp\cclSZdbR.s 			page 7


 216:..\FreeRTOS\Source/tasks.c ****  * Place the task represented by pxTCB into the appropriate ready list for
 217:..\FreeRTOS\Source/tasks.c ****  * the task.  It is inserted at the end of the list.
 218:..\FreeRTOS\Source/tasks.c ****  */
 219:..\FreeRTOS\Source/tasks.c **** #define prvAddTaskToReadyList( pxTCB )                                                             
 220:..\FreeRTOS\Source/tasks.c ****     traceMOVED_TASK_TO_READY_STATE( pxTCB );                                                       
 221:..\FreeRTOS\Source/tasks.c ****     taskRECORD_READY_PRIORITY( ( pxTCB )->uxPriority );                                            
 222:..\FreeRTOS\Source/tasks.c ****     vListInsertEnd( &( pxReadyTasksLists[ ( pxTCB )->uxPriority ] ), &( ( pxTCB )->xStateListItem )
 223:..\FreeRTOS\Source/tasks.c ****     tracePOST_MOVED_TASK_TO_READY_STATE( pxTCB )
 224:..\FreeRTOS\Source/tasks.c **** /*-----------------------------------------------------------*/
 225:..\FreeRTOS\Source/tasks.c **** 
 226:..\FreeRTOS\Source/tasks.c **** /*
 227:..\FreeRTOS\Source/tasks.c ****  * Several functions take an TaskHandle_t parameter that can optionally be NULL,
 228:..\FreeRTOS\Source/tasks.c ****  * where NULL is used to indicate that the handle of the currently executing
 229:..\FreeRTOS\Source/tasks.c ****  * task should be used in place of the parameter.  This macro simply checks to
 230:..\FreeRTOS\Source/tasks.c ****  * see if the parameter is NULL and returns a pointer to the appropriate TCB.
 231:..\FreeRTOS\Source/tasks.c ****  */
 232:..\FreeRTOS\Source/tasks.c **** #define prvGetTCBFromHandle( pxHandle )    ( ( ( pxHandle ) == NULL ) ? pxCurrentTCB : ( pxHandle )
 233:..\FreeRTOS\Source/tasks.c **** 
 234:..\FreeRTOS\Source/tasks.c **** /* The item value of the event list item is normally used to hold the priority
 235:..\FreeRTOS\Source/tasks.c ****  * of the task to which it belongs (coded to allow it to be held in reverse
 236:..\FreeRTOS\Source/tasks.c ****  * priority order).  However, it is occasionally borrowed for other purposes.  It
 237:..\FreeRTOS\Source/tasks.c ****  * is important its value is not updated due to a task priority change while it is
 238:..\FreeRTOS\Source/tasks.c ****  * being used for another purpose.  The following bit definition is used to inform
 239:..\FreeRTOS\Source/tasks.c ****  * the scheduler that the value should not be changed - in which case it is the
 240:..\FreeRTOS\Source/tasks.c ****  * responsibility of whichever module is using the value to ensure it gets set back
 241:..\FreeRTOS\Source/tasks.c ****  * to its original value when it is released. */
 242:..\FreeRTOS\Source/tasks.c **** #if ( configUSE_16_BIT_TICKS == 1 )
 243:..\FreeRTOS\Source/tasks.c ****     #define taskEVENT_LIST_ITEM_VALUE_IN_USE    0x8000U
 244:..\FreeRTOS\Source/tasks.c **** #else
 245:..\FreeRTOS\Source/tasks.c ****     #define taskEVENT_LIST_ITEM_VALUE_IN_USE    0x80000000UL
 246:..\FreeRTOS\Source/tasks.c **** #endif
 247:..\FreeRTOS\Source/tasks.c **** 
 248:..\FreeRTOS\Source/tasks.c **** /*
 249:..\FreeRTOS\Source/tasks.c ****  * Task control block.  A task control block (TCB) is allocated for each task,
 250:..\FreeRTOS\Source/tasks.c ****  * and stores task state information, including a pointer to the task's context
 251:..\FreeRTOS\Source/tasks.c ****  * (the task's run time environment, including register values)
 252:..\FreeRTOS\Source/tasks.c ****  */
 253:..\FreeRTOS\Source/tasks.c **** typedef struct tskTaskControlBlock       /* The old naming convention is used to prevent breaking k
 254:..\FreeRTOS\Source/tasks.c **** {
 255:..\FreeRTOS\Source/tasks.c ****     volatile StackType_t * pxTopOfStack; /*< Points to the location of the last item placed on the 
 256:..\FreeRTOS\Source/tasks.c **** 
 257:..\FreeRTOS\Source/tasks.c ****     #if ( portUSING_MPU_WRAPPERS == 1 )
 258:..\FreeRTOS\Source/tasks.c ****         xMPU_SETTINGS xMPUSettings; /*< The MPU settings are defined as part of the port layer.  TH
 259:..\FreeRTOS\Source/tasks.c ****     #endif
 260:..\FreeRTOS\Source/tasks.c **** 
 261:..\FreeRTOS\Source/tasks.c ****     ListItem_t xStateListItem;                  /*< The list that the state list item of a task is 
 262:..\FreeRTOS\Source/tasks.c ****     ListItem_t xEventListItem;                  /*< Used to reference a task from an event list. */
 263:..\FreeRTOS\Source/tasks.c ****     UBaseType_t uxPriority;                     /*< The priority of the task.  0 is the lowest prio
 264:..\FreeRTOS\Source/tasks.c ****     StackType_t * pxStack;                      /*< Points to the start of the stack. */
 265:..\FreeRTOS\Source/tasks.c ****     char pcTaskName[ configMAX_TASK_NAME_LEN ]; /*< Descriptive name given to the task when created
 266:..\FreeRTOS\Source/tasks.c **** 
 267:..\FreeRTOS\Source/tasks.c ****     #if ( ( portSTACK_GROWTH > 0 ) || ( configRECORD_STACK_HIGH_ADDRESS == 1 ) )
 268:..\FreeRTOS\Source/tasks.c ****         StackType_t * pxEndOfStack; /*< Points to the highest valid address for the stack. */
 269:..\FreeRTOS\Source/tasks.c ****     #endif
 270:..\FreeRTOS\Source/tasks.c **** 
 271:..\FreeRTOS\Source/tasks.c ****     #if ( portCRITICAL_NESTING_IN_TCB == 1 )
 272:..\FreeRTOS\Source/tasks.c ****         UBaseType_t uxCriticalNesting; /*< Holds the critical section nesting depth for ports that 
ARM GAS  C:\Users\Jason\AppData\Local\Temp\cclSZdbR.s 			page 8


 273:..\FreeRTOS\Source/tasks.c ****     #endif
 274:..\FreeRTOS\Source/tasks.c **** 
 275:..\FreeRTOS\Source/tasks.c ****     #if ( configUSE_TRACE_FACILITY == 1 )
 276:..\FreeRTOS\Source/tasks.c ****         UBaseType_t uxTCBNumber;  /*< Stores a number that increments each time a TCB is created.  
 277:..\FreeRTOS\Source/tasks.c ****         UBaseType_t uxTaskNumber; /*< Stores a number specifically for use by third party trace cod
 278:..\FreeRTOS\Source/tasks.c ****     #endif
 279:..\FreeRTOS\Source/tasks.c **** 
 280:..\FreeRTOS\Source/tasks.c ****     #if ( configUSE_MUTEXES == 1 )
 281:..\FreeRTOS\Source/tasks.c ****         UBaseType_t uxBasePriority; /*< The priority last assigned to the task - used by the priori
 282:..\FreeRTOS\Source/tasks.c ****         UBaseType_t uxMutexesHeld;
 283:..\FreeRTOS\Source/tasks.c ****     #endif
 284:..\FreeRTOS\Source/tasks.c **** 
 285:..\FreeRTOS\Source/tasks.c ****     #if ( configUSE_APPLICATION_TASK_TAG == 1 )
 286:..\FreeRTOS\Source/tasks.c ****         TaskHookFunction_t pxTaskTag;
 287:..\FreeRTOS\Source/tasks.c ****     #endif
 288:..\FreeRTOS\Source/tasks.c **** 
 289:..\FreeRTOS\Source/tasks.c ****     #if ( configNUM_THREAD_LOCAL_STORAGE_POINTERS > 0 )
 290:..\FreeRTOS\Source/tasks.c ****         void * pvThreadLocalStoragePointers[ configNUM_THREAD_LOCAL_STORAGE_POINTERS ];
 291:..\FreeRTOS\Source/tasks.c ****     #endif
 292:..\FreeRTOS\Source/tasks.c **** 
 293:..\FreeRTOS\Source/tasks.c ****     #if ( configGENERATE_RUN_TIME_STATS == 1 )
 294:..\FreeRTOS\Source/tasks.c ****         uint32_t ulRunTimeCounter; /*< Stores the amount of time the task has spent in the Running 
 295:..\FreeRTOS\Source/tasks.c ****     #endif
 296:..\FreeRTOS\Source/tasks.c **** 
 297:..\FreeRTOS\Source/tasks.c ****     #if ( configUSE_NEWLIB_REENTRANT == 1 )
 298:..\FreeRTOS\Source/tasks.c **** 
 299:..\FreeRTOS\Source/tasks.c ****         /* Allocate a Newlib reent structure that is specific to this task.
 300:..\FreeRTOS\Source/tasks.c ****          * Note Newlib support has been included by popular demand, but is not
 301:..\FreeRTOS\Source/tasks.c ****          * used by the FreeRTOS maintainers themselves.  FreeRTOS is not
 302:..\FreeRTOS\Source/tasks.c ****          * responsible for resulting newlib operation.  User must be familiar with
 303:..\FreeRTOS\Source/tasks.c ****          * newlib and must provide system-wide implementations of the necessary
 304:..\FreeRTOS\Source/tasks.c ****          * stubs. Be warned that (at the time of writing) the current newlib design
 305:..\FreeRTOS\Source/tasks.c ****          * implements a system-wide malloc() that must be provided with locks.
 306:..\FreeRTOS\Source/tasks.c ****          *
 307:..\FreeRTOS\Source/tasks.c ****          * See the third party link http://www.nadler.com/embedded/newlibAndFreeRTOS.html
 308:..\FreeRTOS\Source/tasks.c ****          * for additional information. */
 309:..\FreeRTOS\Source/tasks.c ****         struct  _reent xNewLib_reent;
 310:..\FreeRTOS\Source/tasks.c ****     #endif
 311:..\FreeRTOS\Source/tasks.c **** 
 312:..\FreeRTOS\Source/tasks.c ****     #if ( configUSE_TASK_NOTIFICATIONS == 1 )
 313:..\FreeRTOS\Source/tasks.c ****         volatile uint32_t ulNotifiedValue[ configTASK_NOTIFICATION_ARRAY_ENTRIES ];
 314:..\FreeRTOS\Source/tasks.c ****         volatile uint8_t ucNotifyState[ configTASK_NOTIFICATION_ARRAY_ENTRIES ];
 315:..\FreeRTOS\Source/tasks.c ****     #endif
 316:..\FreeRTOS\Source/tasks.c **** 
 317:..\FreeRTOS\Source/tasks.c ****     /* See the comments in FreeRTOS.h with the definition of
 318:..\FreeRTOS\Source/tasks.c ****      * tskSTATIC_AND_DYNAMIC_ALLOCATION_POSSIBLE. */
 319:..\FreeRTOS\Source/tasks.c ****     #if ( tskSTATIC_AND_DYNAMIC_ALLOCATION_POSSIBLE != 0 ) /*lint !e731 !e9029 Macro has been conso
 320:..\FreeRTOS\Source/tasks.c ****         uint8_t ucStaticallyAllocated;                     /*< Set to pdTRUE if the task is a stati
 321:..\FreeRTOS\Source/tasks.c ****     #endif
 322:..\FreeRTOS\Source/tasks.c **** 
 323:..\FreeRTOS\Source/tasks.c ****     #if ( INCLUDE_xTaskAbortDelay == 1 )
 324:..\FreeRTOS\Source/tasks.c ****         uint8_t ucDelayAborted;
 325:..\FreeRTOS\Source/tasks.c ****     #endif
 326:..\FreeRTOS\Source/tasks.c **** 
 327:..\FreeRTOS\Source/tasks.c ****     #if ( configUSE_POSIX_ERRNO == 1 )
 328:..\FreeRTOS\Source/tasks.c ****         int iTaskErrno;
 329:..\FreeRTOS\Source/tasks.c ****     #endif
ARM GAS  C:\Users\Jason\AppData\Local\Temp\cclSZdbR.s 			page 9


 330:..\FreeRTOS\Source/tasks.c **** } tskTCB;
 331:..\FreeRTOS\Source/tasks.c **** 
 332:..\FreeRTOS\Source/tasks.c **** /* The old tskTCB name is maintained above then typedefed to the new TCB_t name
 333:..\FreeRTOS\Source/tasks.c ****  * below to enable the use of older kernel aware debuggers. */
 334:..\FreeRTOS\Source/tasks.c **** typedef tskTCB TCB_t;
 335:..\FreeRTOS\Source/tasks.c **** 
 336:..\FreeRTOS\Source/tasks.c **** /*lint -save -e956 A manual analysis and inspection has been used to determine
 337:..\FreeRTOS\Source/tasks.c ****  * which static variables must be declared volatile. */
 338:..\FreeRTOS\Source/tasks.c **** PRIVILEGED_DATA TCB_t * volatile pxCurrentTCB = NULL;
 339:..\FreeRTOS\Source/tasks.c **** 
 340:..\FreeRTOS\Source/tasks.c **** /* Lists for ready and blocked tasks. --------------------
 341:..\FreeRTOS\Source/tasks.c ****  * xDelayedTaskList1 and xDelayedTaskList2 could be move to function scople but
 342:..\FreeRTOS\Source/tasks.c ****  * doing so breaks some kernel aware debuggers and debuggers that rely on removing
 343:..\FreeRTOS\Source/tasks.c ****  * the static qualifier. */
 344:..\FreeRTOS\Source/tasks.c **** PRIVILEGED_DATA static List_t pxReadyTasksLists[ configMAX_PRIORITIES ]; /*< Prioritised ready task
 345:..\FreeRTOS\Source/tasks.c **** PRIVILEGED_DATA static List_t xDelayedTaskList1;                         /*< Delayed tasks. */
 346:..\FreeRTOS\Source/tasks.c **** PRIVILEGED_DATA static List_t xDelayedTaskList2;                         /*< Delayed tasks (two lis
 347:..\FreeRTOS\Source/tasks.c **** PRIVILEGED_DATA static List_t * volatile pxDelayedTaskList;              /*< Points to the delayed 
 348:..\FreeRTOS\Source/tasks.c **** PRIVILEGED_DATA static List_t * volatile pxOverflowDelayedTaskList;      /*< Points to the delayed 
 349:..\FreeRTOS\Source/tasks.c **** PRIVILEGED_DATA static List_t xPendingReadyList;                         /*< Tasks that have been r
 350:..\FreeRTOS\Source/tasks.c **** 
 351:..\FreeRTOS\Source/tasks.c **** #if ( INCLUDE_vTaskDelete == 1 )
 352:..\FreeRTOS\Source/tasks.c **** 
 353:..\FreeRTOS\Source/tasks.c ****     PRIVILEGED_DATA static List_t xTasksWaitingTermination; /*< Tasks that have been deleted - but 
 354:..\FreeRTOS\Source/tasks.c ****     PRIVILEGED_DATA static volatile UBaseType_t uxDeletedTasksWaitingCleanUp = ( UBaseType_t ) 0U;
 355:..\FreeRTOS\Source/tasks.c **** 
 356:..\FreeRTOS\Source/tasks.c **** #endif
 357:..\FreeRTOS\Source/tasks.c **** 
 358:..\FreeRTOS\Source/tasks.c **** #if ( INCLUDE_vTaskSuspend == 1 )
 359:..\FreeRTOS\Source/tasks.c **** 
 360:..\FreeRTOS\Source/tasks.c ****     PRIVILEGED_DATA static List_t xSuspendedTaskList; /*< Tasks that are currently suspended. */
 361:..\FreeRTOS\Source/tasks.c **** 
 362:..\FreeRTOS\Source/tasks.c **** #endif
 363:..\FreeRTOS\Source/tasks.c **** 
 364:..\FreeRTOS\Source/tasks.c **** /* Global POSIX errno. Its value is changed upon context switching to match
 365:..\FreeRTOS\Source/tasks.c ****  * the errno of the currently running task. */
 366:..\FreeRTOS\Source/tasks.c **** #if ( configUSE_POSIX_ERRNO == 1 )
 367:..\FreeRTOS\Source/tasks.c ****     int FreeRTOS_errno = 0;
 368:..\FreeRTOS\Source/tasks.c **** #endif
 369:..\FreeRTOS\Source/tasks.c **** 
 370:..\FreeRTOS\Source/tasks.c **** /* Other file private variables. --------------------------------*/
 371:..\FreeRTOS\Source/tasks.c **** PRIVILEGED_DATA static volatile UBaseType_t uxCurrentNumberOfTasks = ( UBaseType_t ) 0U;
 372:..\FreeRTOS\Source/tasks.c **** PRIVILEGED_DATA static volatile TickType_t xTickCount = ( TickType_t ) configINITIAL_TICK_COUNT;
 373:..\FreeRTOS\Source/tasks.c **** PRIVILEGED_DATA static volatile UBaseType_t uxTopReadyPriority = tskIDLE_PRIORITY;
 374:..\FreeRTOS\Source/tasks.c **** PRIVILEGED_DATA static volatile BaseType_t xSchedulerRunning = pdFALSE;
 375:..\FreeRTOS\Source/tasks.c **** PRIVILEGED_DATA static volatile TickType_t xPendedTicks = ( TickType_t ) 0U;
 376:..\FreeRTOS\Source/tasks.c **** PRIVILEGED_DATA static volatile BaseType_t xYieldPending = pdFALSE;
 377:..\FreeRTOS\Source/tasks.c **** PRIVILEGED_DATA static volatile BaseType_t xNumOfOverflows = ( BaseType_t ) 0;
 378:..\FreeRTOS\Source/tasks.c **** PRIVILEGED_DATA static UBaseType_t uxTaskNumber = ( UBaseType_t ) 0U;
 379:..\FreeRTOS\Source/tasks.c **** PRIVILEGED_DATA static volatile TickType_t xNextTaskUnblockTime = ( TickType_t ) 0U; /* Initialised
 380:..\FreeRTOS\Source/tasks.c **** PRIVILEGED_DATA static TaskHandle_t xIdleTaskHandle = NULL;                          /*< Holds the 
 381:..\FreeRTOS\Source/tasks.c **** 
 382:..\FreeRTOS\Source/tasks.c **** /* Improve support for OpenOCD. The kernel tracks Ready tasks via priority lists.
 383:..\FreeRTOS\Source/tasks.c ****  * For tracking the state of remote threads, OpenOCD uses uxTopUsedPriority
 384:..\FreeRTOS\Source/tasks.c ****  * to determine the number of priority lists to read back from the remote target. */
 385:..\FreeRTOS\Source/tasks.c **** const volatile UBaseType_t uxTopUsedPriority = configMAX_PRIORITIES - 1U;
 386:..\FreeRTOS\Source/tasks.c **** 
ARM GAS  C:\Users\Jason\AppData\Local\Temp\cclSZdbR.s 			page 10


 387:..\FreeRTOS\Source/tasks.c **** /* Context switches are held pending while the scheduler is suspended.  Also,
 388:..\FreeRTOS\Source/tasks.c ****  * interrupts must not manipulate the xStateListItem of a TCB, or any of the
 389:..\FreeRTOS\Source/tasks.c ****  * lists the xStateListItem can be referenced from, if the scheduler is suspended.
 390:..\FreeRTOS\Source/tasks.c ****  * If an interrupt needs to unblock a task while the scheduler is suspended then it
 391:..\FreeRTOS\Source/tasks.c ****  * moves the task's event list item into the xPendingReadyList, ready for the
 392:..\FreeRTOS\Source/tasks.c ****  * kernel to move the task from the pending ready list into the real ready list
 393:..\FreeRTOS\Source/tasks.c ****  * when the scheduler is unsuspended.  The pending ready list itself can only be
 394:..\FreeRTOS\Source/tasks.c ****  * accessed from a critical section. */
 395:..\FreeRTOS\Source/tasks.c **** PRIVILEGED_DATA static volatile UBaseType_t uxSchedulerSuspended = ( UBaseType_t ) pdFALSE;
 396:..\FreeRTOS\Source/tasks.c **** 
 397:..\FreeRTOS\Source/tasks.c **** #if ( configGENERATE_RUN_TIME_STATS == 1 )
 398:..\FreeRTOS\Source/tasks.c **** 
 399:..\FreeRTOS\Source/tasks.c **** /* Do not move these variables to function scope as doing so prevents the
 400:..\FreeRTOS\Source/tasks.c ****  * code working with debuggers that need to remove the static qualifier. */
 401:..\FreeRTOS\Source/tasks.c ****     PRIVILEGED_DATA static uint32_t ulTaskSwitchedInTime = 0UL;    /*< Holds the value of a timer/c
 402:..\FreeRTOS\Source/tasks.c ****     PRIVILEGED_DATA static volatile uint32_t ulTotalRunTime = 0UL; /*< Holds the total amount of ex
 403:..\FreeRTOS\Source/tasks.c **** 
 404:..\FreeRTOS\Source/tasks.c **** #endif
 405:..\FreeRTOS\Source/tasks.c **** 
 406:..\FreeRTOS\Source/tasks.c **** /*lint -restore */
 407:..\FreeRTOS\Source/tasks.c **** 
 408:..\FreeRTOS\Source/tasks.c **** /*-----------------------------------------------------------*/
 409:..\FreeRTOS\Source/tasks.c **** 
 410:..\FreeRTOS\Source/tasks.c **** /* File private functions. --------------------------------*/
 411:..\FreeRTOS\Source/tasks.c **** 
 412:..\FreeRTOS\Source/tasks.c **** /**
 413:..\FreeRTOS\Source/tasks.c ****  * Utility task that simply returns pdTRUE if the task referenced by xTask is
 414:..\FreeRTOS\Source/tasks.c ****  * currently in the Suspended state, or pdFALSE if the task referenced by xTask
 415:..\FreeRTOS\Source/tasks.c ****  * is in any other state.
 416:..\FreeRTOS\Source/tasks.c ****  */
 417:..\FreeRTOS\Source/tasks.c **** #if ( INCLUDE_vTaskSuspend == 1 )
 418:..\FreeRTOS\Source/tasks.c **** 
 419:..\FreeRTOS\Source/tasks.c ****     static BaseType_t prvTaskIsTaskSuspended( const TaskHandle_t xTask ) PRIVILEGED_FUNCTION;
 420:..\FreeRTOS\Source/tasks.c **** 
 421:..\FreeRTOS\Source/tasks.c **** #endif /* INCLUDE_vTaskSuspend */
 422:..\FreeRTOS\Source/tasks.c **** 
 423:..\FreeRTOS\Source/tasks.c **** /*
 424:..\FreeRTOS\Source/tasks.c ****  * Utility to ready all the lists used by the scheduler.  This is called
 425:..\FreeRTOS\Source/tasks.c ****  * automatically upon the creation of the first task.
 426:..\FreeRTOS\Source/tasks.c ****  */
 427:..\FreeRTOS\Source/tasks.c **** static void prvInitialiseTaskLists( void ) PRIVILEGED_FUNCTION;
 428:..\FreeRTOS\Source/tasks.c **** 
 429:..\FreeRTOS\Source/tasks.c **** /*
 430:..\FreeRTOS\Source/tasks.c ****  * The idle task, which as all tasks is implemented as a never ending loop.
 431:..\FreeRTOS\Source/tasks.c ****  * The idle task is automatically created and added to the ready lists upon
 432:..\FreeRTOS\Source/tasks.c ****  * creation of the first user task.
 433:..\FreeRTOS\Source/tasks.c ****  *
 434:..\FreeRTOS\Source/tasks.c ****  * The portTASK_FUNCTION_PROTO() macro is used to allow port/compiler specific
 435:..\FreeRTOS\Source/tasks.c ****  * language extensions.  The equivalent prototype for this function is:
 436:..\FreeRTOS\Source/tasks.c ****  *
 437:..\FreeRTOS\Source/tasks.c ****  * void prvIdleTask( void *pvParameters );
 438:..\FreeRTOS\Source/tasks.c ****  *
 439:..\FreeRTOS\Source/tasks.c ****  */
 440:..\FreeRTOS\Source/tasks.c **** static portTASK_FUNCTION_PROTO( prvIdleTask, pvParameters ) PRIVILEGED_FUNCTION;
 441:..\FreeRTOS\Source/tasks.c **** 
 442:..\FreeRTOS\Source/tasks.c **** /*
 443:..\FreeRTOS\Source/tasks.c ****  * Utility to free all memory allocated by the scheduler to hold a TCB,
ARM GAS  C:\Users\Jason\AppData\Local\Temp\cclSZdbR.s 			page 11


 444:..\FreeRTOS\Source/tasks.c ****  * including the stack pointed to by the TCB.
 445:..\FreeRTOS\Source/tasks.c ****  *
 446:..\FreeRTOS\Source/tasks.c ****  * This does not free memory allocated by the task itself (i.e. memory
 447:..\FreeRTOS\Source/tasks.c ****  * allocated by calls to pvPortMalloc from within the tasks application code).
 448:..\FreeRTOS\Source/tasks.c ****  */
 449:..\FreeRTOS\Source/tasks.c **** #if ( INCLUDE_vTaskDelete == 1 )
 450:..\FreeRTOS\Source/tasks.c **** 
 451:..\FreeRTOS\Source/tasks.c ****     static void prvDeleteTCB( TCB_t * pxTCB ) PRIVILEGED_FUNCTION;
 452:..\FreeRTOS\Source/tasks.c **** 
 453:..\FreeRTOS\Source/tasks.c **** #endif
 454:..\FreeRTOS\Source/tasks.c **** 
 455:..\FreeRTOS\Source/tasks.c **** /*
 456:..\FreeRTOS\Source/tasks.c ****  * Used only by the idle task.  This checks to see if anything has been placed
 457:..\FreeRTOS\Source/tasks.c ****  * in the list of tasks waiting to be deleted.  If so the task is cleaned up
 458:..\FreeRTOS\Source/tasks.c ****  * and its TCB deleted.
 459:..\FreeRTOS\Source/tasks.c ****  */
 460:..\FreeRTOS\Source/tasks.c **** static void prvCheckTasksWaitingTermination( void ) PRIVILEGED_FUNCTION;
 461:..\FreeRTOS\Source/tasks.c **** 
 462:..\FreeRTOS\Source/tasks.c **** /*
 463:..\FreeRTOS\Source/tasks.c ****  * The currently executing task is entering the Blocked state.  Add the task to
 464:..\FreeRTOS\Source/tasks.c ****  * either the current or the overflow delayed task list.
 465:..\FreeRTOS\Source/tasks.c ****  */
 466:..\FreeRTOS\Source/tasks.c **** static void prvAddCurrentTaskToDelayedList( TickType_t xTicksToWait,
 467:..\FreeRTOS\Source/tasks.c ****                                             const BaseType_t xCanBlockIndefinitely ) PRIVILEGED_FUN
 468:..\FreeRTOS\Source/tasks.c **** 
 469:..\FreeRTOS\Source/tasks.c **** /*
 470:..\FreeRTOS\Source/tasks.c ****  * Fills an TaskStatus_t structure with information on each task that is
 471:..\FreeRTOS\Source/tasks.c ****  * referenced from the pxList list (which may be a ready list, a delayed list,
 472:..\FreeRTOS\Source/tasks.c ****  * a suspended list, etc.).
 473:..\FreeRTOS\Source/tasks.c ****  *
 474:..\FreeRTOS\Source/tasks.c ****  * THIS FUNCTION IS INTENDED FOR DEBUGGING ONLY, AND SHOULD NOT BE CALLED FROM
 475:..\FreeRTOS\Source/tasks.c ****  * NORMAL APPLICATION CODE.
 476:..\FreeRTOS\Source/tasks.c ****  */
 477:..\FreeRTOS\Source/tasks.c **** #if ( configUSE_TRACE_FACILITY == 1 )
 478:..\FreeRTOS\Source/tasks.c **** 
 479:..\FreeRTOS\Source/tasks.c ****     static UBaseType_t prvListTasksWithinSingleList( TaskStatus_t * pxTaskStatusArray,
 480:..\FreeRTOS\Source/tasks.c ****                                                      List_t * pxList,
 481:..\FreeRTOS\Source/tasks.c ****                                                      eTaskState eState ) PRIVILEGED_FUNCTION;
 482:..\FreeRTOS\Source/tasks.c **** 
 483:..\FreeRTOS\Source/tasks.c **** #endif
 484:..\FreeRTOS\Source/tasks.c **** 
 485:..\FreeRTOS\Source/tasks.c **** /*
 486:..\FreeRTOS\Source/tasks.c ****  * Searches pxList for a task with name pcNameToQuery - returning a handle to
 487:..\FreeRTOS\Source/tasks.c ****  * the task if it is found, or NULL if the task is not found.
 488:..\FreeRTOS\Source/tasks.c ****  */
 489:..\FreeRTOS\Source/tasks.c **** #if ( INCLUDE_xTaskGetHandle == 1 )
 490:..\FreeRTOS\Source/tasks.c **** 
 491:..\FreeRTOS\Source/tasks.c ****     static TCB_t * prvSearchForNameWithinSingleList( List_t * pxList,
 492:..\FreeRTOS\Source/tasks.c ****                                                      const char pcNameToQuery[] ) PRIVILEGED_FUNCTI
 493:..\FreeRTOS\Source/tasks.c **** 
 494:..\FreeRTOS\Source/tasks.c **** #endif
 495:..\FreeRTOS\Source/tasks.c **** 
 496:..\FreeRTOS\Source/tasks.c **** /*
 497:..\FreeRTOS\Source/tasks.c ****  * When a task is created, the stack of the task is filled with a known value.
 498:..\FreeRTOS\Source/tasks.c ****  * This function determines the 'high water mark' of the task stack by
 499:..\FreeRTOS\Source/tasks.c ****  * determining how much of the stack remains at the original preset value.
 500:..\FreeRTOS\Source/tasks.c ****  */
ARM GAS  C:\Users\Jason\AppData\Local\Temp\cclSZdbR.s 			page 12


 501:..\FreeRTOS\Source/tasks.c **** #if ( ( configUSE_TRACE_FACILITY == 1 ) || ( INCLUDE_uxTaskGetStackHighWaterMark == 1 ) || ( INCLUD
 502:..\FreeRTOS\Source/tasks.c **** 
 503:..\FreeRTOS\Source/tasks.c ****     static configSTACK_DEPTH_TYPE prvTaskCheckFreeStackSpace( const uint8_t * pucStackByte ) PRIVIL
 504:..\FreeRTOS\Source/tasks.c **** 
 505:..\FreeRTOS\Source/tasks.c **** #endif
 506:..\FreeRTOS\Source/tasks.c **** 
 507:..\FreeRTOS\Source/tasks.c **** /*
 508:..\FreeRTOS\Source/tasks.c ****  * Return the amount of time, in ticks, that will pass before the kernel will
 509:..\FreeRTOS\Source/tasks.c ****  * next move a task from the Blocked state to the Running state.
 510:..\FreeRTOS\Source/tasks.c ****  *
 511:..\FreeRTOS\Source/tasks.c ****  * This conditional compilation should use inequality to 0, not equality to 1.
 512:..\FreeRTOS\Source/tasks.c ****  * This is to ensure portSUPPRESS_TICKS_AND_SLEEP() can be called when user
 513:..\FreeRTOS\Source/tasks.c ****  * defined low power mode implementations require configUSE_TICKLESS_IDLE to be
 514:..\FreeRTOS\Source/tasks.c ****  * set to a value other than 1.
 515:..\FreeRTOS\Source/tasks.c ****  */
 516:..\FreeRTOS\Source/tasks.c **** #if ( configUSE_TICKLESS_IDLE != 0 )
 517:..\FreeRTOS\Source/tasks.c **** 
 518:..\FreeRTOS\Source/tasks.c ****     static TickType_t prvGetExpectedIdleTime( void ) PRIVILEGED_FUNCTION;
 519:..\FreeRTOS\Source/tasks.c **** 
 520:..\FreeRTOS\Source/tasks.c **** #endif
 521:..\FreeRTOS\Source/tasks.c **** 
 522:..\FreeRTOS\Source/tasks.c **** /*
 523:..\FreeRTOS\Source/tasks.c ****  * Set xNextTaskUnblockTime to the time at which the next Blocked state task
 524:..\FreeRTOS\Source/tasks.c ****  * will exit the Blocked state.
 525:..\FreeRTOS\Source/tasks.c ****  */
 526:..\FreeRTOS\Source/tasks.c **** static void prvResetNextTaskUnblockTime( void ) PRIVILEGED_FUNCTION;
 527:..\FreeRTOS\Source/tasks.c **** 
 528:..\FreeRTOS\Source/tasks.c **** #if ( ( configUSE_TRACE_FACILITY == 1 ) && ( configUSE_STATS_FORMATTING_FUNCTIONS > 0 ) )
 529:..\FreeRTOS\Source/tasks.c **** 
 530:..\FreeRTOS\Source/tasks.c **** /*
 531:..\FreeRTOS\Source/tasks.c ****  * Helper function used to pad task names with spaces when printing out
 532:..\FreeRTOS\Source/tasks.c ****  * human readable tables of task information.
 533:..\FreeRTOS\Source/tasks.c ****  */
 534:..\FreeRTOS\Source/tasks.c ****     static char * prvWriteNameToBuffer( char * pcBuffer,
 535:..\FreeRTOS\Source/tasks.c ****                                         const char * pcTaskName ) PRIVILEGED_FUNCTION;
 536:..\FreeRTOS\Source/tasks.c **** 
 537:..\FreeRTOS\Source/tasks.c **** #endif
 538:..\FreeRTOS\Source/tasks.c **** 
 539:..\FreeRTOS\Source/tasks.c **** /*
 540:..\FreeRTOS\Source/tasks.c ****  * Called after a Task_t structure has been allocated either statically or
 541:..\FreeRTOS\Source/tasks.c ****  * dynamically to fill in the structure's members.
 542:..\FreeRTOS\Source/tasks.c ****  */
 543:..\FreeRTOS\Source/tasks.c **** static void prvInitialiseNewTask( TaskFunction_t pxTaskCode,
 544:..\FreeRTOS\Source/tasks.c ****                                   const char * const pcName, /*lint !e971 Unqualified char types ar
 545:..\FreeRTOS\Source/tasks.c ****                                   const uint32_t ulStackDepth,
 546:..\FreeRTOS\Source/tasks.c ****                                   void * const pvParameters,
 547:..\FreeRTOS\Source/tasks.c ****                                   UBaseType_t uxPriority,
 548:..\FreeRTOS\Source/tasks.c ****                                   TaskHandle_t * const pxCreatedTask,
 549:..\FreeRTOS\Source/tasks.c ****                                   TCB_t * pxNewTCB,
 550:..\FreeRTOS\Source/tasks.c ****                                   const MemoryRegion_t * const xRegions ) PRIVILEGED_FUNCTION;
 551:..\FreeRTOS\Source/tasks.c **** 
 552:..\FreeRTOS\Source/tasks.c **** /*
 553:..\FreeRTOS\Source/tasks.c ****  * Called after a new task has been created and initialised to place the task
 554:..\FreeRTOS\Source/tasks.c ****  * under the control of the scheduler.
 555:..\FreeRTOS\Source/tasks.c ****  */
 556:..\FreeRTOS\Source/tasks.c **** static void prvAddNewTaskToReadyList( TCB_t * pxNewTCB ) PRIVILEGED_FUNCTION;
 557:..\FreeRTOS\Source/tasks.c **** 
ARM GAS  C:\Users\Jason\AppData\Local\Temp\cclSZdbR.s 			page 13


 558:..\FreeRTOS\Source/tasks.c **** /*
 559:..\FreeRTOS\Source/tasks.c ****  * freertos_tasks_c_additions_init() should only be called if the user definable
 560:..\FreeRTOS\Source/tasks.c ****  * macro FREERTOS_TASKS_C_ADDITIONS_INIT() is defined, as that is the only macro
 561:..\FreeRTOS\Source/tasks.c ****  * called by the function.
 562:..\FreeRTOS\Source/tasks.c ****  */
 563:..\FreeRTOS\Source/tasks.c **** #ifdef FREERTOS_TASKS_C_ADDITIONS_INIT
 564:..\FreeRTOS\Source/tasks.c **** 
 565:..\FreeRTOS\Source/tasks.c ****     static void freertos_tasks_c_additions_init( void ) PRIVILEGED_FUNCTION;
 566:..\FreeRTOS\Source/tasks.c **** 
 567:..\FreeRTOS\Source/tasks.c **** #endif
 568:..\FreeRTOS\Source/tasks.c **** 
 569:..\FreeRTOS\Source/tasks.c **** /*-----------------------------------------------------------*/
 570:..\FreeRTOS\Source/tasks.c **** 
 571:..\FreeRTOS\Source/tasks.c **** #if ( configSUPPORT_STATIC_ALLOCATION == 1 )
 572:..\FreeRTOS\Source/tasks.c **** 
 573:..\FreeRTOS\Source/tasks.c ****     TaskHandle_t xTaskCreateStatic( TaskFunction_t pxTaskCode,
 574:..\FreeRTOS\Source/tasks.c ****                                     const char * const pcName, /*lint !e971 Unqualified char types 
 575:..\FreeRTOS\Source/tasks.c ****                                     const uint32_t ulStackDepth,
 576:..\FreeRTOS\Source/tasks.c ****                                     void * const pvParameters,
 577:..\FreeRTOS\Source/tasks.c ****                                     UBaseType_t uxPriority,
 578:..\FreeRTOS\Source/tasks.c ****                                     StackType_t * const puxStackBuffer,
 579:..\FreeRTOS\Source/tasks.c ****                                     StaticTask_t * const pxTaskBuffer )
 580:..\FreeRTOS\Source/tasks.c ****     {
 104              		.loc 1 580 0
 105              		.cfi_startproc
 106              		@ args = 12, pretend = 0, frame = 32
 107              		@ frame_needed = 1, uses_anonymous_args = 0
 108 0000 90B5     		push	{r4, r7, lr}
 109              		.cfi_def_cfa_offset 12
 110              		.cfi_offset 4, -12
 111              		.cfi_offset 7, -8
 112              		.cfi_offset 14, -4
 113 0002 8DB0     		sub	sp, sp, #52
 114              		.cfi_def_cfa_offset 64
 115 0004 04AF     		add	r7, sp, #16
 116              		.cfi_def_cfa 7, 48
 117 0006 F860     		str	r0, [r7, #12]
 118 0008 B960     		str	r1, [r7, #8]
 119 000a 7A60     		str	r2, [r7, #4]
 120 000c 3B60     		str	r3, [r7]
 581:..\FreeRTOS\Source/tasks.c ****         TCB_t * pxNewTCB;
 582:..\FreeRTOS\Source/tasks.c ****         TaskHandle_t xReturn;
 583:..\FreeRTOS\Source/tasks.c **** 
 584:..\FreeRTOS\Source/tasks.c ****         configASSERT( puxStackBuffer != NULL );
 121              		.loc 1 584 0
 122 000e 204B     		ldr	r3, .L11
 123 0010 1B88     		ldrh	r3, [r3]
 124 0012 002B     		cmp	r3, #0
 125 0014 01D1     		bne	.L2
 126              		.loc 1 584 0 is_stmt 0 discriminator 1
 127              		.syntax divided
 128              	@ 584 "..\FreeRTOS\Source\tasks.c" 1
 129 0016 72B6     		 cpsid i 
 130              	@ 0 "" 2
 131              		.thumb
 132              		.syntax unified
 133              	.L3:
ARM GAS  C:\Users\Jason\AppData\Local\Temp\cclSZdbR.s 			page 14


 134 0018 FEE7     		b	.L3
 135              	.L2:
 585:..\FreeRTOS\Source/tasks.c ****         configASSERT( pxTaskBuffer != NULL );
 136              		.loc 1 585 0 is_stmt 1
 137 001a 1D4B     		ldr	r3, .L11
 138 001c 1B88     		ldrh	r3, [r3]
 139 001e 002B     		cmp	r3, #0
 140 0020 01D1     		bne	.L4
 141              		.loc 1 585 0 is_stmt 0 discriminator 1
 142              		.syntax divided
 143              	@ 585 "..\FreeRTOS\Source\tasks.c" 1
 144 0022 72B6     		 cpsid i 
 145              	@ 0 "" 2
 146              		.thumb
 147              		.syntax unified
 148              	.L5:
 149              		.loc 1 585 0 discriminator 2
 150 0024 FEE7     		b	.L5
 151              	.L4:
 152              	.LBB2:
 586:..\FreeRTOS\Source/tasks.c **** 
 587:..\FreeRTOS\Source/tasks.c ****         #if ( configASSERT_DEFINED == 1 )
 588:..\FreeRTOS\Source/tasks.c ****             {
 589:..\FreeRTOS\Source/tasks.c ****                 /* Sanity check that the size of the structure used to declare a
 590:..\FreeRTOS\Source/tasks.c ****                  * variable of type StaticTask_t equals the size of the real task
 591:..\FreeRTOS\Source/tasks.c ****                  * structure. */
 592:..\FreeRTOS\Source/tasks.c ****                 volatile size_t xSize = sizeof( StaticTask_t );
 153              		.loc 1 592 0 is_stmt 1
 154 0026 6823     		movs	r3, #104
 155 0028 7B61     		str	r3, [r7, #20]
 593:..\FreeRTOS\Source/tasks.c ****                 configASSERT( xSize == sizeof( TCB_t ) );
 156              		.loc 1 593 0
 157 002a 194B     		ldr	r3, .L11
 158 002c 1B88     		ldrh	r3, [r3]
 159 002e 002B     		cmp	r3, #0
 160 0030 01D1     		bne	.L6
 161              		.loc 1 593 0 is_stmt 0 discriminator 1
 162              		.syntax divided
 163              	@ 593 "..\FreeRTOS\Source\tasks.c" 1
 164 0032 72B6     		 cpsid i 
 165              	@ 0 "" 2
 166              		.thumb
 167              		.syntax unified
 168              	.L7:
 169              		.loc 1 593 0 discriminator 3
 170 0034 FEE7     		b	.L7
 171              	.L6:
 172              		.loc 1 593 0 discriminator 2
 173 0036 7B69     		ldr	r3, [r7, #20]
 594:..\FreeRTOS\Source/tasks.c ****                 ( void ) xSize; /* Prevent lint warning when configASSERT() is not used. */
 174              		.loc 1 594 0 is_stmt 1 discriminator 2
 175 0038 7B69     		ldr	r3, [r7, #20]
 176              	.LBE2:
 595:..\FreeRTOS\Source/tasks.c ****             }
 596:..\FreeRTOS\Source/tasks.c ****         #endif /* configASSERT_DEFINED */
 597:..\FreeRTOS\Source/tasks.c **** 
 598:..\FreeRTOS\Source/tasks.c ****         if( ( pxTaskBuffer != NULL ) && ( puxStackBuffer != NULL ) )
ARM GAS  C:\Users\Jason\AppData\Local\Temp\cclSZdbR.s 			page 15


 177              		.loc 1 598 0 discriminator 2
 178 003a BB6B     		ldr	r3, [r7, #56]
 179 003c 002B     		cmp	r3, #0
 180 003e 20D0     		beq	.L8
 181              		.loc 1 598 0 is_stmt 0 discriminator 1
 182 0040 7B6B     		ldr	r3, [r7, #52]
 183 0042 002B     		cmp	r3, #0
 184 0044 1DD0     		beq	.L8
 599:..\FreeRTOS\Source/tasks.c ****         {
 600:..\FreeRTOS\Source/tasks.c ****             /* The memory used for the task's TCB and stack are passed into this
 601:..\FreeRTOS\Source/tasks.c ****              * function - use them. */
 602:..\FreeRTOS\Source/tasks.c ****             pxNewTCB = ( TCB_t * ) pxTaskBuffer; /*lint !e740 !e9087 Unusual cast is ok as the stru
 185              		.loc 1 602 0 is_stmt 1
 186 0046 BB6B     		ldr	r3, [r7, #56]
 187 0048 FB61     		str	r3, [r7, #28]
 603:..\FreeRTOS\Source/tasks.c ****             pxNewTCB->pxStack = ( StackType_t * ) puxStackBuffer;
 188              		.loc 1 603 0
 189 004a FB69     		ldr	r3, [r7, #28]
 190 004c 7A6B     		ldr	r2, [r7, #52]
 191 004e 1A63     		str	r2, [r3, #48]
 604:..\FreeRTOS\Source/tasks.c **** 
 605:..\FreeRTOS\Source/tasks.c ****             #if ( tskSTATIC_AND_DYNAMIC_ALLOCATION_POSSIBLE != 0 ) /*lint !e731 !e9029 Macro has be
 606:..\FreeRTOS\Source/tasks.c ****                 {
 607:..\FreeRTOS\Source/tasks.c ****                     /* Tasks can be created statically or dynamically, so note this
 608:..\FreeRTOS\Source/tasks.c ****                      * task was created statically in case the task is later deleted. */
 609:..\FreeRTOS\Source/tasks.c ****                     pxNewTCB->ucStaticallyAllocated = tskSTATICALLY_ALLOCATED_STACK_AND_TCB;
 192              		.loc 1 609 0
 193 0050 FB69     		ldr	r3, [r7, #28]
 194 0052 6722     		movs	r2, #103
 195 0054 0221     		movs	r1, #2
 196 0056 9954     		strb	r1, [r3, r2]
 610:..\FreeRTOS\Source/tasks.c ****                 }
 611:..\FreeRTOS\Source/tasks.c ****             #endif /* tskSTATIC_AND_DYNAMIC_ALLOCATION_POSSIBLE */
 612:..\FreeRTOS\Source/tasks.c **** 
 613:..\FreeRTOS\Source/tasks.c ****             prvInitialiseNewTask( pxTaskCode, pcName, ulStackDepth, pvParameters, uxPriority, &xRet
 197              		.loc 1 613 0
 198 0058 3C68     		ldr	r4, [r7]
 199 005a 7A68     		ldr	r2, [r7, #4]
 200 005c B968     		ldr	r1, [r7, #8]
 201 005e F868     		ldr	r0, [r7, #12]
 202 0060 0023     		movs	r3, #0
 203 0062 0393     		str	r3, [sp, #12]
 204 0064 FB69     		ldr	r3, [r7, #28]
 205 0066 0293     		str	r3, [sp, #8]
 206 0068 1823     		movs	r3, #24
 207 006a FB18     		adds	r3, r7, r3
 208 006c 0193     		str	r3, [sp, #4]
 209 006e 3B6B     		ldr	r3, [r7, #48]
 210 0070 0093     		str	r3, [sp]
 211 0072 2300     		movs	r3, r4
 212 0074 FFF7FEFF 		bl	prvInitialiseNewTask
 614:..\FreeRTOS\Source/tasks.c ****             prvAddNewTaskToReadyList( pxNewTCB );
 213              		.loc 1 614 0
 214 0078 FB69     		ldr	r3, [r7, #28]
 215 007a 1800     		movs	r0, r3
 216 007c FFF7FEFF 		bl	prvAddNewTaskToReadyList
 217 0080 01E0     		b	.L9
ARM GAS  C:\Users\Jason\AppData\Local\Temp\cclSZdbR.s 			page 16


 218              	.L8:
 615:..\FreeRTOS\Source/tasks.c ****         }
 616:..\FreeRTOS\Source/tasks.c ****         else
 617:..\FreeRTOS\Source/tasks.c ****         {
 618:..\FreeRTOS\Source/tasks.c ****             xReturn = NULL;
 219              		.loc 1 618 0
 220 0082 0023     		movs	r3, #0
 221 0084 BB61     		str	r3, [r7, #24]
 222              	.L9:
 619:..\FreeRTOS\Source/tasks.c ****         }
 620:..\FreeRTOS\Source/tasks.c **** 
 621:..\FreeRTOS\Source/tasks.c ****         return xReturn;
 223              		.loc 1 621 0
 224 0086 BB69     		ldr	r3, [r7, #24]
 622:..\FreeRTOS\Source/tasks.c ****     }
 225              		.loc 1 622 0
 226 0088 1800     		movs	r0, r3
 227 008a BD46     		mov	sp, r7
 228 008c 09B0     		add	sp, sp, #36
 229              		@ sp needed
 230 008e 90BD     		pop	{r4, r7, pc}
 231              	.L12:
 232              		.align	2
 233              	.L11:
 234 0090 00000000 		.word	x
 235              		.cfi_endproc
 236              	.LFE0:
 237              		.size	xTaskCreateStatic, .-xTaskCreateStatic
 238              		.section	.text.xTaskCreate,"ax",%progbits
 239              		.align	2
 240              		.global	xTaskCreate
 241              		.code	16
 242              		.thumb_func
 243              		.type	xTaskCreate, %function
 244              	xTaskCreate:
 245              	.LFB1:
 623:..\FreeRTOS\Source/tasks.c **** 
 624:..\FreeRTOS\Source/tasks.c **** #endif /* SUPPORT_STATIC_ALLOCATION */
 625:..\FreeRTOS\Source/tasks.c **** /*-----------------------------------------------------------*/
 626:..\FreeRTOS\Source/tasks.c **** 
 627:..\FreeRTOS\Source/tasks.c **** #if ( ( portUSING_MPU_WRAPPERS == 1 ) && ( configSUPPORT_STATIC_ALLOCATION == 1 ) )
 628:..\FreeRTOS\Source/tasks.c **** 
 629:..\FreeRTOS\Source/tasks.c ****     BaseType_t xTaskCreateRestrictedStatic( const TaskParameters_t * const pxTaskDefinition,
 630:..\FreeRTOS\Source/tasks.c ****                                             TaskHandle_t * pxCreatedTask )
 631:..\FreeRTOS\Source/tasks.c ****     {
 632:..\FreeRTOS\Source/tasks.c ****         TCB_t * pxNewTCB;
 633:..\FreeRTOS\Source/tasks.c ****         BaseType_t xReturn = errCOULD_NOT_ALLOCATE_REQUIRED_MEMORY;
 634:..\FreeRTOS\Source/tasks.c **** 
 635:..\FreeRTOS\Source/tasks.c ****         configASSERT( pxTaskDefinition->puxStackBuffer != NULL );
 636:..\FreeRTOS\Source/tasks.c ****         configASSERT( pxTaskDefinition->pxTaskBuffer != NULL );
 637:..\FreeRTOS\Source/tasks.c **** 
 638:..\FreeRTOS\Source/tasks.c ****         if( ( pxTaskDefinition->puxStackBuffer != NULL ) && ( pxTaskDefinition->pxTaskBuffer != NUL
 639:..\FreeRTOS\Source/tasks.c ****         {
 640:..\FreeRTOS\Source/tasks.c ****             /* Allocate space for the TCB.  Where the memory comes from depends
 641:..\FreeRTOS\Source/tasks.c ****              * on the implementation of the port malloc function and whether or
 642:..\FreeRTOS\Source/tasks.c ****              * not static allocation is being used. */
 643:..\FreeRTOS\Source/tasks.c ****             pxNewTCB = ( TCB_t * ) pxTaskDefinition->pxTaskBuffer;
ARM GAS  C:\Users\Jason\AppData\Local\Temp\cclSZdbR.s 			page 17


 644:..\FreeRTOS\Source/tasks.c **** 
 645:..\FreeRTOS\Source/tasks.c ****             /* Store the stack location in the TCB. */
 646:..\FreeRTOS\Source/tasks.c ****             pxNewTCB->pxStack = pxTaskDefinition->puxStackBuffer;
 647:..\FreeRTOS\Source/tasks.c **** 
 648:..\FreeRTOS\Source/tasks.c ****             #if ( tskSTATIC_AND_DYNAMIC_ALLOCATION_POSSIBLE != 0 )
 649:..\FreeRTOS\Source/tasks.c ****                 {
 650:..\FreeRTOS\Source/tasks.c ****                     /* Tasks can be created statically or dynamically, so note this
 651:..\FreeRTOS\Source/tasks.c ****                      * task was created statically in case the task is later deleted. */
 652:..\FreeRTOS\Source/tasks.c ****                     pxNewTCB->ucStaticallyAllocated = tskSTATICALLY_ALLOCATED_STACK_AND_TCB;
 653:..\FreeRTOS\Source/tasks.c ****                 }
 654:..\FreeRTOS\Source/tasks.c ****             #endif /* tskSTATIC_AND_DYNAMIC_ALLOCATION_POSSIBLE */
 655:..\FreeRTOS\Source/tasks.c **** 
 656:..\FreeRTOS\Source/tasks.c ****             prvInitialiseNewTask( pxTaskDefinition->pvTaskCode,
 657:..\FreeRTOS\Source/tasks.c ****                                   pxTaskDefinition->pcName,
 658:..\FreeRTOS\Source/tasks.c ****                                   ( uint32_t ) pxTaskDefinition->usStackDepth,
 659:..\FreeRTOS\Source/tasks.c ****                                   pxTaskDefinition->pvParameters,
 660:..\FreeRTOS\Source/tasks.c ****                                   pxTaskDefinition->uxPriority,
 661:..\FreeRTOS\Source/tasks.c ****                                   pxCreatedTask, pxNewTCB,
 662:..\FreeRTOS\Source/tasks.c ****                                   pxTaskDefinition->xRegions );
 663:..\FreeRTOS\Source/tasks.c **** 
 664:..\FreeRTOS\Source/tasks.c ****             prvAddNewTaskToReadyList( pxNewTCB );
 665:..\FreeRTOS\Source/tasks.c ****             xReturn = pdPASS;
 666:..\FreeRTOS\Source/tasks.c ****         }
 667:..\FreeRTOS\Source/tasks.c **** 
 668:..\FreeRTOS\Source/tasks.c ****         return xReturn;
 669:..\FreeRTOS\Source/tasks.c ****     }
 670:..\FreeRTOS\Source/tasks.c **** 
 671:..\FreeRTOS\Source/tasks.c **** #endif /* ( portUSING_MPU_WRAPPERS == 1 ) && ( configSUPPORT_STATIC_ALLOCATION == 1 ) */
 672:..\FreeRTOS\Source/tasks.c **** /*-----------------------------------------------------------*/
 673:..\FreeRTOS\Source/tasks.c **** 
 674:..\FreeRTOS\Source/tasks.c **** #if ( ( portUSING_MPU_WRAPPERS == 1 ) && ( configSUPPORT_DYNAMIC_ALLOCATION == 1 ) )
 675:..\FreeRTOS\Source/tasks.c **** 
 676:..\FreeRTOS\Source/tasks.c ****     BaseType_t xTaskCreateRestricted( const TaskParameters_t * const pxTaskDefinition,
 677:..\FreeRTOS\Source/tasks.c ****                                       TaskHandle_t * pxCreatedTask )
 678:..\FreeRTOS\Source/tasks.c ****     {
 679:..\FreeRTOS\Source/tasks.c ****         TCB_t * pxNewTCB;
 680:..\FreeRTOS\Source/tasks.c ****         BaseType_t xReturn = errCOULD_NOT_ALLOCATE_REQUIRED_MEMORY;
 681:..\FreeRTOS\Source/tasks.c **** 
 682:..\FreeRTOS\Source/tasks.c ****         configASSERT( pxTaskDefinition->puxStackBuffer );
 683:..\FreeRTOS\Source/tasks.c **** 
 684:..\FreeRTOS\Source/tasks.c ****         if( pxTaskDefinition->puxStackBuffer != NULL )
 685:..\FreeRTOS\Source/tasks.c ****         {
 686:..\FreeRTOS\Source/tasks.c ****             /* Allocate space for the TCB.  Where the memory comes from depends
 687:..\FreeRTOS\Source/tasks.c ****              * on the implementation of the port malloc function and whether or
 688:..\FreeRTOS\Source/tasks.c ****              * not static allocation is being used. */
 689:..\FreeRTOS\Source/tasks.c ****             pxNewTCB = ( TCB_t * ) pvPortMalloc( sizeof( TCB_t ) );
 690:..\FreeRTOS\Source/tasks.c **** 
 691:..\FreeRTOS\Source/tasks.c ****             if( pxNewTCB != NULL )
 692:..\FreeRTOS\Source/tasks.c ****             {
 693:..\FreeRTOS\Source/tasks.c ****                 /* Store the stack location in the TCB. */
 694:..\FreeRTOS\Source/tasks.c ****                 pxNewTCB->pxStack = pxTaskDefinition->puxStackBuffer;
 695:..\FreeRTOS\Source/tasks.c **** 
 696:..\FreeRTOS\Source/tasks.c ****                 #if ( tskSTATIC_AND_DYNAMIC_ALLOCATION_POSSIBLE != 0 )
 697:..\FreeRTOS\Source/tasks.c ****                     {
 698:..\FreeRTOS\Source/tasks.c ****                         /* Tasks can be created statically or dynamically, so note
 699:..\FreeRTOS\Source/tasks.c ****                          * this task had a statically allocated stack in case it is
 700:..\FreeRTOS\Source/tasks.c ****                          * later deleted.  The TCB was allocated dynamically. */
ARM GAS  C:\Users\Jason\AppData\Local\Temp\cclSZdbR.s 			page 18


 701:..\FreeRTOS\Source/tasks.c ****                         pxNewTCB->ucStaticallyAllocated = tskSTATICALLY_ALLOCATED_STACK_ONLY;
 702:..\FreeRTOS\Source/tasks.c ****                     }
 703:..\FreeRTOS\Source/tasks.c ****                 #endif /* tskSTATIC_AND_DYNAMIC_ALLOCATION_POSSIBLE */
 704:..\FreeRTOS\Source/tasks.c **** 
 705:..\FreeRTOS\Source/tasks.c ****                 prvInitialiseNewTask( pxTaskDefinition->pvTaskCode,
 706:..\FreeRTOS\Source/tasks.c ****                                       pxTaskDefinition->pcName,
 707:..\FreeRTOS\Source/tasks.c ****                                       ( uint32_t ) pxTaskDefinition->usStackDepth,
 708:..\FreeRTOS\Source/tasks.c ****                                       pxTaskDefinition->pvParameters,
 709:..\FreeRTOS\Source/tasks.c ****                                       pxTaskDefinition->uxPriority,
 710:..\FreeRTOS\Source/tasks.c ****                                       pxCreatedTask, pxNewTCB,
 711:..\FreeRTOS\Source/tasks.c ****                                       pxTaskDefinition->xRegions );
 712:..\FreeRTOS\Source/tasks.c **** 
 713:..\FreeRTOS\Source/tasks.c ****                 prvAddNewTaskToReadyList( pxNewTCB );
 714:..\FreeRTOS\Source/tasks.c ****                 xReturn = pdPASS;
 715:..\FreeRTOS\Source/tasks.c ****             }
 716:..\FreeRTOS\Source/tasks.c ****         }
 717:..\FreeRTOS\Source/tasks.c **** 
 718:..\FreeRTOS\Source/tasks.c ****         return xReturn;
 719:..\FreeRTOS\Source/tasks.c ****     }
 720:..\FreeRTOS\Source/tasks.c **** 
 721:..\FreeRTOS\Source/tasks.c **** #endif /* portUSING_MPU_WRAPPERS */
 722:..\FreeRTOS\Source/tasks.c **** /*-----------------------------------------------------------*/
 723:..\FreeRTOS\Source/tasks.c **** 
 724:..\FreeRTOS\Source/tasks.c **** #if ( configSUPPORT_DYNAMIC_ALLOCATION == 1 )
 725:..\FreeRTOS\Source/tasks.c **** 
 726:..\FreeRTOS\Source/tasks.c ****     BaseType_t xTaskCreate( TaskFunction_t pxTaskCode,
 727:..\FreeRTOS\Source/tasks.c ****                             const char * const pcName, /*lint !e971 Unqualified char types are allo
 728:..\FreeRTOS\Source/tasks.c ****                             const configSTACK_DEPTH_TYPE usStackDepth,
 729:..\FreeRTOS\Source/tasks.c ****                             void * const pvParameters,
 730:..\FreeRTOS\Source/tasks.c ****                             UBaseType_t uxPriority,
 731:..\FreeRTOS\Source/tasks.c ****                             TaskHandle_t * const pxCreatedTask )
 732:..\FreeRTOS\Source/tasks.c ****     {
 246              		.loc 1 732 0
 247              		.cfi_startproc
 248              		@ args = 8, pretend = 0, frame = 32
 249              		@ frame_needed = 1, uses_anonymous_args = 0
 250 0000 90B5     		push	{r4, r7, lr}
 251              		.cfi_def_cfa_offset 12
 252              		.cfi_offset 4, -12
 253              		.cfi_offset 7, -8
 254              		.cfi_offset 14, -4
 255 0002 8DB0     		sub	sp, sp, #52
 256              		.cfi_def_cfa_offset 64
 257 0004 04AF     		add	r7, sp, #16
 258              		.cfi_def_cfa 7, 48
 259 0006 F860     		str	r0, [r7, #12]
 260 0008 B960     		str	r1, [r7, #8]
 261 000a 3B60     		str	r3, [r7]
 262 000c BB1D     		adds	r3, r7, #6
 263 000e 1A80     		strh	r2, [r3]
 264              	.LBB3:
 733:..\FreeRTOS\Source/tasks.c ****         TCB_t * pxNewTCB;
 734:..\FreeRTOS\Source/tasks.c ****         BaseType_t xReturn;
 735:..\FreeRTOS\Source/tasks.c **** 
 736:..\FreeRTOS\Source/tasks.c ****         /* If the stack grows down then allocate the stack then the TCB so the stack
 737:..\FreeRTOS\Source/tasks.c ****          * does not grow into the TCB.  Likewise if the stack grows up then allocate
 738:..\FreeRTOS\Source/tasks.c ****          * the TCB then the stack. */
ARM GAS  C:\Users\Jason\AppData\Local\Temp\cclSZdbR.s 			page 19


 739:..\FreeRTOS\Source/tasks.c ****         #if ( portSTACK_GROWTH > 0 )
 740:..\FreeRTOS\Source/tasks.c ****             {
 741:..\FreeRTOS\Source/tasks.c ****                 /* Allocate space for the TCB.  Where the memory comes from depends on
 742:..\FreeRTOS\Source/tasks.c ****                  * the implementation of the port malloc function and whether or not static
 743:..\FreeRTOS\Source/tasks.c ****                  * allocation is being used. */
 744:..\FreeRTOS\Source/tasks.c ****                 pxNewTCB = ( TCB_t * ) pvPortMalloc( sizeof( TCB_t ) );
 745:..\FreeRTOS\Source/tasks.c **** 
 746:..\FreeRTOS\Source/tasks.c ****                 if( pxNewTCB != NULL )
 747:..\FreeRTOS\Source/tasks.c ****                 {
 748:..\FreeRTOS\Source/tasks.c ****                     /* Allocate space for the stack used by the task being created.
 749:..\FreeRTOS\Source/tasks.c ****                      * The base of the stack memory stored in the TCB so the task can
 750:..\FreeRTOS\Source/tasks.c ****                      * be deleted later if required. */
 751:..\FreeRTOS\Source/tasks.c ****                     pxNewTCB->pxStack = ( StackType_t * ) pvPortMalloc( ( ( ( size_t ) usStackDepth
 752:..\FreeRTOS\Source/tasks.c **** 
 753:..\FreeRTOS\Source/tasks.c ****                     if( pxNewTCB->pxStack == NULL )
 754:..\FreeRTOS\Source/tasks.c ****                     {
 755:..\FreeRTOS\Source/tasks.c ****                         /* Could not allocate the stack.  Delete the allocated TCB. */
 756:..\FreeRTOS\Source/tasks.c ****                         vPortFree( pxNewTCB );
 757:..\FreeRTOS\Source/tasks.c ****                         pxNewTCB = NULL;
 758:..\FreeRTOS\Source/tasks.c ****                     }
 759:..\FreeRTOS\Source/tasks.c ****                 }
 760:..\FreeRTOS\Source/tasks.c ****             }
 761:..\FreeRTOS\Source/tasks.c ****         #else /* portSTACK_GROWTH */
 762:..\FreeRTOS\Source/tasks.c ****             {
 763:..\FreeRTOS\Source/tasks.c ****                 StackType_t * pxStack;
 764:..\FreeRTOS\Source/tasks.c **** 
 765:..\FreeRTOS\Source/tasks.c ****                 /* Allocate space for the stack used by the task being created. */
 766:..\FreeRTOS\Source/tasks.c ****                 pxStack = pvPortMalloc( ( ( ( size_t ) usStackDepth ) * sizeof( StackType_t ) ) ); 
 265              		.loc 1 766 0
 266 0010 BB1D     		adds	r3, r7, #6
 267 0012 1B88     		ldrh	r3, [r3]
 268 0014 9B00     		lsls	r3, r3, #2
 269 0016 1800     		movs	r0, r3
 270 0018 FFF7FEFF 		bl	pvPortMalloc
 271 001c 0300     		movs	r3, r0
 272 001e 7B61     		str	r3, [r7, #20]
 767:..\FreeRTOS\Source/tasks.c **** 
 768:..\FreeRTOS\Source/tasks.c ****                 if( pxStack != NULL )
 273              		.loc 1 768 0
 274 0020 7B69     		ldr	r3, [r7, #20]
 275 0022 002B     		cmp	r3, #0
 276 0024 10D0     		beq	.L14
 769:..\FreeRTOS\Source/tasks.c ****                 {
 770:..\FreeRTOS\Source/tasks.c ****                     /* Allocate space for the TCB. */
 771:..\FreeRTOS\Source/tasks.c ****                     pxNewTCB = ( TCB_t * ) pvPortMalloc( sizeof( TCB_t ) ); /*lint !e9087 !e9079 Al
 277              		.loc 1 771 0
 278 0026 6820     		movs	r0, #104
 279 0028 FFF7FEFF 		bl	pvPortMalloc
 280 002c 0300     		movs	r3, r0
 281 002e FB61     		str	r3, [r7, #28]
 772:..\FreeRTOS\Source/tasks.c **** 
 773:..\FreeRTOS\Source/tasks.c ****                     if( pxNewTCB != NULL )
 282              		.loc 1 773 0
 283 0030 FB69     		ldr	r3, [r7, #28]
 284 0032 002B     		cmp	r3, #0
 285 0034 03D0     		beq	.L15
 774:..\FreeRTOS\Source/tasks.c ****                     {
ARM GAS  C:\Users\Jason\AppData\Local\Temp\cclSZdbR.s 			page 20


 775:..\FreeRTOS\Source/tasks.c ****                         /* Store the stack location in the TCB. */
 776:..\FreeRTOS\Source/tasks.c ****                         pxNewTCB->pxStack = pxStack;
 286              		.loc 1 776 0
 287 0036 FB69     		ldr	r3, [r7, #28]
 288 0038 7A69     		ldr	r2, [r7, #20]
 289 003a 1A63     		str	r2, [r3, #48]
 290 003c 06E0     		b	.L17
 291              	.L15:
 777:..\FreeRTOS\Source/tasks.c ****                     }
 778:..\FreeRTOS\Source/tasks.c ****                     else
 779:..\FreeRTOS\Source/tasks.c ****                     {
 780:..\FreeRTOS\Source/tasks.c ****                         /* The stack cannot be used as the TCB was not created.  Free
 781:..\FreeRTOS\Source/tasks.c ****                          * it again. */
 782:..\FreeRTOS\Source/tasks.c ****                         vPortFree( pxStack );
 292              		.loc 1 782 0
 293 003e 7B69     		ldr	r3, [r7, #20]
 294 0040 1800     		movs	r0, r3
 295 0042 FFF7FEFF 		bl	vPortFree
 296 0046 01E0     		b	.L17
 297              	.L14:
 783:..\FreeRTOS\Source/tasks.c ****                     }
 784:..\FreeRTOS\Source/tasks.c ****                 }
 785:..\FreeRTOS\Source/tasks.c ****                 else
 786:..\FreeRTOS\Source/tasks.c ****                 {
 787:..\FreeRTOS\Source/tasks.c ****                     pxNewTCB = NULL;
 298              		.loc 1 787 0
 299 0048 0023     		movs	r3, #0
 300 004a FB61     		str	r3, [r7, #28]
 301              	.L17:
 302              	.LBE3:
 788:..\FreeRTOS\Source/tasks.c ****                 }
 789:..\FreeRTOS\Source/tasks.c ****             }
 790:..\FreeRTOS\Source/tasks.c ****         #endif /* portSTACK_GROWTH */
 791:..\FreeRTOS\Source/tasks.c **** 
 792:..\FreeRTOS\Source/tasks.c ****         if( pxNewTCB != NULL )
 303              		.loc 1 792 0
 304 004c FB69     		ldr	r3, [r7, #28]
 305 004e 002B     		cmp	r3, #0
 306 0050 1AD0     		beq	.L18
 793:..\FreeRTOS\Source/tasks.c ****         {
 794:..\FreeRTOS\Source/tasks.c ****             #if ( tskSTATIC_AND_DYNAMIC_ALLOCATION_POSSIBLE != 0 ) /*lint !e9029 !e731 Macro has be
 795:..\FreeRTOS\Source/tasks.c ****                 {
 796:..\FreeRTOS\Source/tasks.c ****                     /* Tasks can be created statically or dynamically, so note this
 797:..\FreeRTOS\Source/tasks.c ****                      * task was created dynamically in case it is later deleted. */
 798:..\FreeRTOS\Source/tasks.c ****                     pxNewTCB->ucStaticallyAllocated = tskDYNAMICALLY_ALLOCATED_STACK_AND_TCB;
 307              		.loc 1 798 0
 308 0052 FB69     		ldr	r3, [r7, #28]
 309 0054 6722     		movs	r2, #103
 310 0056 0021     		movs	r1, #0
 311 0058 9954     		strb	r1, [r3, r2]
 799:..\FreeRTOS\Source/tasks.c ****                 }
 800:..\FreeRTOS\Source/tasks.c ****             #endif /* tskSTATIC_AND_DYNAMIC_ALLOCATION_POSSIBLE */
 801:..\FreeRTOS\Source/tasks.c **** 
 802:..\FreeRTOS\Source/tasks.c ****             prvInitialiseNewTask( pxTaskCode, pcName, ( uint32_t ) usStackDepth, pvParameters, uxPr
 312              		.loc 1 802 0
 313 005a BB1D     		adds	r3, r7, #6
 314 005c 1A88     		ldrh	r2, [r3]
ARM GAS  C:\Users\Jason\AppData\Local\Temp\cclSZdbR.s 			page 21


 315 005e 3C68     		ldr	r4, [r7]
 316 0060 B968     		ldr	r1, [r7, #8]
 317 0062 F868     		ldr	r0, [r7, #12]
 318 0064 0023     		movs	r3, #0
 319 0066 0393     		str	r3, [sp, #12]
 320 0068 FB69     		ldr	r3, [r7, #28]
 321 006a 0293     		str	r3, [sp, #8]
 322 006c 7B6B     		ldr	r3, [r7, #52]
 323 006e 0193     		str	r3, [sp, #4]
 324 0070 3B6B     		ldr	r3, [r7, #48]
 325 0072 0093     		str	r3, [sp]
 326 0074 2300     		movs	r3, r4
 327 0076 FFF7FEFF 		bl	prvInitialiseNewTask
 803:..\FreeRTOS\Source/tasks.c ****             prvAddNewTaskToReadyList( pxNewTCB );
 328              		.loc 1 803 0
 329 007a FB69     		ldr	r3, [r7, #28]
 330 007c 1800     		movs	r0, r3
 331 007e FFF7FEFF 		bl	prvAddNewTaskToReadyList
 804:..\FreeRTOS\Source/tasks.c ****             xReturn = pdPASS;
 332              		.loc 1 804 0
 333 0082 0123     		movs	r3, #1
 334 0084 BB61     		str	r3, [r7, #24]
 335 0086 02E0     		b	.L19
 336              	.L18:
 805:..\FreeRTOS\Source/tasks.c ****         }
 806:..\FreeRTOS\Source/tasks.c ****         else
 807:..\FreeRTOS\Source/tasks.c ****         {
 808:..\FreeRTOS\Source/tasks.c ****             xReturn = errCOULD_NOT_ALLOCATE_REQUIRED_MEMORY;
 337              		.loc 1 808 0
 338 0088 0123     		movs	r3, #1
 339 008a 5B42     		rsbs	r3, r3, #0
 340 008c BB61     		str	r3, [r7, #24]
 341              	.L19:
 809:..\FreeRTOS\Source/tasks.c ****         }
 810:..\FreeRTOS\Source/tasks.c **** 
 811:..\FreeRTOS\Source/tasks.c ****         return xReturn;
 342              		.loc 1 811 0
 343 008e BB69     		ldr	r3, [r7, #24]
 812:..\FreeRTOS\Source/tasks.c ****     }
 344              		.loc 1 812 0
 345 0090 1800     		movs	r0, r3
 346 0092 BD46     		mov	sp, r7
 347 0094 09B0     		add	sp, sp, #36
 348              		@ sp needed
 349 0096 90BD     		pop	{r4, r7, pc}
 350              		.cfi_endproc
 351              	.LFE1:
 352              		.size	xTaskCreate, .-xTaskCreate
 353              		.section	.text.prvInitialiseNewTask,"ax",%progbits
 354              		.align	2
 355              		.code	16
 356              		.thumb_func
 357              		.type	prvInitialiseNewTask, %function
 358              	prvInitialiseNewTask:
 359              	.LFB2:
 813:..\FreeRTOS\Source/tasks.c **** 
 814:..\FreeRTOS\Source/tasks.c **** #endif /* configSUPPORT_DYNAMIC_ALLOCATION */
ARM GAS  C:\Users\Jason\AppData\Local\Temp\cclSZdbR.s 			page 22


 815:..\FreeRTOS\Source/tasks.c **** /*-----------------------------------------------------------*/
 816:..\FreeRTOS\Source/tasks.c **** 
 817:..\FreeRTOS\Source/tasks.c **** static void prvInitialiseNewTask( TaskFunction_t pxTaskCode,
 818:..\FreeRTOS\Source/tasks.c ****                                   const char * const pcName, /*lint !e971 Unqualified char types ar
 819:..\FreeRTOS\Source/tasks.c ****                                   const uint32_t ulStackDepth,
 820:..\FreeRTOS\Source/tasks.c ****                                   void * const pvParameters,
 821:..\FreeRTOS\Source/tasks.c ****                                   UBaseType_t uxPriority,
 822:..\FreeRTOS\Source/tasks.c ****                                   TaskHandle_t * const pxCreatedTask,
 823:..\FreeRTOS\Source/tasks.c ****                                   TCB_t * pxNewTCB,
 824:..\FreeRTOS\Source/tasks.c ****                                   const MemoryRegion_t * const xRegions )
 825:..\FreeRTOS\Source/tasks.c **** {
 360              		.loc 1 825 0
 361              		.cfi_startproc
 362              		@ args = 16, pretend = 0, frame = 24
 363              		@ frame_needed = 1, uses_anonymous_args = 0
 364 0000 80B5     		push	{r7, lr}
 365              		.cfi_def_cfa_offset 8
 366              		.cfi_offset 7, -8
 367              		.cfi_offset 14, -4
 368 0002 86B0     		sub	sp, sp, #24
 369              		.cfi_def_cfa_offset 32
 370 0004 00AF     		add	r7, sp, #0
 371              		.cfi_def_cfa_register 7
 372 0006 F860     		str	r0, [r7, #12]
 373 0008 B960     		str	r1, [r7, #8]
 374 000a 7A60     		str	r2, [r7, #4]
 375 000c 3B60     		str	r3, [r7]
 826:..\FreeRTOS\Source/tasks.c ****     StackType_t * pxTopOfStack;
 827:..\FreeRTOS\Source/tasks.c ****     UBaseType_t x;
 828:..\FreeRTOS\Source/tasks.c **** 
 829:..\FreeRTOS\Source/tasks.c ****     #if ( portUSING_MPU_WRAPPERS == 1 )
 830:..\FreeRTOS\Source/tasks.c ****         /* Should the task be created in privileged mode? */
 831:..\FreeRTOS\Source/tasks.c ****         BaseType_t xRunPrivileged;
 832:..\FreeRTOS\Source/tasks.c **** 
 833:..\FreeRTOS\Source/tasks.c ****         if( ( uxPriority & portPRIVILEGE_BIT ) != 0U )
 834:..\FreeRTOS\Source/tasks.c ****         {
 835:..\FreeRTOS\Source/tasks.c ****             xRunPrivileged = pdTRUE;
 836:..\FreeRTOS\Source/tasks.c ****         }
 837:..\FreeRTOS\Source/tasks.c ****         else
 838:..\FreeRTOS\Source/tasks.c ****         {
 839:..\FreeRTOS\Source/tasks.c ****             xRunPrivileged = pdFALSE;
 840:..\FreeRTOS\Source/tasks.c ****         }
 841:..\FreeRTOS\Source/tasks.c ****         uxPriority &= ~portPRIVILEGE_BIT;
 842:..\FreeRTOS\Source/tasks.c ****     #endif /* portUSING_MPU_WRAPPERS == 1 */
 843:..\FreeRTOS\Source/tasks.c **** 
 844:..\FreeRTOS\Source/tasks.c ****     /* Avoid dependency on memset() if it is not required. */
 845:..\FreeRTOS\Source/tasks.c ****     #if ( tskSET_NEW_STACKS_TO_KNOWN_VALUE == 1 )
 846:..\FreeRTOS\Source/tasks.c ****         {
 847:..\FreeRTOS\Source/tasks.c ****             /* Fill the stack with a known value to assist debugging. */
 848:..\FreeRTOS\Source/tasks.c ****             ( void ) memset( pxNewTCB->pxStack, ( int ) tskSTACK_FILL_BYTE, ( size_t ) ulStackDepth
 849:..\FreeRTOS\Source/tasks.c ****         }
 850:..\FreeRTOS\Source/tasks.c ****     #endif /* tskSET_NEW_STACKS_TO_KNOWN_VALUE */
 851:..\FreeRTOS\Source/tasks.c **** 
 852:..\FreeRTOS\Source/tasks.c ****     /* Calculate the top of stack address.  This depends on whether the stack
 853:..\FreeRTOS\Source/tasks.c ****      * grows from high memory to low (as per the 80x86) or vice versa.
 854:..\FreeRTOS\Source/tasks.c ****      * portSTACK_GROWTH is used to make the result positive or negative as required
 855:..\FreeRTOS\Source/tasks.c ****      * by the port. */
ARM GAS  C:\Users\Jason\AppData\Local\Temp\cclSZdbR.s 			page 23


 856:..\FreeRTOS\Source/tasks.c ****     #if ( portSTACK_GROWTH < 0 )
 857:..\FreeRTOS\Source/tasks.c ****         {
 858:..\FreeRTOS\Source/tasks.c ****             pxTopOfStack = &( pxNewTCB->pxStack[ ulStackDepth - ( uint32_t ) 1 ] );
 376              		.loc 1 858 0
 377 000e BB6A     		ldr	r3, [r7, #40]
 378 0010 1A6B     		ldr	r2, [r3, #48]
 379 0012 7B68     		ldr	r3, [r7, #4]
 380 0014 3D49     		ldr	r1, .L34
 381 0016 8C46     		mov	ip, r1
 382 0018 6344     		add	r3, r3, ip
 383 001a 9B00     		lsls	r3, r3, #2
 384 001c D318     		adds	r3, r2, r3
 385 001e 3B61     		str	r3, [r7, #16]
 859:..\FreeRTOS\Source/tasks.c ****             pxTopOfStack = ( StackType_t * ) ( ( ( portPOINTER_SIZE_TYPE ) pxTopOfStack ) & ( ~( ( 
 386              		.loc 1 859 0
 387 0020 3B69     		ldr	r3, [r7, #16]
 388 0022 0722     		movs	r2, #7
 389 0024 9343     		bics	r3, r2
 390 0026 3B61     		str	r3, [r7, #16]
 860:..\FreeRTOS\Source/tasks.c **** 
 861:..\FreeRTOS\Source/tasks.c ****             /* Check the alignment of the calculated top of stack is correct. */
 862:..\FreeRTOS\Source/tasks.c ****             configASSERT( ( ( ( portPOINTER_SIZE_TYPE ) pxTopOfStack & ( portPOINTER_SIZE_TYPE ) po
 391              		.loc 1 862 0
 392 0028 7B69     		ldr	r3, [r7, #20]
 393 002a 002B     		cmp	r3, #0
 394 002c 01D1     		bne	.L22
 395              		.loc 1 862 0 is_stmt 0 discriminator 1
 396              		.syntax divided
 397              	@ 862 "..\FreeRTOS\Source\tasks.c" 1
 398 002e 72B6     		 cpsid i 
 399              	@ 0 "" 2
 400              		.thumb
 401              		.syntax unified
 402              	.L23:
 403 0030 FEE7     		b	.L23
 404              	.L22:
 863:..\FreeRTOS\Source/tasks.c **** 
 864:..\FreeRTOS\Source/tasks.c ****             #if ( configRECORD_STACK_HIGH_ADDRESS == 1 )
 865:..\FreeRTOS\Source/tasks.c ****                 {
 866:..\FreeRTOS\Source/tasks.c ****                     /* Also record the stack's high address, which may assist
 867:..\FreeRTOS\Source/tasks.c ****                      * debugging. */
 868:..\FreeRTOS\Source/tasks.c ****                     pxNewTCB->pxEndOfStack = pxTopOfStack;
 869:..\FreeRTOS\Source/tasks.c ****                 }
 870:..\FreeRTOS\Source/tasks.c ****             #endif /* configRECORD_STACK_HIGH_ADDRESS */
 871:..\FreeRTOS\Source/tasks.c ****         }
 872:..\FreeRTOS\Source/tasks.c ****     #else /* portSTACK_GROWTH */
 873:..\FreeRTOS\Source/tasks.c ****         {
 874:..\FreeRTOS\Source/tasks.c ****             pxTopOfStack = pxNewTCB->pxStack;
 875:..\FreeRTOS\Source/tasks.c **** 
 876:..\FreeRTOS\Source/tasks.c ****             /* Check the alignment of the stack buffer is correct. */
 877:..\FreeRTOS\Source/tasks.c ****             configASSERT( ( ( ( portPOINTER_SIZE_TYPE ) pxNewTCB->pxStack & ( portPOINTER_SIZE_TYPE
 878:..\FreeRTOS\Source/tasks.c **** 
 879:..\FreeRTOS\Source/tasks.c ****             /* The other extreme of the stack space is required if stack checking is
 880:..\FreeRTOS\Source/tasks.c ****              * performed. */
 881:..\FreeRTOS\Source/tasks.c ****             pxNewTCB->pxEndOfStack = pxNewTCB->pxStack + ( ulStackDepth - ( uint32_t ) 1 );
 882:..\FreeRTOS\Source/tasks.c ****         }
 883:..\FreeRTOS\Source/tasks.c ****     #endif /* portSTACK_GROWTH */
ARM GAS  C:\Users\Jason\AppData\Local\Temp\cclSZdbR.s 			page 24


 884:..\FreeRTOS\Source/tasks.c **** 
 885:..\FreeRTOS\Source/tasks.c ****     /* Store the task name in the TCB. */
 886:..\FreeRTOS\Source/tasks.c ****     if( pcName != NULL )
 405              		.loc 1 886 0 is_stmt 1 discriminator 2
 406 0032 BB68     		ldr	r3, [r7, #8]
 407 0034 002B     		cmp	r3, #0
 408 0036 20D0     		beq	.L24
 887:..\FreeRTOS\Source/tasks.c ****     {
 888:..\FreeRTOS\Source/tasks.c ****         for( x = ( UBaseType_t ) 0; x < ( UBaseType_t ) configMAX_TASK_NAME_LEN; x++ )
 409              		.loc 1 888 0
 410 0038 0023     		movs	r3, #0
 411 003a 7B61     		str	r3, [r7, #20]
 412 003c 13E0     		b	.L25
 413              	.L28:
 889:..\FreeRTOS\Source/tasks.c ****         {
 890:..\FreeRTOS\Source/tasks.c ****             pxNewTCB->pcTaskName[ x ] = pcName[ x ];
 414              		.loc 1 890 0
 415 003e BA68     		ldr	r2, [r7, #8]
 416 0040 7B69     		ldr	r3, [r7, #20]
 417 0042 D318     		adds	r3, r2, r3
 418 0044 1878     		ldrb	r0, [r3]
 419 0046 BA6A     		ldr	r2, [r7, #40]
 420 0048 3421     		movs	r1, #52
 421 004a 7B69     		ldr	r3, [r7, #20]
 422 004c D318     		adds	r3, r2, r3
 423 004e 5B18     		adds	r3, r3, r1
 424 0050 021C     		adds	r2, r0, #0
 425 0052 1A70     		strb	r2, [r3]
 891:..\FreeRTOS\Source/tasks.c **** 
 892:..\FreeRTOS\Source/tasks.c ****             /* Don't copy all configMAX_TASK_NAME_LEN if the string is shorter than
 893:..\FreeRTOS\Source/tasks.c ****              * configMAX_TASK_NAME_LEN characters just in case the memory after the
 894:..\FreeRTOS\Source/tasks.c ****              * string is not accessible (extremely unlikely). */
 895:..\FreeRTOS\Source/tasks.c ****             if( pcName[ x ] == ( char ) 0x00 )
 426              		.loc 1 895 0
 427 0054 BA68     		ldr	r2, [r7, #8]
 428 0056 7B69     		ldr	r3, [r7, #20]
 429 0058 D318     		adds	r3, r2, r3
 430 005a 1B78     		ldrb	r3, [r3]
 431 005c 002B     		cmp	r3, #0
 432 005e 06D0     		beq	.L32
 888:..\FreeRTOS\Source/tasks.c ****         {
 433              		.loc 1 888 0 discriminator 2
 434 0060 7B69     		ldr	r3, [r7, #20]
 435 0062 0133     		adds	r3, r3, #1
 436 0064 7B61     		str	r3, [r7, #20]
 437              	.L25:
 888:..\FreeRTOS\Source/tasks.c ****         {
 438              		.loc 1 888 0 is_stmt 0 discriminator 1
 439 0066 7B69     		ldr	r3, [r7, #20]
 440 0068 0F2B     		cmp	r3, #15
 441 006a E8D9     		bls	.L28
 442 006c 00E0     		b	.L27
 443              	.L32:
 896:..\FreeRTOS\Source/tasks.c ****             {
 897:..\FreeRTOS\Source/tasks.c ****                 break;
 444              		.loc 1 897 0 is_stmt 1
 445 006e C046     		nop
ARM GAS  C:\Users\Jason\AppData\Local\Temp\cclSZdbR.s 			page 25


 446              	.L27:
 898:..\FreeRTOS\Source/tasks.c ****             }
 899:..\FreeRTOS\Source/tasks.c ****             else
 900:..\FreeRTOS\Source/tasks.c ****             {
 901:..\FreeRTOS\Source/tasks.c ****                 mtCOVERAGE_TEST_MARKER();
 902:..\FreeRTOS\Source/tasks.c ****             }
 903:..\FreeRTOS\Source/tasks.c ****         }
 904:..\FreeRTOS\Source/tasks.c **** 
 905:..\FreeRTOS\Source/tasks.c ****         /* Ensure the name string is terminated in the case that the string length
 906:..\FreeRTOS\Source/tasks.c ****          * was greater or equal to configMAX_TASK_NAME_LEN. */
 907:..\FreeRTOS\Source/tasks.c ****         pxNewTCB->pcTaskName[ configMAX_TASK_NAME_LEN - 1 ] = '\0';
 447              		.loc 1 907 0
 448 0070 BB6A     		ldr	r3, [r7, #40]
 449 0072 4322     		movs	r2, #67
 450 0074 0021     		movs	r1, #0
 451 0076 9954     		strb	r1, [r3, r2]
 452 0078 03E0     		b	.L29
 453              	.L24:
 908:..\FreeRTOS\Source/tasks.c ****     }
 909:..\FreeRTOS\Source/tasks.c ****     else
 910:..\FreeRTOS\Source/tasks.c ****     {
 911:..\FreeRTOS\Source/tasks.c ****         /* The task has not been given a name, so just ensure there is a NULL
 912:..\FreeRTOS\Source/tasks.c ****          * terminator when it is read out. */
 913:..\FreeRTOS\Source/tasks.c ****         pxNewTCB->pcTaskName[ 0 ] = 0x00;
 454              		.loc 1 913 0
 455 007a BB6A     		ldr	r3, [r7, #40]
 456 007c 3422     		movs	r2, #52
 457 007e 0021     		movs	r1, #0
 458 0080 9954     		strb	r1, [r3, r2]
 459              	.L29:
 914:..\FreeRTOS\Source/tasks.c ****     }
 915:..\FreeRTOS\Source/tasks.c **** 
 916:..\FreeRTOS\Source/tasks.c ****     /* This is used as an array index so must ensure it's not too large.  First
 917:..\FreeRTOS\Source/tasks.c ****      * remove the privilege bit if one is present. */
 918:..\FreeRTOS\Source/tasks.c ****     if( uxPriority >= ( UBaseType_t ) configMAX_PRIORITIES )
 460              		.loc 1 918 0
 461 0082 3B6A     		ldr	r3, [r7, #32]
 462 0084 042B     		cmp	r3, #4
 463 0086 01D9     		bls	.L30
 919:..\FreeRTOS\Source/tasks.c ****     {
 920:..\FreeRTOS\Source/tasks.c ****         uxPriority = ( UBaseType_t ) configMAX_PRIORITIES - ( UBaseType_t ) 1U;
 464              		.loc 1 920 0
 465 0088 0423     		movs	r3, #4
 466 008a 3B62     		str	r3, [r7, #32]
 467              	.L30:
 921:..\FreeRTOS\Source/tasks.c ****     }
 922:..\FreeRTOS\Source/tasks.c ****     else
 923:..\FreeRTOS\Source/tasks.c ****     {
 924:..\FreeRTOS\Source/tasks.c ****         mtCOVERAGE_TEST_MARKER();
 925:..\FreeRTOS\Source/tasks.c ****     }
 926:..\FreeRTOS\Source/tasks.c **** 
 927:..\FreeRTOS\Source/tasks.c ****     pxNewTCB->uxPriority = uxPriority;
 468              		.loc 1 927 0
 469 008c BB6A     		ldr	r3, [r7, #40]
 470 008e 3A6A     		ldr	r2, [r7, #32]
 471 0090 DA62     		str	r2, [r3, #44]
 928:..\FreeRTOS\Source/tasks.c ****     #if ( configUSE_MUTEXES == 1 )
ARM GAS  C:\Users\Jason\AppData\Local\Temp\cclSZdbR.s 			page 26


 929:..\FreeRTOS\Source/tasks.c ****         {
 930:..\FreeRTOS\Source/tasks.c ****             pxNewTCB->uxBasePriority = uxPriority;
 931:..\FreeRTOS\Source/tasks.c ****             pxNewTCB->uxMutexesHeld = 0;
 932:..\FreeRTOS\Source/tasks.c ****         }
 933:..\FreeRTOS\Source/tasks.c ****     #endif /* configUSE_MUTEXES */
 934:..\FreeRTOS\Source/tasks.c **** 
 935:..\FreeRTOS\Source/tasks.c ****     vListInitialiseItem( &( pxNewTCB->xStateListItem ) );
 472              		.loc 1 935 0
 473 0092 BB6A     		ldr	r3, [r7, #40]
 474 0094 0433     		adds	r3, r3, #4
 475 0096 1800     		movs	r0, r3
 476 0098 FFF7FEFF 		bl	vListInitialiseItem
 936:..\FreeRTOS\Source/tasks.c ****     vListInitialiseItem( &( pxNewTCB->xEventListItem ) );
 477              		.loc 1 936 0
 478 009c BB6A     		ldr	r3, [r7, #40]
 479 009e 1833     		adds	r3, r3, #24
 480 00a0 1800     		movs	r0, r3
 481 00a2 FFF7FEFF 		bl	vListInitialiseItem
 937:..\FreeRTOS\Source/tasks.c **** 
 938:..\FreeRTOS\Source/tasks.c ****     /* Set the pxNewTCB as a link back from the ListItem_t.  This is so we can get
 939:..\FreeRTOS\Source/tasks.c ****      * back to  the containing TCB from a generic item in a list. */
 940:..\FreeRTOS\Source/tasks.c ****     listSET_LIST_ITEM_OWNER( &( pxNewTCB->xStateListItem ), pxNewTCB );
 482              		.loc 1 940 0
 483 00a6 BB6A     		ldr	r3, [r7, #40]
 484 00a8 BA6A     		ldr	r2, [r7, #40]
 485 00aa 1A61     		str	r2, [r3, #16]
 941:..\FreeRTOS\Source/tasks.c **** 
 942:..\FreeRTOS\Source/tasks.c ****     /* Event lists are always in priority order. */
 943:..\FreeRTOS\Source/tasks.c ****     listSET_LIST_ITEM_VALUE( &( pxNewTCB->xEventListItem ), ( TickType_t ) configMAX_PRIORITIES - (
 486              		.loc 1 943 0
 487 00ac 3B6A     		ldr	r3, [r7, #32]
 488 00ae 0522     		movs	r2, #5
 489 00b0 D21A     		subs	r2, r2, r3
 490 00b2 BB6A     		ldr	r3, [r7, #40]
 491 00b4 9A61     		str	r2, [r3, #24]
 944:..\FreeRTOS\Source/tasks.c ****     listSET_LIST_ITEM_OWNER( &( pxNewTCB->xEventListItem ), pxNewTCB );
 492              		.loc 1 944 0
 493 00b6 BB6A     		ldr	r3, [r7, #40]
 494 00b8 BA6A     		ldr	r2, [r7, #40]
 495 00ba 5A62     		str	r2, [r3, #36]
 945:..\FreeRTOS\Source/tasks.c **** 
 946:..\FreeRTOS\Source/tasks.c ****     #if ( portCRITICAL_NESTING_IN_TCB == 1 )
 947:..\FreeRTOS\Source/tasks.c ****         {
 948:..\FreeRTOS\Source/tasks.c ****             pxNewTCB->uxCriticalNesting = ( UBaseType_t ) 0U;
 949:..\FreeRTOS\Source/tasks.c ****         }
 950:..\FreeRTOS\Source/tasks.c ****     #endif /* portCRITICAL_NESTING_IN_TCB */
 951:..\FreeRTOS\Source/tasks.c **** 
 952:..\FreeRTOS\Source/tasks.c ****     #if ( configUSE_APPLICATION_TASK_TAG == 1 )
 953:..\FreeRTOS\Source/tasks.c ****         {
 954:..\FreeRTOS\Source/tasks.c ****             pxNewTCB->pxTaskTag = NULL;
 955:..\FreeRTOS\Source/tasks.c ****         }
 956:..\FreeRTOS\Source/tasks.c ****     #endif /* configUSE_APPLICATION_TASK_TAG */
 957:..\FreeRTOS\Source/tasks.c **** 
 958:..\FreeRTOS\Source/tasks.c ****     #if ( configGENERATE_RUN_TIME_STATS == 1 )
 959:..\FreeRTOS\Source/tasks.c ****         {
 960:..\FreeRTOS\Source/tasks.c ****             pxNewTCB->ulRunTimeCounter = 0UL;
 961:..\FreeRTOS\Source/tasks.c ****         }
ARM GAS  C:\Users\Jason\AppData\Local\Temp\cclSZdbR.s 			page 27


 962:..\FreeRTOS\Source/tasks.c ****     #endif /* configGENERATE_RUN_TIME_STATS */
 963:..\FreeRTOS\Source/tasks.c **** 
 964:..\FreeRTOS\Source/tasks.c ****     #if ( portUSING_MPU_WRAPPERS == 1 )
 965:..\FreeRTOS\Source/tasks.c ****         {
 966:..\FreeRTOS\Source/tasks.c ****             vPortStoreTaskMPUSettings( &( pxNewTCB->xMPUSettings ), xRegions, pxNewTCB->pxStack, ul
 967:..\FreeRTOS\Source/tasks.c ****         }
 968:..\FreeRTOS\Source/tasks.c ****     #else
 969:..\FreeRTOS\Source/tasks.c ****         {
 970:..\FreeRTOS\Source/tasks.c ****             /* Avoid compiler warning about unreferenced parameter. */
 971:..\FreeRTOS\Source/tasks.c ****             ( void ) xRegions;
 972:..\FreeRTOS\Source/tasks.c ****         }
 973:..\FreeRTOS\Source/tasks.c ****     #endif
 974:..\FreeRTOS\Source/tasks.c **** 
 975:..\FreeRTOS\Source/tasks.c ****     #if ( configNUM_THREAD_LOCAL_STORAGE_POINTERS != 0 )
 976:..\FreeRTOS\Source/tasks.c ****         {
 977:..\FreeRTOS\Source/tasks.c ****             memset( ( void * ) &( pxNewTCB->pvThreadLocalStoragePointers[ 0 ] ), 0x00, sizeof( pxNe
 496              		.loc 1 977 0
 497 00bc BB6A     		ldr	r3, [r7, #40]
 498 00be 4433     		adds	r3, r3, #68
 499 00c0 1422     		movs	r2, #20
 500 00c2 0021     		movs	r1, #0
 501 00c4 1800     		movs	r0, r3
 502 00c6 FFF7FEFF 		bl	memset
 978:..\FreeRTOS\Source/tasks.c ****         }
 979:..\FreeRTOS\Source/tasks.c ****     #endif
 980:..\FreeRTOS\Source/tasks.c **** 
 981:..\FreeRTOS\Source/tasks.c ****     #if ( configUSE_TASK_NOTIFICATIONS == 1 )
 982:..\FreeRTOS\Source/tasks.c ****         {
 983:..\FreeRTOS\Source/tasks.c ****             memset( ( void * ) &( pxNewTCB->ulNotifiedValue[ 0 ] ), 0x00, sizeof( pxNewTCB->ulNotif
 503              		.loc 1 983 0
 504 00ca BB6A     		ldr	r3, [r7, #40]
 505 00cc 5833     		adds	r3, r3, #88
 506 00ce 0C22     		movs	r2, #12
 507 00d0 0021     		movs	r1, #0
 508 00d2 1800     		movs	r0, r3
 509 00d4 FFF7FEFF 		bl	memset
 984:..\FreeRTOS\Source/tasks.c ****             memset( ( void * ) &( pxNewTCB->ucNotifyState[ 0 ] ), 0x00, sizeof( pxNewTCB->ucNotifyS
 510              		.loc 1 984 0
 511 00d8 BB6A     		ldr	r3, [r7, #40]
 512 00da 6433     		adds	r3, r3, #100
 513 00dc 0322     		movs	r2, #3
 514 00de 0021     		movs	r1, #0
 515 00e0 1800     		movs	r0, r3
 516 00e2 FFF7FEFF 		bl	memset
 985:..\FreeRTOS\Source/tasks.c ****         }
 986:..\FreeRTOS\Source/tasks.c ****     #endif
 987:..\FreeRTOS\Source/tasks.c **** 
 988:..\FreeRTOS\Source/tasks.c ****     #if ( configUSE_NEWLIB_REENTRANT == 1 )
 989:..\FreeRTOS\Source/tasks.c ****         {
 990:..\FreeRTOS\Source/tasks.c ****             /* Initialise this task's Newlib reent structure.
 991:..\FreeRTOS\Source/tasks.c ****              * See the third party link http://www.nadler.com/embedded/newlibAndFreeRTOS.html
 992:..\FreeRTOS\Source/tasks.c ****              * for additional information. */
 993:..\FreeRTOS\Source/tasks.c ****             _REENT_INIT_PTR( ( &( pxNewTCB->xNewLib_reent ) ) );
 994:..\FreeRTOS\Source/tasks.c ****         }
 995:..\FreeRTOS\Source/tasks.c ****     #endif
 996:..\FreeRTOS\Source/tasks.c **** 
 997:..\FreeRTOS\Source/tasks.c ****     #if ( INCLUDE_xTaskAbortDelay == 1 )
ARM GAS  C:\Users\Jason\AppData\Local\Temp\cclSZdbR.s 			page 28


 998:..\FreeRTOS\Source/tasks.c ****         {
 999:..\FreeRTOS\Source/tasks.c ****             pxNewTCB->ucDelayAborted = pdFALSE;
1000:..\FreeRTOS\Source/tasks.c ****         }
1001:..\FreeRTOS\Source/tasks.c ****     #endif
1002:..\FreeRTOS\Source/tasks.c **** 
1003:..\FreeRTOS\Source/tasks.c ****     /* Initialize the TCB stack to look as if the task was already running,
1004:..\FreeRTOS\Source/tasks.c ****      * but had been interrupted by the scheduler.  The return address is set
1005:..\FreeRTOS\Source/tasks.c ****      * to the start of the task function. Once the stack has been initialised
1006:..\FreeRTOS\Source/tasks.c ****      * the top of stack variable is updated. */
1007:..\FreeRTOS\Source/tasks.c ****     #if ( portUSING_MPU_WRAPPERS == 1 )
1008:..\FreeRTOS\Source/tasks.c ****         {
1009:..\FreeRTOS\Source/tasks.c ****             /* If the port has capability to detect stack overflow,
1010:..\FreeRTOS\Source/tasks.c ****              * pass the stack end address to the stack initialization
1011:..\FreeRTOS\Source/tasks.c ****              * function as well. */
1012:..\FreeRTOS\Source/tasks.c ****             #if ( portHAS_STACK_OVERFLOW_CHECKING == 1 )
1013:..\FreeRTOS\Source/tasks.c ****                 {
1014:..\FreeRTOS\Source/tasks.c ****                     #if ( portSTACK_GROWTH < 0 )
1015:..\FreeRTOS\Source/tasks.c ****                         {
1016:..\FreeRTOS\Source/tasks.c ****                             pxNewTCB->pxTopOfStack = pxPortInitialiseStack( pxTopOfStack, pxNewTCB-
1017:..\FreeRTOS\Source/tasks.c ****                         }
1018:..\FreeRTOS\Source/tasks.c ****                     #else /* portSTACK_GROWTH */
1019:..\FreeRTOS\Source/tasks.c ****                         {
1020:..\FreeRTOS\Source/tasks.c ****                             pxNewTCB->pxTopOfStack = pxPortInitialiseStack( pxTopOfStack, pxNewTCB-
1021:..\FreeRTOS\Source/tasks.c ****                         }
1022:..\FreeRTOS\Source/tasks.c ****                     #endif /* portSTACK_GROWTH */
1023:..\FreeRTOS\Source/tasks.c ****                 }
1024:..\FreeRTOS\Source/tasks.c ****             #else /* portHAS_STACK_OVERFLOW_CHECKING */
1025:..\FreeRTOS\Source/tasks.c ****                 {
1026:..\FreeRTOS\Source/tasks.c ****                     pxNewTCB->pxTopOfStack = pxPortInitialiseStack( pxTopOfStack, pxTaskCode, pvPar
1027:..\FreeRTOS\Source/tasks.c ****                 }
1028:..\FreeRTOS\Source/tasks.c ****             #endif /* portHAS_STACK_OVERFLOW_CHECKING */
1029:..\FreeRTOS\Source/tasks.c ****         }
1030:..\FreeRTOS\Source/tasks.c ****     #else /* portUSING_MPU_WRAPPERS */
1031:..\FreeRTOS\Source/tasks.c ****         {
1032:..\FreeRTOS\Source/tasks.c ****             /* If the port has capability to detect stack overflow,
1033:..\FreeRTOS\Source/tasks.c ****              * pass the stack end address to the stack initialization
1034:..\FreeRTOS\Source/tasks.c ****              * function as well. */
1035:..\FreeRTOS\Source/tasks.c ****             #if ( portHAS_STACK_OVERFLOW_CHECKING == 1 )
1036:..\FreeRTOS\Source/tasks.c ****                 {
1037:..\FreeRTOS\Source/tasks.c ****                     #if ( portSTACK_GROWTH < 0 )
1038:..\FreeRTOS\Source/tasks.c ****                         {
1039:..\FreeRTOS\Source/tasks.c ****                             pxNewTCB->pxTopOfStack = pxPortInitialiseStack( pxTopOfStack, pxNewTCB-
1040:..\FreeRTOS\Source/tasks.c ****                         }
1041:..\FreeRTOS\Source/tasks.c ****                     #else /* portSTACK_GROWTH */
1042:..\FreeRTOS\Source/tasks.c ****                         {
1043:..\FreeRTOS\Source/tasks.c ****                             pxNewTCB->pxTopOfStack = pxPortInitialiseStack( pxTopOfStack, pxNewTCB-
1044:..\FreeRTOS\Source/tasks.c ****                         }
1045:..\FreeRTOS\Source/tasks.c ****                     #endif /* portSTACK_GROWTH */
1046:..\FreeRTOS\Source/tasks.c ****                 }
1047:..\FreeRTOS\Source/tasks.c ****             #else /* portHAS_STACK_OVERFLOW_CHECKING */
1048:..\FreeRTOS\Source/tasks.c ****                 {
1049:..\FreeRTOS\Source/tasks.c ****                     pxNewTCB->pxTopOfStack = pxPortInitialiseStack( pxTopOfStack, pxTaskCode, pvPar
 517              		.loc 1 1049 0
 518 00e6 3A68     		ldr	r2, [r7]
 519 00e8 F968     		ldr	r1, [r7, #12]
 520 00ea 3B69     		ldr	r3, [r7, #16]
 521 00ec 1800     		movs	r0, r3
ARM GAS  C:\Users\Jason\AppData\Local\Temp\cclSZdbR.s 			page 29


 522 00ee FFF7FEFF 		bl	pxPortInitialiseStack
 523 00f2 0200     		movs	r2, r0
 524 00f4 BB6A     		ldr	r3, [r7, #40]
 525 00f6 1A60     		str	r2, [r3]
1050:..\FreeRTOS\Source/tasks.c ****                 }
1051:..\FreeRTOS\Source/tasks.c ****             #endif /* portHAS_STACK_OVERFLOW_CHECKING */
1052:..\FreeRTOS\Source/tasks.c ****         }
1053:..\FreeRTOS\Source/tasks.c ****     #endif /* portUSING_MPU_WRAPPERS */
1054:..\FreeRTOS\Source/tasks.c **** 
1055:..\FreeRTOS\Source/tasks.c ****     if( pxCreatedTask != NULL )
 526              		.loc 1 1055 0
 527 00f8 7B6A     		ldr	r3, [r7, #36]
 528 00fa 002B     		cmp	r3, #0
 529 00fc 02D0     		beq	.L33
1056:..\FreeRTOS\Source/tasks.c ****     {
1057:..\FreeRTOS\Source/tasks.c ****         /* Pass the handle out in an anonymous way.  The handle can be used to
1058:..\FreeRTOS\Source/tasks.c ****          * change the created task's priority, delete the created task, etc.*/
1059:..\FreeRTOS\Source/tasks.c ****         *pxCreatedTask = ( TaskHandle_t ) pxNewTCB;
 530              		.loc 1 1059 0
 531 00fe 7B6A     		ldr	r3, [r7, #36]
 532 0100 BA6A     		ldr	r2, [r7, #40]
 533 0102 1A60     		str	r2, [r3]
 534              	.L33:
1060:..\FreeRTOS\Source/tasks.c ****     }
1061:..\FreeRTOS\Source/tasks.c ****     else
1062:..\FreeRTOS\Source/tasks.c ****     {
1063:..\FreeRTOS\Source/tasks.c ****         mtCOVERAGE_TEST_MARKER();
1064:..\FreeRTOS\Source/tasks.c ****     }
1065:..\FreeRTOS\Source/tasks.c **** }
 535              		.loc 1 1065 0
 536 0104 C046     		nop
 537 0106 BD46     		mov	sp, r7
 538 0108 06B0     		add	sp, sp, #24
 539              		@ sp needed
 540 010a 80BD     		pop	{r7, pc}
 541              	.L35:
 542              		.align	2
 543              	.L34:
 544 010c FFFFFF3F 		.word	1073741823
 545              		.cfi_endproc
 546              	.LFE2:
 547              		.size	prvInitialiseNewTask, .-prvInitialiseNewTask
 548              		.section	.text.prvAddNewTaskToReadyList,"ax",%progbits
 549              		.align	2
 550              		.code	16
 551              		.thumb_func
 552              		.type	prvAddNewTaskToReadyList, %function
 553              	prvAddNewTaskToReadyList:
 554              	.LFB3:
1066:..\FreeRTOS\Source/tasks.c **** /*-----------------------------------------------------------*/
1067:..\FreeRTOS\Source/tasks.c **** 
1068:..\FreeRTOS\Source/tasks.c **** static void prvAddNewTaskToReadyList( TCB_t * pxNewTCB )
1069:..\FreeRTOS\Source/tasks.c **** {
 555              		.loc 1 1069 0
 556              		.cfi_startproc
 557              		@ args = 0, pretend = 0, frame = 8
 558              		@ frame_needed = 1, uses_anonymous_args = 0
ARM GAS  C:\Users\Jason\AppData\Local\Temp\cclSZdbR.s 			page 30


 559 0000 80B5     		push	{r7, lr}
 560              		.cfi_def_cfa_offset 8
 561              		.cfi_offset 7, -8
 562              		.cfi_offset 14, -4
 563 0002 82B0     		sub	sp, sp, #8
 564              		.cfi_def_cfa_offset 16
 565 0004 00AF     		add	r7, sp, #0
 566              		.cfi_def_cfa_register 7
 567 0006 7860     		str	r0, [r7, #4]
1070:..\FreeRTOS\Source/tasks.c ****     /* Ensure interrupts don't access the task lists while the lists are being
1071:..\FreeRTOS\Source/tasks.c ****      * updated. */
1072:..\FreeRTOS\Source/tasks.c ****     taskENTER_CRITICAL();
 568              		.loc 1 1072 0
 569 0008 FFF7FEFF 		bl	vPortEnterCritical
1073:..\FreeRTOS\Source/tasks.c ****     {
1074:..\FreeRTOS\Source/tasks.c ****         uxCurrentNumberOfTasks++;
 570              		.loc 1 1074 0
 571 000c 284B     		ldr	r3, .L42
 572 000e 1B68     		ldr	r3, [r3]
 573 0010 5A1C     		adds	r2, r3, #1
 574 0012 274B     		ldr	r3, .L42
 575 0014 1A60     		str	r2, [r3]
1075:..\FreeRTOS\Source/tasks.c **** 
1076:..\FreeRTOS\Source/tasks.c ****         if( pxCurrentTCB == NULL )
 576              		.loc 1 1076 0
 577 0016 274B     		ldr	r3, .L42+4
 578 0018 1B68     		ldr	r3, [r3]
 579 001a 002B     		cmp	r3, #0
 580 001c 09D1     		bne	.L37
1077:..\FreeRTOS\Source/tasks.c ****         {
1078:..\FreeRTOS\Source/tasks.c ****             /* There are no other tasks, or all the other tasks are in
1079:..\FreeRTOS\Source/tasks.c ****              * the suspended state - make this the current task. */
1080:..\FreeRTOS\Source/tasks.c ****             pxCurrentTCB = pxNewTCB;
 581              		.loc 1 1080 0
 582 001e 254B     		ldr	r3, .L42+4
 583 0020 7A68     		ldr	r2, [r7, #4]
 584 0022 1A60     		str	r2, [r3]
1081:..\FreeRTOS\Source/tasks.c **** 
1082:..\FreeRTOS\Source/tasks.c ****             if( uxCurrentNumberOfTasks == ( UBaseType_t ) 1 )
 585              		.loc 1 1082 0
 586 0024 224B     		ldr	r3, .L42
 587 0026 1B68     		ldr	r3, [r3]
 588 0028 012B     		cmp	r3, #1
 589 002a 10D1     		bne	.L38
1083:..\FreeRTOS\Source/tasks.c ****             {
1084:..\FreeRTOS\Source/tasks.c ****                 /* This is the first task to be created so do the preliminary
1085:..\FreeRTOS\Source/tasks.c ****                  * initialisation required.  We will not recover if this call
1086:..\FreeRTOS\Source/tasks.c ****                  * fails, but we will report the failure. */
1087:..\FreeRTOS\Source/tasks.c ****                 prvInitialiseTaskLists();
 590              		.loc 1 1087 0
 591 002c FFF7FEFF 		bl	prvInitialiseTaskLists
 592 0030 0DE0     		b	.L38
 593              	.L37:
1088:..\FreeRTOS\Source/tasks.c ****             }
1089:..\FreeRTOS\Source/tasks.c ****             else
1090:..\FreeRTOS\Source/tasks.c ****             {
1091:..\FreeRTOS\Source/tasks.c ****                 mtCOVERAGE_TEST_MARKER();
ARM GAS  C:\Users\Jason\AppData\Local\Temp\cclSZdbR.s 			page 31


1092:..\FreeRTOS\Source/tasks.c ****             }
1093:..\FreeRTOS\Source/tasks.c ****         }
1094:..\FreeRTOS\Source/tasks.c ****         else
1095:..\FreeRTOS\Source/tasks.c ****         {
1096:..\FreeRTOS\Source/tasks.c ****             /* If the scheduler is not already running, make this task the
1097:..\FreeRTOS\Source/tasks.c ****              * current task if it is the highest priority task to be created
1098:..\FreeRTOS\Source/tasks.c ****              * so far. */
1099:..\FreeRTOS\Source/tasks.c ****             if( xSchedulerRunning == pdFALSE )
 594              		.loc 1 1099 0
 595 0032 214B     		ldr	r3, .L42+8
 596 0034 1B68     		ldr	r3, [r3]
 597 0036 002B     		cmp	r3, #0
 598 0038 09D1     		bne	.L38
1100:..\FreeRTOS\Source/tasks.c ****             {
1101:..\FreeRTOS\Source/tasks.c ****                 if( pxCurrentTCB->uxPriority <= pxNewTCB->uxPriority )
 599              		.loc 1 1101 0
 600 003a 1E4B     		ldr	r3, .L42+4
 601 003c 1B68     		ldr	r3, [r3]
 602 003e DA6A     		ldr	r2, [r3, #44]
 603 0040 7B68     		ldr	r3, [r7, #4]
 604 0042 DB6A     		ldr	r3, [r3, #44]
 605 0044 9A42     		cmp	r2, r3
 606 0046 02D8     		bhi	.L38
1102:..\FreeRTOS\Source/tasks.c ****                 {
1103:..\FreeRTOS\Source/tasks.c ****                     pxCurrentTCB = pxNewTCB;
 607              		.loc 1 1103 0
 608 0048 1A4B     		ldr	r3, .L42+4
 609 004a 7A68     		ldr	r2, [r7, #4]
 610 004c 1A60     		str	r2, [r3]
 611              	.L38:
1104:..\FreeRTOS\Source/tasks.c ****                 }
1105:..\FreeRTOS\Source/tasks.c ****                 else
1106:..\FreeRTOS\Source/tasks.c ****                 {
1107:..\FreeRTOS\Source/tasks.c ****                     mtCOVERAGE_TEST_MARKER();
1108:..\FreeRTOS\Source/tasks.c ****                 }
1109:..\FreeRTOS\Source/tasks.c ****             }
1110:..\FreeRTOS\Source/tasks.c ****             else
1111:..\FreeRTOS\Source/tasks.c ****             {
1112:..\FreeRTOS\Source/tasks.c ****                 mtCOVERAGE_TEST_MARKER();
1113:..\FreeRTOS\Source/tasks.c ****             }
1114:..\FreeRTOS\Source/tasks.c ****         }
1115:..\FreeRTOS\Source/tasks.c **** 
1116:..\FreeRTOS\Source/tasks.c ****         uxTaskNumber++;
 612              		.loc 1 1116 0
 613 004e 1B4B     		ldr	r3, .L42+12
 614 0050 1B68     		ldr	r3, [r3]
 615 0052 5A1C     		adds	r2, r3, #1
 616 0054 194B     		ldr	r3, .L42+12
 617 0056 1A60     		str	r2, [r3]
1117:..\FreeRTOS\Source/tasks.c **** 
1118:..\FreeRTOS\Source/tasks.c ****         #if ( configUSE_TRACE_FACILITY == 1 )
1119:..\FreeRTOS\Source/tasks.c ****             {
1120:..\FreeRTOS\Source/tasks.c ****                 /* Add a counter into the TCB for tracing only. */
1121:..\FreeRTOS\Source/tasks.c ****                 pxNewTCB->uxTCBNumber = uxTaskNumber;
1122:..\FreeRTOS\Source/tasks.c ****             }
1123:..\FreeRTOS\Source/tasks.c ****         #endif /* configUSE_TRACE_FACILITY */
1124:..\FreeRTOS\Source/tasks.c ****         traceTASK_CREATE( pxNewTCB );
ARM GAS  C:\Users\Jason\AppData\Local\Temp\cclSZdbR.s 			page 32


1125:..\FreeRTOS\Source/tasks.c **** 
1126:..\FreeRTOS\Source/tasks.c ****         prvAddTaskToReadyList( pxNewTCB );
 618              		.loc 1 1126 0
 619 0058 7B68     		ldr	r3, [r7, #4]
 620 005a DA6A     		ldr	r2, [r3, #44]
 621 005c 184B     		ldr	r3, .L42+16
 622 005e 1B68     		ldr	r3, [r3]
 623 0060 9A42     		cmp	r2, r3
 624 0062 03D9     		bls	.L39
 625              		.loc 1 1126 0 is_stmt 0 discriminator 1
 626 0064 7B68     		ldr	r3, [r7, #4]
 627 0066 DA6A     		ldr	r2, [r3, #44]
 628 0068 154B     		ldr	r3, .L42+16
 629 006a 1A60     		str	r2, [r3]
 630              	.L39:
 631              		.loc 1 1126 0 discriminator 3
 632 006c 7B68     		ldr	r3, [r7, #4]
 633 006e DA6A     		ldr	r2, [r3, #44]
 634 0070 1300     		movs	r3, r2
 635 0072 9B00     		lsls	r3, r3, #2
 636 0074 9B18     		adds	r3, r3, r2
 637 0076 9B00     		lsls	r3, r3, #2
 638 0078 124A     		ldr	r2, .L42+20
 639 007a 9A18     		adds	r2, r3, r2
 640 007c 7B68     		ldr	r3, [r7, #4]
 641 007e 0433     		adds	r3, r3, #4
 642 0080 1900     		movs	r1, r3
 643 0082 1000     		movs	r0, r2
 644 0084 FFF7FEFF 		bl	vListInsertEnd
1127:..\FreeRTOS\Source/tasks.c **** 
1128:..\FreeRTOS\Source/tasks.c ****         portSETUP_TCB( pxNewTCB );
1129:..\FreeRTOS\Source/tasks.c ****     }
1130:..\FreeRTOS\Source/tasks.c ****     taskEXIT_CRITICAL();
 645              		.loc 1 1130 0 is_stmt 1 discriminator 3
 646 0088 FFF7FEFF 		bl	vPortExitCritical
1131:..\FreeRTOS\Source/tasks.c **** 
1132:..\FreeRTOS\Source/tasks.c ****     if( xSchedulerRunning != pdFALSE )
 647              		.loc 1 1132 0 discriminator 3
 648 008c 0A4B     		ldr	r3, .L42+8
 649 008e 1B68     		ldr	r3, [r3]
 650 0090 002B     		cmp	r3, #0
 651 0092 08D0     		beq	.L41
1133:..\FreeRTOS\Source/tasks.c ****     {
1134:..\FreeRTOS\Source/tasks.c ****         /* If the created task is of a higher priority than the current task
1135:..\FreeRTOS\Source/tasks.c ****          * then it should run now. */
1136:..\FreeRTOS\Source/tasks.c ****         if( pxCurrentTCB->uxPriority < pxNewTCB->uxPriority )
 652              		.loc 1 1136 0
 653 0094 074B     		ldr	r3, .L42+4
 654 0096 1B68     		ldr	r3, [r3]
 655 0098 DA6A     		ldr	r2, [r3, #44]
 656 009a 7B68     		ldr	r3, [r7, #4]
 657 009c DB6A     		ldr	r3, [r3, #44]
 658 009e 9A42     		cmp	r2, r3
 659 00a0 01D2     		bcs	.L41
1137:..\FreeRTOS\Source/tasks.c ****         {
1138:..\FreeRTOS\Source/tasks.c ****             taskYIELD_IF_USING_PREEMPTION();
 660              		.loc 1 1138 0
ARM GAS  C:\Users\Jason\AppData\Local\Temp\cclSZdbR.s 			page 33


 661 00a2 FFF7FEFF 		bl	vPortYield
 662              	.L41:
1139:..\FreeRTOS\Source/tasks.c ****         }
1140:..\FreeRTOS\Source/tasks.c ****         else
1141:..\FreeRTOS\Source/tasks.c ****         {
1142:..\FreeRTOS\Source/tasks.c ****             mtCOVERAGE_TEST_MARKER();
1143:..\FreeRTOS\Source/tasks.c ****         }
1144:..\FreeRTOS\Source/tasks.c ****     }
1145:..\FreeRTOS\Source/tasks.c ****     else
1146:..\FreeRTOS\Source/tasks.c ****     {
1147:..\FreeRTOS\Source/tasks.c ****         mtCOVERAGE_TEST_MARKER();
1148:..\FreeRTOS\Source/tasks.c ****     }
1149:..\FreeRTOS\Source/tasks.c **** }
 663              		.loc 1 1149 0
 664 00a6 C046     		nop
 665 00a8 BD46     		mov	sp, r7
 666 00aa 02B0     		add	sp, sp, #8
 667              		@ sp needed
 668 00ac 80BD     		pop	{r7, pc}
 669              	.L43:
 670 00ae C046     		.align	2
 671              	.L42:
 672 00b0 D8000000 		.word	uxCurrentNumberOfTasks
 673 00b4 00000000 		.word	pxCurrentTCB
 674 00b8 E4000000 		.word	xSchedulerRunning
 675 00bc F4000000 		.word	uxTaskNumber
 676 00c0 E0000000 		.word	uxTopReadyPriority
 677 00c4 04000000 		.word	pxReadyTasksLists
 678              		.cfi_endproc
 679              	.LFE3:
 680              		.size	prvAddNewTaskToReadyList, .-prvAddNewTaskToReadyList
 681              		.section	.text.vTaskDelete,"ax",%progbits
 682              		.align	2
 683              		.global	vTaskDelete
 684              		.code	16
 685              		.thumb_func
 686              		.type	vTaskDelete, %function
 687              	vTaskDelete:
 688              	.LFB4:
1150:..\FreeRTOS\Source/tasks.c **** /*-----------------------------------------------------------*/
1151:..\FreeRTOS\Source/tasks.c **** 
1152:..\FreeRTOS\Source/tasks.c **** #if ( INCLUDE_vTaskDelete == 1 )
1153:..\FreeRTOS\Source/tasks.c **** 
1154:..\FreeRTOS\Source/tasks.c ****     void vTaskDelete( TaskHandle_t xTaskToDelete )
1155:..\FreeRTOS\Source/tasks.c ****     {
 689              		.loc 1 1155 0
 690              		.cfi_startproc
 691              		@ args = 0, pretend = 0, frame = 16
 692              		@ frame_needed = 1, uses_anonymous_args = 0
 693 0000 80B5     		push	{r7, lr}
 694              		.cfi_def_cfa_offset 8
 695              		.cfi_offset 7, -8
 696              		.cfi_offset 14, -4
 697 0002 84B0     		sub	sp, sp, #16
 698              		.cfi_def_cfa_offset 24
 699 0004 00AF     		add	r7, sp, #0
 700              		.cfi_def_cfa_register 7
ARM GAS  C:\Users\Jason\AppData\Local\Temp\cclSZdbR.s 			page 34


 701 0006 7860     		str	r0, [r7, #4]
1156:..\FreeRTOS\Source/tasks.c ****         TCB_t * pxTCB;
1157:..\FreeRTOS\Source/tasks.c **** 
1158:..\FreeRTOS\Source/tasks.c ****         taskENTER_CRITICAL();
 702              		.loc 1 1158 0
 703 0008 FFF7FEFF 		bl	vPortEnterCritical
1159:..\FreeRTOS\Source/tasks.c ****         {
1160:..\FreeRTOS\Source/tasks.c ****             /* If null is passed in here then it is the calling task that is
1161:..\FreeRTOS\Source/tasks.c ****              * being deleted. */
1162:..\FreeRTOS\Source/tasks.c ****             pxTCB = prvGetTCBFromHandle( xTaskToDelete );
 704              		.loc 1 1162 0
 705 000c 7B68     		ldr	r3, [r7, #4]
 706 000e 002B     		cmp	r3, #0
 707 0010 02D1     		bne	.L45
 708              		.loc 1 1162 0 is_stmt 0 discriminator 1
 709 0012 274B     		ldr	r3, .L54
 710 0014 1B68     		ldr	r3, [r3]
 711 0016 00E0     		b	.L46
 712              	.L45:
 713              		.loc 1 1162 0 discriminator 2
 714 0018 7B68     		ldr	r3, [r7, #4]
 715              	.L46:
 716              		.loc 1 1162 0 discriminator 4
 717 001a FB60     		str	r3, [r7, #12]
1163:..\FreeRTOS\Source/tasks.c **** 
1164:..\FreeRTOS\Source/tasks.c ****             /* Remove task from the ready/delayed list. */
1165:..\FreeRTOS\Source/tasks.c ****             if( uxListRemove( &( pxTCB->xStateListItem ) ) == ( UBaseType_t ) 0 )
 718              		.loc 1 1165 0 is_stmt 1 discriminator 4
 719 001c FB68     		ldr	r3, [r7, #12]
 720 001e 0433     		adds	r3, r3, #4
 721 0020 1800     		movs	r0, r3
 722 0022 FFF7FEFF 		bl	uxListRemove
1166:..\FreeRTOS\Source/tasks.c ****             {
1167:..\FreeRTOS\Source/tasks.c ****                 taskRESET_READY_PRIORITY( pxTCB->uxPriority );
1168:..\FreeRTOS\Source/tasks.c ****             }
1169:..\FreeRTOS\Source/tasks.c ****             else
1170:..\FreeRTOS\Source/tasks.c ****             {
1171:..\FreeRTOS\Source/tasks.c ****                 mtCOVERAGE_TEST_MARKER();
1172:..\FreeRTOS\Source/tasks.c ****             }
1173:..\FreeRTOS\Source/tasks.c **** 
1174:..\FreeRTOS\Source/tasks.c ****             /* Is the task waiting on an event also? */
1175:..\FreeRTOS\Source/tasks.c ****             if( listLIST_ITEM_CONTAINER( &( pxTCB->xEventListItem ) ) != NULL )
 723              		.loc 1 1175 0 discriminator 4
 724 0026 FB68     		ldr	r3, [r7, #12]
 725 0028 9B6A     		ldr	r3, [r3, #40]
 726 002a 002B     		cmp	r3, #0
 727 002c 04D0     		beq	.L47
1176:..\FreeRTOS\Source/tasks.c ****             {
1177:..\FreeRTOS\Source/tasks.c ****                 ( void ) uxListRemove( &( pxTCB->xEventListItem ) );
 728              		.loc 1 1177 0
 729 002e FB68     		ldr	r3, [r7, #12]
 730 0030 1833     		adds	r3, r3, #24
 731 0032 1800     		movs	r0, r3
 732 0034 FFF7FEFF 		bl	uxListRemove
 733              	.L47:
1178:..\FreeRTOS\Source/tasks.c ****             }
1179:..\FreeRTOS\Source/tasks.c ****             else
ARM GAS  C:\Users\Jason\AppData\Local\Temp\cclSZdbR.s 			page 35


1180:..\FreeRTOS\Source/tasks.c ****             {
1181:..\FreeRTOS\Source/tasks.c ****                 mtCOVERAGE_TEST_MARKER();
1182:..\FreeRTOS\Source/tasks.c ****             }
1183:..\FreeRTOS\Source/tasks.c **** 
1184:..\FreeRTOS\Source/tasks.c ****             /* Increment the uxTaskNumber also so kernel aware debuggers can
1185:..\FreeRTOS\Source/tasks.c ****              * detect that the task lists need re-generating.  This is done before
1186:..\FreeRTOS\Source/tasks.c ****              * portPRE_TASK_DELETE_HOOK() as in the Windows port that macro will
1187:..\FreeRTOS\Source/tasks.c ****              * not return. */
1188:..\FreeRTOS\Source/tasks.c ****             uxTaskNumber++;
 734              		.loc 1 1188 0
 735 0038 1E4B     		ldr	r3, .L54+4
 736 003a 1B68     		ldr	r3, [r3]
 737 003c 5A1C     		adds	r2, r3, #1
 738 003e 1D4B     		ldr	r3, .L54+4
 739 0040 1A60     		str	r2, [r3]
1189:..\FreeRTOS\Source/tasks.c **** 
1190:..\FreeRTOS\Source/tasks.c ****             if( pxTCB == pxCurrentTCB )
 740              		.loc 1 1190 0
 741 0042 1B4B     		ldr	r3, .L54
 742 0044 1B68     		ldr	r3, [r3]
 743 0046 FA68     		ldr	r2, [r7, #12]
 744 0048 9A42     		cmp	r2, r3
 745 004a 0CD1     		bne	.L48
1191:..\FreeRTOS\Source/tasks.c ****             {
1192:..\FreeRTOS\Source/tasks.c ****                 /* A task is deleting itself.  This cannot complete within the
1193:..\FreeRTOS\Source/tasks.c ****                  * task itself, as a context switch to another task is required.
1194:..\FreeRTOS\Source/tasks.c ****                  * Place the task in the termination list.  The idle task will
1195:..\FreeRTOS\Source/tasks.c ****                  * check the termination list and free up any memory allocated by
1196:..\FreeRTOS\Source/tasks.c ****                  * the scheduler for the TCB and stack of the deleted task. */
1197:..\FreeRTOS\Source/tasks.c ****                 vListInsertEnd( &xTasksWaitingTermination, &( pxTCB->xStateListItem ) );
 746              		.loc 1 1197 0
 747 004c FB68     		ldr	r3, [r7, #12]
 748 004e 1A1D     		adds	r2, r3, #4
 749 0050 194B     		ldr	r3, .L54+8
 750 0052 1100     		movs	r1, r2
 751 0054 1800     		movs	r0, r3
 752 0056 FFF7FEFF 		bl	vListInsertEnd
1198:..\FreeRTOS\Source/tasks.c **** 
1199:..\FreeRTOS\Source/tasks.c ****                 /* Increment the ucTasksDeleted variable so the idle task knows
1200:..\FreeRTOS\Source/tasks.c ****                  * there is a task that has been deleted and that it should therefore
1201:..\FreeRTOS\Source/tasks.c ****                  * check the xTasksWaitingTermination list. */
1202:..\FreeRTOS\Source/tasks.c ****                 ++uxDeletedTasksWaitingCleanUp;
 753              		.loc 1 1202 0
 754 005a 184B     		ldr	r3, .L54+12
 755 005c 1B68     		ldr	r3, [r3]
 756 005e 5A1C     		adds	r2, r3, #1
 757 0060 164B     		ldr	r3, .L54+12
 758 0062 1A60     		str	r2, [r3]
 759 0064 0AE0     		b	.L49
 760              	.L48:
1203:..\FreeRTOS\Source/tasks.c **** 
1204:..\FreeRTOS\Source/tasks.c ****                 /* Call the delete hook before portPRE_TASK_DELETE_HOOK() as
1205:..\FreeRTOS\Source/tasks.c ****                  * portPRE_TASK_DELETE_HOOK() does not return in the Win32 port. */
1206:..\FreeRTOS\Source/tasks.c ****                 traceTASK_DELETE( pxTCB );
1207:..\FreeRTOS\Source/tasks.c **** 
1208:..\FreeRTOS\Source/tasks.c ****                 /* The pre-delete hook is primarily for the Windows simulator,
1209:..\FreeRTOS\Source/tasks.c ****                  * in which Windows specific clean up operations are performed,
ARM GAS  C:\Users\Jason\AppData\Local\Temp\cclSZdbR.s 			page 36


1210:..\FreeRTOS\Source/tasks.c ****                  * after which it is not possible to yield away from this task -
1211:..\FreeRTOS\Source/tasks.c ****                  * hence xYieldPending is used to latch that a context switch is
1212:..\FreeRTOS\Source/tasks.c ****                  * required. */
1213:..\FreeRTOS\Source/tasks.c ****                 portPRE_TASK_DELETE_HOOK( pxTCB, &xYieldPending );
1214:..\FreeRTOS\Source/tasks.c ****             }
1215:..\FreeRTOS\Source/tasks.c ****             else
1216:..\FreeRTOS\Source/tasks.c ****             {
1217:..\FreeRTOS\Source/tasks.c ****                 --uxCurrentNumberOfTasks;
 761              		.loc 1 1217 0
 762 0066 164B     		ldr	r3, .L54+16
 763 0068 1B68     		ldr	r3, [r3]
 764 006a 5A1E     		subs	r2, r3, #1
 765 006c 144B     		ldr	r3, .L54+16
 766 006e 1A60     		str	r2, [r3]
1218:..\FreeRTOS\Source/tasks.c ****                 traceTASK_DELETE( pxTCB );
1219:..\FreeRTOS\Source/tasks.c ****                 prvDeleteTCB( pxTCB );
 767              		.loc 1 1219 0
 768 0070 FB68     		ldr	r3, [r7, #12]
 769 0072 1800     		movs	r0, r3
 770 0074 FFF7FEFF 		bl	prvDeleteTCB
1220:..\FreeRTOS\Source/tasks.c **** 
1221:..\FreeRTOS\Source/tasks.c ****                 /* Reset the next expected unblock time in case it referred to
1222:..\FreeRTOS\Source/tasks.c ****                  * the task that has just been deleted. */
1223:..\FreeRTOS\Source/tasks.c ****                 prvResetNextTaskUnblockTime();
 771              		.loc 1 1223 0
 772 0078 FFF7FEFF 		bl	prvResetNextTaskUnblockTime
 773              	.L49:
1224:..\FreeRTOS\Source/tasks.c ****             }
1225:..\FreeRTOS\Source/tasks.c ****         }
1226:..\FreeRTOS\Source/tasks.c ****         taskEXIT_CRITICAL();
 774              		.loc 1 1226 0
 775 007c FFF7FEFF 		bl	vPortExitCritical
1227:..\FreeRTOS\Source/tasks.c **** 
1228:..\FreeRTOS\Source/tasks.c ****         /* Force a reschedule if it is the currently running task that has just
1229:..\FreeRTOS\Source/tasks.c ****          * been deleted. */
1230:..\FreeRTOS\Source/tasks.c ****         if( xSchedulerRunning != pdFALSE )
 776              		.loc 1 1230 0
 777 0080 104B     		ldr	r3, .L54+20
 778 0082 1B68     		ldr	r3, [r3]
 779 0084 002B     		cmp	r3, #0
 780 0086 0ED0     		beq	.L53
1231:..\FreeRTOS\Source/tasks.c ****         {
1232:..\FreeRTOS\Source/tasks.c ****             if( pxTCB == pxCurrentTCB )
 781              		.loc 1 1232 0
 782 0088 094B     		ldr	r3, .L54
 783 008a 1B68     		ldr	r3, [r3]
 784 008c FA68     		ldr	r2, [r7, #12]
 785 008e 9A42     		cmp	r2, r3
 786 0090 09D1     		bne	.L53
1233:..\FreeRTOS\Source/tasks.c ****             {
1234:..\FreeRTOS\Source/tasks.c ****                 configASSERT( uxSchedulerSuspended == 0 );
 787              		.loc 1 1234 0
 788 0092 0D4B     		ldr	r3, .L54+24
 789 0094 1B88     		ldrh	r3, [r3]
 790 0096 002B     		cmp	r3, #0
 791 0098 01D1     		bne	.L51
 792              		.loc 1 1234 0 is_stmt 0 discriminator 1
ARM GAS  C:\Users\Jason\AppData\Local\Temp\cclSZdbR.s 			page 37


 793              		.syntax divided
 794              	@ 1234 "..\FreeRTOS\Source\tasks.c" 1
 795 009a 72B6     		 cpsid i 
 796              	@ 0 "" 2
 797              		.thumb
 798              		.syntax unified
 799              	.L52:
 800 009c FEE7     		b	.L52
 801              	.L51:
 802              		.loc 1 1234 0 discriminator 2
 803 009e 0B4B     		ldr	r3, .L54+28
 804 00a0 1B68     		ldr	r3, [r3]
1235:..\FreeRTOS\Source/tasks.c ****                 portYIELD_WITHIN_API();
 805              		.loc 1 1235 0 is_stmt 1 discriminator 2
 806 00a2 FFF7FEFF 		bl	vPortYield
 807              	.L53:
1236:..\FreeRTOS\Source/tasks.c ****             }
1237:..\FreeRTOS\Source/tasks.c ****             else
1238:..\FreeRTOS\Source/tasks.c ****             {
1239:..\FreeRTOS\Source/tasks.c ****                 mtCOVERAGE_TEST_MARKER();
1240:..\FreeRTOS\Source/tasks.c ****             }
1241:..\FreeRTOS\Source/tasks.c ****         }
1242:..\FreeRTOS\Source/tasks.c ****     }
 808              		.loc 1 1242 0
 809 00a6 C046     		nop
 810 00a8 BD46     		mov	sp, r7
 811 00aa 04B0     		add	sp, sp, #16
 812              		@ sp needed
 813 00ac 80BD     		pop	{r7, pc}
 814              	.L55:
 815 00ae C046     		.align	2
 816              	.L54:
 817 00b0 00000000 		.word	pxCurrentTCB
 818 00b4 F4000000 		.word	uxTaskNumber
 819 00b8 AC000000 		.word	xTasksWaitingTermination
 820 00bc C0000000 		.word	uxDeletedTasksWaitingCleanUp
 821 00c0 D8000000 		.word	uxCurrentNumberOfTasks
 822 00c4 E4000000 		.word	xSchedulerRunning
 823 00c8 00000000 		.word	x
 824 00cc 00010000 		.word	uxSchedulerSuspended
 825              		.cfi_endproc
 826              	.LFE4:
 827              		.size	vTaskDelete, .-vTaskDelete
 828              		.section	.text.xTaskDelayUntil,"ax",%progbits
 829              		.align	2
 830              		.global	xTaskDelayUntil
 831              		.code	16
 832              		.thumb_func
 833              		.type	xTaskDelayUntil, %function
 834              	xTaskDelayUntil:
 835              	.LFB5:
1243:..\FreeRTOS\Source/tasks.c **** 
1244:..\FreeRTOS\Source/tasks.c **** #endif /* INCLUDE_vTaskDelete */
1245:..\FreeRTOS\Source/tasks.c **** /*-----------------------------------------------------------*/
1246:..\FreeRTOS\Source/tasks.c **** 
1247:..\FreeRTOS\Source/tasks.c **** #if ( INCLUDE_xTaskDelayUntil == 1 )
1248:..\FreeRTOS\Source/tasks.c **** 
ARM GAS  C:\Users\Jason\AppData\Local\Temp\cclSZdbR.s 			page 38


1249:..\FreeRTOS\Source/tasks.c ****     BaseType_t xTaskDelayUntil( TickType_t * const pxPreviousWakeTime,
1250:..\FreeRTOS\Source/tasks.c ****                                 const TickType_t xTimeIncrement )
1251:..\FreeRTOS\Source/tasks.c ****     {
 836              		.loc 1 1251 0
 837              		.cfi_startproc
 838              		@ args = 0, pretend = 0, frame = 24
 839              		@ frame_needed = 1, uses_anonymous_args = 0
 840 0000 80B5     		push	{r7, lr}
 841              		.cfi_def_cfa_offset 8
 842              		.cfi_offset 7, -8
 843              		.cfi_offset 14, -4
 844 0002 86B0     		sub	sp, sp, #24
 845              		.cfi_def_cfa_offset 32
 846 0004 00AF     		add	r7, sp, #0
 847              		.cfi_def_cfa_register 7
 848 0006 7860     		str	r0, [r7, #4]
 849 0008 3960     		str	r1, [r7]
1252:..\FreeRTOS\Source/tasks.c ****         TickType_t xTimeToWake;
1253:..\FreeRTOS\Source/tasks.c ****         BaseType_t xAlreadyYielded, xShouldDelay = pdFALSE;
 850              		.loc 1 1253 0
 851 000a 0023     		movs	r3, #0
 852 000c 7B61     		str	r3, [r7, #20]
1254:..\FreeRTOS\Source/tasks.c **** 
1255:..\FreeRTOS\Source/tasks.c ****         configASSERT( pxPreviousWakeTime );
 853              		.loc 1 1255 0
 854 000e 2A4B     		ldr	r3, .L69
 855 0010 1B88     		ldrh	r3, [r3]
 856 0012 002B     		cmp	r3, #0
 857 0014 01D1     		bne	.L57
 858              		.loc 1 1255 0 is_stmt 0 discriminator 1
 859              		.syntax divided
 860              	@ 1255 "..\FreeRTOS\Source\tasks.c" 1
 861 0016 72B6     		 cpsid i 
 862              	@ 0 "" 2
 863              		.thumb
 864              		.syntax unified
 865              	.L58:
 866 0018 FEE7     		b	.L58
 867              	.L57:
1256:..\FreeRTOS\Source/tasks.c ****         configASSERT( ( xTimeIncrement > 0U ) );
 868              		.loc 1 1256 0 is_stmt 1
 869 001a 274B     		ldr	r3, .L69
 870 001c 1B88     		ldrh	r3, [r3]
 871 001e 002B     		cmp	r3, #0
 872 0020 01D1     		bne	.L59
 873              		.loc 1 1256 0 is_stmt 0 discriminator 1
 874              		.syntax divided
 875              	@ 1256 "..\FreeRTOS\Source\tasks.c" 1
 876 0022 72B6     		 cpsid i 
 877              	@ 0 "" 2
 878              		.thumb
 879              		.syntax unified
 880              	.L60:
 881              		.loc 1 1256 0 discriminator 2
 882 0024 FEE7     		b	.L60
 883              	.L59:
1257:..\FreeRTOS\Source/tasks.c ****         configASSERT( uxSchedulerSuspended == 0 );
ARM GAS  C:\Users\Jason\AppData\Local\Temp\cclSZdbR.s 			page 39


 884              		.loc 1 1257 0 is_stmt 1
 885 0026 244B     		ldr	r3, .L69
 886 0028 1B88     		ldrh	r3, [r3]
 887 002a 002B     		cmp	r3, #0
 888 002c 01D1     		bne	.L61
 889              		.loc 1 1257 0 is_stmt 0 discriminator 1
 890              		.syntax divided
 891              	@ 1257 "..\FreeRTOS\Source\tasks.c" 1
 892 002e 72B6     		 cpsid i 
 893              	@ 0 "" 2
 894              		.thumb
 895              		.syntax unified
 896              	.L62:
 897              		.loc 1 1257 0 discriminator 3
 898 0030 FEE7     		b	.L62
 899              	.L61:
 900              		.loc 1 1257 0 discriminator 2
 901 0032 224B     		ldr	r3, .L69+4
 902 0034 1B68     		ldr	r3, [r3]
1258:..\FreeRTOS\Source/tasks.c **** 
1259:..\FreeRTOS\Source/tasks.c ****         vTaskSuspendAll();
 903              		.loc 1 1259 0 is_stmt 1 discriminator 2
 904 0036 FFF7FEFF 		bl	vTaskSuspendAll
 905              	.LBB4:
1260:..\FreeRTOS\Source/tasks.c ****         {
1261:..\FreeRTOS\Source/tasks.c ****             /* Minor optimisation.  The tick count cannot change in this
1262:..\FreeRTOS\Source/tasks.c ****              * block. */
1263:..\FreeRTOS\Source/tasks.c ****             const TickType_t xConstTickCount = xTickCount;
 906              		.loc 1 1263 0 discriminator 2
 907 003a 214B     		ldr	r3, .L69+8
 908 003c 1B68     		ldr	r3, [r3]
 909 003e 3B61     		str	r3, [r7, #16]
1264:..\FreeRTOS\Source/tasks.c **** 
1265:..\FreeRTOS\Source/tasks.c ****             /* Generate the tick time at which the task wants to wake. */
1266:..\FreeRTOS\Source/tasks.c ****             xTimeToWake = *pxPreviousWakeTime + xTimeIncrement;
 910              		.loc 1 1266 0 discriminator 2
 911 0040 7B68     		ldr	r3, [r7, #4]
 912 0042 1A68     		ldr	r2, [r3]
 913 0044 3B68     		ldr	r3, [r7]
 914 0046 D318     		adds	r3, r2, r3
 915 0048 FB60     		str	r3, [r7, #12]
1267:..\FreeRTOS\Source/tasks.c **** 
1268:..\FreeRTOS\Source/tasks.c ****             if( xConstTickCount < *pxPreviousWakeTime )
 916              		.loc 1 1268 0 discriminator 2
 917 004a 7B68     		ldr	r3, [r7, #4]
 918 004c 1A68     		ldr	r2, [r3]
 919 004e 3B69     		ldr	r3, [r7, #16]
 920 0050 9A42     		cmp	r2, r3
 921 0052 0BD9     		bls	.L63
1269:..\FreeRTOS\Source/tasks.c ****             {
1270:..\FreeRTOS\Source/tasks.c ****                 /* The tick count has overflowed since this function was
1271:..\FreeRTOS\Source/tasks.c ****                  * lasted called.  In this case the only time we should ever
1272:..\FreeRTOS\Source/tasks.c ****                  * actually delay is if the wake time has also  overflowed,
1273:..\FreeRTOS\Source/tasks.c ****                  * and the wake time is greater than the tick time.  When this
1274:..\FreeRTOS\Source/tasks.c ****                  * is the case it is as if neither time had overflowed. */
1275:..\FreeRTOS\Source/tasks.c ****                 if( ( xTimeToWake < *pxPreviousWakeTime ) && ( xTimeToWake > xConstTickCount ) )
 922              		.loc 1 1275 0
ARM GAS  C:\Users\Jason\AppData\Local\Temp\cclSZdbR.s 			page 40


 923 0054 7B68     		ldr	r3, [r7, #4]
 924 0056 1A68     		ldr	r2, [r3]
 925 0058 FB68     		ldr	r3, [r7, #12]
 926 005a 9A42     		cmp	r2, r3
 927 005c 11D9     		bls	.L64
 928              		.loc 1 1275 0 is_stmt 0 discriminator 1
 929 005e FA68     		ldr	r2, [r7, #12]
 930 0060 3B69     		ldr	r3, [r7, #16]
 931 0062 9A42     		cmp	r2, r3
 932 0064 0DD9     		bls	.L64
1276:..\FreeRTOS\Source/tasks.c ****                 {
1277:..\FreeRTOS\Source/tasks.c ****                     xShouldDelay = pdTRUE;
 933              		.loc 1 1277 0 is_stmt 1
 934 0066 0123     		movs	r3, #1
 935 0068 7B61     		str	r3, [r7, #20]
 936 006a 0AE0     		b	.L64
 937              	.L63:
1278:..\FreeRTOS\Source/tasks.c ****                 }
1279:..\FreeRTOS\Source/tasks.c ****                 else
1280:..\FreeRTOS\Source/tasks.c ****                 {
1281:..\FreeRTOS\Source/tasks.c ****                     mtCOVERAGE_TEST_MARKER();
1282:..\FreeRTOS\Source/tasks.c ****                 }
1283:..\FreeRTOS\Source/tasks.c ****             }
1284:..\FreeRTOS\Source/tasks.c ****             else
1285:..\FreeRTOS\Source/tasks.c ****             {
1286:..\FreeRTOS\Source/tasks.c ****                 /* The tick time has not overflowed.  In this case we will
1287:..\FreeRTOS\Source/tasks.c ****                  * delay if either the wake time has overflowed, and/or the
1288:..\FreeRTOS\Source/tasks.c ****                  * tick time is less than the wake time. */
1289:..\FreeRTOS\Source/tasks.c ****                 if( ( xTimeToWake < *pxPreviousWakeTime ) || ( xTimeToWake > xConstTickCount ) )
 938              		.loc 1 1289 0
 939 006c 7B68     		ldr	r3, [r7, #4]
 940 006e 1A68     		ldr	r2, [r3]
 941 0070 FB68     		ldr	r3, [r7, #12]
 942 0072 9A42     		cmp	r2, r3
 943 0074 03D8     		bhi	.L65
 944              		.loc 1 1289 0 is_stmt 0 discriminator 1
 945 0076 FA68     		ldr	r2, [r7, #12]
 946 0078 3B69     		ldr	r3, [r7, #16]
 947 007a 9A42     		cmp	r2, r3
 948 007c 01D9     		bls	.L64
 949              	.L65:
1290:..\FreeRTOS\Source/tasks.c ****                 {
1291:..\FreeRTOS\Source/tasks.c ****                     xShouldDelay = pdTRUE;
 950              		.loc 1 1291 0 is_stmt 1
 951 007e 0123     		movs	r3, #1
 952 0080 7B61     		str	r3, [r7, #20]
 953              	.L64:
1292:..\FreeRTOS\Source/tasks.c ****                 }
1293:..\FreeRTOS\Source/tasks.c ****                 else
1294:..\FreeRTOS\Source/tasks.c ****                 {
1295:..\FreeRTOS\Source/tasks.c ****                     mtCOVERAGE_TEST_MARKER();
1296:..\FreeRTOS\Source/tasks.c ****                 }
1297:..\FreeRTOS\Source/tasks.c ****             }
1298:..\FreeRTOS\Source/tasks.c **** 
1299:..\FreeRTOS\Source/tasks.c ****             /* Update the wake time ready for the next call. */
1300:..\FreeRTOS\Source/tasks.c ****             *pxPreviousWakeTime = xTimeToWake;
 954              		.loc 1 1300 0
ARM GAS  C:\Users\Jason\AppData\Local\Temp\cclSZdbR.s 			page 41


 955 0082 7B68     		ldr	r3, [r7, #4]
 956 0084 FA68     		ldr	r2, [r7, #12]
 957 0086 1A60     		str	r2, [r3]
1301:..\FreeRTOS\Source/tasks.c **** 
1302:..\FreeRTOS\Source/tasks.c ****             if( xShouldDelay != pdFALSE )
 958              		.loc 1 1302 0
 959 0088 7B69     		ldr	r3, [r7, #20]
 960 008a 002B     		cmp	r3, #0
 961 008c 06D0     		beq	.L66
1303:..\FreeRTOS\Source/tasks.c ****             {
1304:..\FreeRTOS\Source/tasks.c ****                 traceTASK_DELAY_UNTIL( xTimeToWake );
1305:..\FreeRTOS\Source/tasks.c **** 
1306:..\FreeRTOS\Source/tasks.c ****                 /* prvAddCurrentTaskToDelayedList() needs the block time, not
1307:..\FreeRTOS\Source/tasks.c ****                  * the time to wake, so subtract the current tick count. */
1308:..\FreeRTOS\Source/tasks.c ****                 prvAddCurrentTaskToDelayedList( xTimeToWake - xConstTickCount, pdFALSE );
 962              		.loc 1 1308 0
 963 008e FA68     		ldr	r2, [r7, #12]
 964 0090 3B69     		ldr	r3, [r7, #16]
 965 0092 D31A     		subs	r3, r2, r3
 966 0094 0021     		movs	r1, #0
 967 0096 1800     		movs	r0, r3
 968 0098 FFF7FEFF 		bl	prvAddCurrentTaskToDelayedList
 969              	.L66:
 970              	.LBE4:
1309:..\FreeRTOS\Source/tasks.c ****             }
1310:..\FreeRTOS\Source/tasks.c ****             else
1311:..\FreeRTOS\Source/tasks.c ****             {
1312:..\FreeRTOS\Source/tasks.c ****                 mtCOVERAGE_TEST_MARKER();
1313:..\FreeRTOS\Source/tasks.c ****             }
1314:..\FreeRTOS\Source/tasks.c ****         }
1315:..\FreeRTOS\Source/tasks.c ****         xAlreadyYielded = xTaskResumeAll();
 971              		.loc 1 1315 0
 972 009c FFF7FEFF 		bl	xTaskResumeAll
 973 00a0 0300     		movs	r3, r0
 974 00a2 BB60     		str	r3, [r7, #8]
1316:..\FreeRTOS\Source/tasks.c **** 
1317:..\FreeRTOS\Source/tasks.c ****         /* Force a reschedule if xTaskResumeAll has not already done so, we may
1318:..\FreeRTOS\Source/tasks.c ****          * have put ourselves to sleep. */
1319:..\FreeRTOS\Source/tasks.c ****         if( xAlreadyYielded == pdFALSE )
 975              		.loc 1 1319 0
 976 00a4 BB68     		ldr	r3, [r7, #8]
 977 00a6 002B     		cmp	r3, #0
 978 00a8 01D1     		bne	.L67
1320:..\FreeRTOS\Source/tasks.c ****         {
1321:..\FreeRTOS\Source/tasks.c ****             portYIELD_WITHIN_API();
 979              		.loc 1 1321 0
 980 00aa FFF7FEFF 		bl	vPortYield
 981              	.L67:
1322:..\FreeRTOS\Source/tasks.c ****         }
1323:..\FreeRTOS\Source/tasks.c ****         else
1324:..\FreeRTOS\Source/tasks.c ****         {
1325:..\FreeRTOS\Source/tasks.c ****             mtCOVERAGE_TEST_MARKER();
1326:..\FreeRTOS\Source/tasks.c ****         }
1327:..\FreeRTOS\Source/tasks.c **** 
1328:..\FreeRTOS\Source/tasks.c ****         return xShouldDelay;
 982              		.loc 1 1328 0
 983 00ae 7B69     		ldr	r3, [r7, #20]
ARM GAS  C:\Users\Jason\AppData\Local\Temp\cclSZdbR.s 			page 42


1329:..\FreeRTOS\Source/tasks.c ****     }
 984              		.loc 1 1329 0
 985 00b0 1800     		movs	r0, r3
 986 00b2 BD46     		mov	sp, r7
 987 00b4 06B0     		add	sp, sp, #24
 988              		@ sp needed
 989 00b6 80BD     		pop	{r7, pc}
 990              	.L70:
 991              		.align	2
 992              	.L69:
 993 00b8 00000000 		.word	x
 994 00bc 00010000 		.word	uxSchedulerSuspended
 995 00c0 DC000000 		.word	xTickCount
 996              		.cfi_endproc
 997              	.LFE5:
 998              		.size	xTaskDelayUntil, .-xTaskDelayUntil
 999              		.section	.text.vTaskDelay,"ax",%progbits
 1000              		.align	2
 1001              		.global	vTaskDelay
 1002              		.code	16
 1003              		.thumb_func
 1004              		.type	vTaskDelay, %function
 1005              	vTaskDelay:
 1006              	.LFB6:
1330:..\FreeRTOS\Source/tasks.c **** 
1331:..\FreeRTOS\Source/tasks.c **** #endif /* INCLUDE_xTaskDelayUntil */
1332:..\FreeRTOS\Source/tasks.c **** /*-----------------------------------------------------------*/
1333:..\FreeRTOS\Source/tasks.c **** 
1334:..\FreeRTOS\Source/tasks.c **** #if ( INCLUDE_vTaskDelay == 1 )
1335:..\FreeRTOS\Source/tasks.c **** 
1336:..\FreeRTOS\Source/tasks.c ****     void vTaskDelay( const TickType_t xTicksToDelay )
1337:..\FreeRTOS\Source/tasks.c ****     {
 1007              		.loc 1 1337 0
 1008              		.cfi_startproc
 1009              		@ args = 0, pretend = 0, frame = 16
 1010              		@ frame_needed = 1, uses_anonymous_args = 0
 1011 0000 80B5     		push	{r7, lr}
 1012              		.cfi_def_cfa_offset 8
 1013              		.cfi_offset 7, -8
 1014              		.cfi_offset 14, -4
 1015 0002 84B0     		sub	sp, sp, #16
 1016              		.cfi_def_cfa_offset 24
 1017 0004 00AF     		add	r7, sp, #0
 1018              		.cfi_def_cfa_register 7
 1019 0006 7860     		str	r0, [r7, #4]
1338:..\FreeRTOS\Source/tasks.c ****         BaseType_t xAlreadyYielded = pdFALSE;
 1020              		.loc 1 1338 0
 1021 0008 0023     		movs	r3, #0
 1022 000a FB60     		str	r3, [r7, #12]
1339:..\FreeRTOS\Source/tasks.c **** 
1340:..\FreeRTOS\Source/tasks.c ****         /* A delay time of zero just forces a reschedule. */
1341:..\FreeRTOS\Source/tasks.c ****         if( xTicksToDelay > ( TickType_t ) 0U )
 1023              		.loc 1 1341 0
 1024 000c 7B68     		ldr	r3, [r7, #4]
 1025 000e 002B     		cmp	r3, #0
 1026 0010 12D0     		beq	.L72
1342:..\FreeRTOS\Source/tasks.c ****         {
ARM GAS  C:\Users\Jason\AppData\Local\Temp\cclSZdbR.s 			page 43


1343:..\FreeRTOS\Source/tasks.c ****             configASSERT( uxSchedulerSuspended == 0 );
 1027              		.loc 1 1343 0
 1028 0012 0E4B     		ldr	r3, .L77
 1029 0014 1B88     		ldrh	r3, [r3]
 1030 0016 002B     		cmp	r3, #0
 1031 0018 01D1     		bne	.L73
 1032              		.loc 1 1343 0 is_stmt 0 discriminator 1
 1033              		.syntax divided
 1034              	@ 1343 "..\FreeRTOS\Source\tasks.c" 1
 1035 001a 72B6     		 cpsid i 
 1036              	@ 0 "" 2
 1037              		.thumb
 1038              		.syntax unified
 1039              	.L74:
 1040 001c FEE7     		b	.L74
 1041              	.L73:
 1042              		.loc 1 1343 0 discriminator 2
 1043 001e 0C4B     		ldr	r3, .L77+4
 1044 0020 1B68     		ldr	r3, [r3]
1344:..\FreeRTOS\Source/tasks.c ****             vTaskSuspendAll();
 1045              		.loc 1 1344 0 is_stmt 1 discriminator 2
 1046 0022 FFF7FEFF 		bl	vTaskSuspendAll
1345:..\FreeRTOS\Source/tasks.c ****             {
1346:..\FreeRTOS\Source/tasks.c ****                 traceTASK_DELAY();
1347:..\FreeRTOS\Source/tasks.c **** 
1348:..\FreeRTOS\Source/tasks.c ****                 /* A task that is removed from the event list while the
1349:..\FreeRTOS\Source/tasks.c ****                  * scheduler is suspended will not get placed in the ready
1350:..\FreeRTOS\Source/tasks.c ****                  * list or removed from the blocked list until the scheduler
1351:..\FreeRTOS\Source/tasks.c ****                  * is resumed.
1352:..\FreeRTOS\Source/tasks.c ****                  *
1353:..\FreeRTOS\Source/tasks.c ****                  * This task cannot be in an event list as it is the currently
1354:..\FreeRTOS\Source/tasks.c ****                  * executing task. */
1355:..\FreeRTOS\Source/tasks.c ****                 prvAddCurrentTaskToDelayedList( xTicksToDelay, pdFALSE );
 1047              		.loc 1 1355 0 discriminator 2
 1048 0026 7B68     		ldr	r3, [r7, #4]
 1049 0028 0021     		movs	r1, #0
 1050 002a 1800     		movs	r0, r3
 1051 002c FFF7FEFF 		bl	prvAddCurrentTaskToDelayedList
1356:..\FreeRTOS\Source/tasks.c ****             }
1357:..\FreeRTOS\Source/tasks.c ****             xAlreadyYielded = xTaskResumeAll();
 1052              		.loc 1 1357 0 discriminator 2
 1053 0030 FFF7FEFF 		bl	xTaskResumeAll
 1054 0034 0300     		movs	r3, r0
 1055 0036 FB60     		str	r3, [r7, #12]
 1056              	.L72:
1358:..\FreeRTOS\Source/tasks.c ****         }
1359:..\FreeRTOS\Source/tasks.c ****         else
1360:..\FreeRTOS\Source/tasks.c ****         {
1361:..\FreeRTOS\Source/tasks.c ****             mtCOVERAGE_TEST_MARKER();
1362:..\FreeRTOS\Source/tasks.c ****         }
1363:..\FreeRTOS\Source/tasks.c **** 
1364:..\FreeRTOS\Source/tasks.c ****         /* Force a reschedule if xTaskResumeAll has not already done so, we may
1365:..\FreeRTOS\Source/tasks.c ****          * have put ourselves to sleep. */
1366:..\FreeRTOS\Source/tasks.c ****         if( xAlreadyYielded == pdFALSE )
 1057              		.loc 1 1366 0
 1058 0038 FB68     		ldr	r3, [r7, #12]
 1059 003a 002B     		cmp	r3, #0
ARM GAS  C:\Users\Jason\AppData\Local\Temp\cclSZdbR.s 			page 44


 1060 003c 01D1     		bne	.L76
1367:..\FreeRTOS\Source/tasks.c ****         {
1368:..\FreeRTOS\Source/tasks.c ****             portYIELD_WITHIN_API();
 1061              		.loc 1 1368 0
 1062 003e FFF7FEFF 		bl	vPortYield
 1063              	.L76:
1369:..\FreeRTOS\Source/tasks.c ****         }
1370:..\FreeRTOS\Source/tasks.c ****         else
1371:..\FreeRTOS\Source/tasks.c ****         {
1372:..\FreeRTOS\Source/tasks.c ****             mtCOVERAGE_TEST_MARKER();
1373:..\FreeRTOS\Source/tasks.c ****         }
1374:..\FreeRTOS\Source/tasks.c ****     }
 1064              		.loc 1 1374 0
 1065 0042 C046     		nop
 1066 0044 BD46     		mov	sp, r7
 1067 0046 04B0     		add	sp, sp, #16
 1068              		@ sp needed
 1069 0048 80BD     		pop	{r7, pc}
 1070              	.L78:
 1071 004a C046     		.align	2
 1072              	.L77:
 1073 004c 00000000 		.word	x
 1074 0050 00010000 		.word	uxSchedulerSuspended
 1075              		.cfi_endproc
 1076              	.LFE6:
 1077              		.size	vTaskDelay, .-vTaskDelay
 1078              		.section	.text.uxTaskPriorityGet,"ax",%progbits
 1079              		.align	2
 1080              		.global	uxTaskPriorityGet
 1081              		.code	16
 1082              		.thumb_func
 1083              		.type	uxTaskPriorityGet, %function
 1084              	uxTaskPriorityGet:
 1085              	.LFB7:
1375:..\FreeRTOS\Source/tasks.c **** 
1376:..\FreeRTOS\Source/tasks.c **** #endif /* INCLUDE_vTaskDelay */
1377:..\FreeRTOS\Source/tasks.c **** /*-----------------------------------------------------------*/
1378:..\FreeRTOS\Source/tasks.c **** 
1379:..\FreeRTOS\Source/tasks.c **** #if ( ( INCLUDE_eTaskGetState == 1 ) || ( configUSE_TRACE_FACILITY == 1 ) || ( INCLUDE_xTaskAbortDe
1380:..\FreeRTOS\Source/tasks.c **** 
1381:..\FreeRTOS\Source/tasks.c ****     eTaskState eTaskGetState( TaskHandle_t xTask )
1382:..\FreeRTOS\Source/tasks.c ****     {
1383:..\FreeRTOS\Source/tasks.c ****         eTaskState eReturn;
1384:..\FreeRTOS\Source/tasks.c ****         List_t const * pxStateList, * pxDelayedList, * pxOverflowedDelayedList;
1385:..\FreeRTOS\Source/tasks.c ****         const TCB_t * const pxTCB = xTask;
1386:..\FreeRTOS\Source/tasks.c **** 
1387:..\FreeRTOS\Source/tasks.c ****         configASSERT( pxTCB );
1388:..\FreeRTOS\Source/tasks.c **** 
1389:..\FreeRTOS\Source/tasks.c ****         if( pxTCB == pxCurrentTCB )
1390:..\FreeRTOS\Source/tasks.c ****         {
1391:..\FreeRTOS\Source/tasks.c ****             /* The task calling this function is querying its own state. */
1392:..\FreeRTOS\Source/tasks.c ****             eReturn = eRunning;
1393:..\FreeRTOS\Source/tasks.c ****         }
1394:..\FreeRTOS\Source/tasks.c ****         else
1395:..\FreeRTOS\Source/tasks.c ****         {
1396:..\FreeRTOS\Source/tasks.c ****             taskENTER_CRITICAL();
1397:..\FreeRTOS\Source/tasks.c ****             {
ARM GAS  C:\Users\Jason\AppData\Local\Temp\cclSZdbR.s 			page 45


1398:..\FreeRTOS\Source/tasks.c ****                 pxStateList = listLIST_ITEM_CONTAINER( &( pxTCB->xStateListItem ) );
1399:..\FreeRTOS\Source/tasks.c ****                 pxDelayedList = pxDelayedTaskList;
1400:..\FreeRTOS\Source/tasks.c ****                 pxOverflowedDelayedList = pxOverflowDelayedTaskList;
1401:..\FreeRTOS\Source/tasks.c ****             }
1402:..\FreeRTOS\Source/tasks.c ****             taskEXIT_CRITICAL();
1403:..\FreeRTOS\Source/tasks.c **** 
1404:..\FreeRTOS\Source/tasks.c ****             if( ( pxStateList == pxDelayedList ) || ( pxStateList == pxOverflowedDelayedList ) )
1405:..\FreeRTOS\Source/tasks.c ****             {
1406:..\FreeRTOS\Source/tasks.c ****                 /* The task being queried is referenced from one of the Blocked
1407:..\FreeRTOS\Source/tasks.c ****                  * lists. */
1408:..\FreeRTOS\Source/tasks.c ****                 eReturn = eBlocked;
1409:..\FreeRTOS\Source/tasks.c ****             }
1410:..\FreeRTOS\Source/tasks.c **** 
1411:..\FreeRTOS\Source/tasks.c ****             #if ( INCLUDE_vTaskSuspend == 1 )
1412:..\FreeRTOS\Source/tasks.c ****                 else if( pxStateList == &xSuspendedTaskList )
1413:..\FreeRTOS\Source/tasks.c ****                 {
1414:..\FreeRTOS\Source/tasks.c ****                     /* The task being queried is referenced from the suspended
1415:..\FreeRTOS\Source/tasks.c ****                      * list.  Is it genuinely suspended or is it blocked
1416:..\FreeRTOS\Source/tasks.c ****                      * indefinitely? */
1417:..\FreeRTOS\Source/tasks.c ****                     if( listLIST_ITEM_CONTAINER( &( pxTCB->xEventListItem ) ) == NULL )
1418:..\FreeRTOS\Source/tasks.c ****                     {
1419:..\FreeRTOS\Source/tasks.c ****                         #if ( configUSE_TASK_NOTIFICATIONS == 1 )
1420:..\FreeRTOS\Source/tasks.c ****                             {
1421:..\FreeRTOS\Source/tasks.c ****                                 BaseType_t x;
1422:..\FreeRTOS\Source/tasks.c **** 
1423:..\FreeRTOS\Source/tasks.c ****                                 /* The task does not appear on the event list item of
1424:..\FreeRTOS\Source/tasks.c ****                                  * and of the RTOS objects, but could still be in the
1425:..\FreeRTOS\Source/tasks.c ****                                  * blocked state if it is waiting on its notification
1426:..\FreeRTOS\Source/tasks.c ****                                  * rather than waiting on an object.  If not, is
1427:..\FreeRTOS\Source/tasks.c ****                                  * suspended. */
1428:..\FreeRTOS\Source/tasks.c ****                                 eReturn = eSuspended;
1429:..\FreeRTOS\Source/tasks.c **** 
1430:..\FreeRTOS\Source/tasks.c ****                                 for( x = 0; x < configTASK_NOTIFICATION_ARRAY_ENTRIES; x++ )
1431:..\FreeRTOS\Source/tasks.c ****                                 {
1432:..\FreeRTOS\Source/tasks.c ****                                     if( pxTCB->ucNotifyState[ x ] == taskWAITING_NOTIFICATION )
1433:..\FreeRTOS\Source/tasks.c ****                                     {
1434:..\FreeRTOS\Source/tasks.c ****                                         eReturn = eBlocked;
1435:..\FreeRTOS\Source/tasks.c ****                                         break;
1436:..\FreeRTOS\Source/tasks.c ****                                     }
1437:..\FreeRTOS\Source/tasks.c ****                                 }
1438:..\FreeRTOS\Source/tasks.c ****                             }
1439:..\FreeRTOS\Source/tasks.c ****                         #else /* if ( configUSE_TASK_NOTIFICATIONS == 1 ) */
1440:..\FreeRTOS\Source/tasks.c ****                             {
1441:..\FreeRTOS\Source/tasks.c ****                                 eReturn = eSuspended;
1442:..\FreeRTOS\Source/tasks.c ****                             }
1443:..\FreeRTOS\Source/tasks.c ****                         #endif /* if ( configUSE_TASK_NOTIFICATIONS == 1 ) */
1444:..\FreeRTOS\Source/tasks.c ****                     }
1445:..\FreeRTOS\Source/tasks.c ****                     else
1446:..\FreeRTOS\Source/tasks.c ****                     {
1447:..\FreeRTOS\Source/tasks.c ****                         eReturn = eBlocked;
1448:..\FreeRTOS\Source/tasks.c ****                     }
1449:..\FreeRTOS\Source/tasks.c ****                 }
1450:..\FreeRTOS\Source/tasks.c ****             #endif /* if ( INCLUDE_vTaskSuspend == 1 ) */
1451:..\FreeRTOS\Source/tasks.c **** 
1452:..\FreeRTOS\Source/tasks.c ****             #if ( INCLUDE_vTaskDelete == 1 )
1453:..\FreeRTOS\Source/tasks.c ****                 else if( ( pxStateList == &xTasksWaitingTermination ) || ( pxStateList == NULL ) )
1454:..\FreeRTOS\Source/tasks.c ****                 {
ARM GAS  C:\Users\Jason\AppData\Local\Temp\cclSZdbR.s 			page 46


1455:..\FreeRTOS\Source/tasks.c ****                     /* The task being queried is referenced from the deleted
1456:..\FreeRTOS\Source/tasks.c ****                      * tasks list, or it is not referenced from any lists at
1457:..\FreeRTOS\Source/tasks.c ****                      * all. */
1458:..\FreeRTOS\Source/tasks.c ****                     eReturn = eDeleted;
1459:..\FreeRTOS\Source/tasks.c ****                 }
1460:..\FreeRTOS\Source/tasks.c ****             #endif
1461:..\FreeRTOS\Source/tasks.c **** 
1462:..\FreeRTOS\Source/tasks.c ****             else /*lint !e525 Negative indentation is intended to make use of pre-processor clearer
1463:..\FreeRTOS\Source/tasks.c ****             {
1464:..\FreeRTOS\Source/tasks.c ****                 /* If the task is not in any other state, it must be in the
1465:..\FreeRTOS\Source/tasks.c ****                  * Ready (including pending ready) state. */
1466:..\FreeRTOS\Source/tasks.c ****                 eReturn = eReady;
1467:..\FreeRTOS\Source/tasks.c ****             }
1468:..\FreeRTOS\Source/tasks.c ****         }
1469:..\FreeRTOS\Source/tasks.c **** 
1470:..\FreeRTOS\Source/tasks.c ****         return eReturn;
1471:..\FreeRTOS\Source/tasks.c ****     } /*lint !e818 xTask cannot be a pointer to const because it is a typedef. */
1472:..\FreeRTOS\Source/tasks.c **** 
1473:..\FreeRTOS\Source/tasks.c **** #endif /* INCLUDE_eTaskGetState */
1474:..\FreeRTOS\Source/tasks.c **** /*-----------------------------------------------------------*/
1475:..\FreeRTOS\Source/tasks.c **** 
1476:..\FreeRTOS\Source/tasks.c **** #if ( INCLUDE_uxTaskPriorityGet == 1 )
1477:..\FreeRTOS\Source/tasks.c **** 
1478:..\FreeRTOS\Source/tasks.c ****     UBaseType_t uxTaskPriorityGet( const TaskHandle_t xTask )
1479:..\FreeRTOS\Source/tasks.c ****     {
 1086              		.loc 1 1479 0
 1087              		.cfi_startproc
 1088              		@ args = 0, pretend = 0, frame = 16
 1089              		@ frame_needed = 1, uses_anonymous_args = 0
 1090 0000 80B5     		push	{r7, lr}
 1091              		.cfi_def_cfa_offset 8
 1092              		.cfi_offset 7, -8
 1093              		.cfi_offset 14, -4
 1094 0002 84B0     		sub	sp, sp, #16
 1095              		.cfi_def_cfa_offset 24
 1096 0004 00AF     		add	r7, sp, #0
 1097              		.cfi_def_cfa_register 7
 1098 0006 7860     		str	r0, [r7, #4]
1480:..\FreeRTOS\Source/tasks.c ****         TCB_t const * pxTCB;
1481:..\FreeRTOS\Source/tasks.c ****         UBaseType_t uxReturn;
1482:..\FreeRTOS\Source/tasks.c **** 
1483:..\FreeRTOS\Source/tasks.c ****         taskENTER_CRITICAL();
 1099              		.loc 1 1483 0
 1100 0008 FFF7FEFF 		bl	vPortEnterCritical
1484:..\FreeRTOS\Source/tasks.c ****         {
1485:..\FreeRTOS\Source/tasks.c ****             /* If null is passed in here then it is the priority of the task
1486:..\FreeRTOS\Source/tasks.c ****              * that called uxTaskPriorityGet() that is being queried. */
1487:..\FreeRTOS\Source/tasks.c ****             pxTCB = prvGetTCBFromHandle( xTask );
 1101              		.loc 1 1487 0
 1102 000c 7B68     		ldr	r3, [r7, #4]
 1103 000e 002B     		cmp	r3, #0
 1104 0010 02D1     		bne	.L80
 1105              		.loc 1 1487 0 is_stmt 0 discriminator 1
 1106 0012 074B     		ldr	r3, .L83
 1107 0014 1B68     		ldr	r3, [r3]
 1108 0016 00E0     		b	.L81
 1109              	.L80:
ARM GAS  C:\Users\Jason\AppData\Local\Temp\cclSZdbR.s 			page 47


 1110              		.loc 1 1487 0 discriminator 2
 1111 0018 7B68     		ldr	r3, [r7, #4]
 1112              	.L81:
 1113              		.loc 1 1487 0 discriminator 4
 1114 001a FB60     		str	r3, [r7, #12]
1488:..\FreeRTOS\Source/tasks.c ****             uxReturn = pxTCB->uxPriority;
 1115              		.loc 1 1488 0 is_stmt 1 discriminator 4
 1116 001c FB68     		ldr	r3, [r7, #12]
 1117 001e DB6A     		ldr	r3, [r3, #44]
 1118 0020 BB60     		str	r3, [r7, #8]
1489:..\FreeRTOS\Source/tasks.c ****         }
1490:..\FreeRTOS\Source/tasks.c ****         taskEXIT_CRITICAL();
 1119              		.loc 1 1490 0 discriminator 4
 1120 0022 FFF7FEFF 		bl	vPortExitCritical
1491:..\FreeRTOS\Source/tasks.c **** 
1492:..\FreeRTOS\Source/tasks.c ****         return uxReturn;
 1121              		.loc 1 1492 0 discriminator 4
 1122 0026 BB68     		ldr	r3, [r7, #8]
1493:..\FreeRTOS\Source/tasks.c ****     }
 1123              		.loc 1 1493 0 discriminator 4
 1124 0028 1800     		movs	r0, r3
 1125 002a BD46     		mov	sp, r7
 1126 002c 04B0     		add	sp, sp, #16
 1127              		@ sp needed
 1128 002e 80BD     		pop	{r7, pc}
 1129              	.L84:
 1130              		.align	2
 1131              	.L83:
 1132 0030 00000000 		.word	pxCurrentTCB
 1133              		.cfi_endproc
 1134              	.LFE7:
 1135              		.size	uxTaskPriorityGet, .-uxTaskPriorityGet
 1136              		.section	.text.uxTaskPriorityGetFromISR,"ax",%progbits
 1137              		.align	2
 1138              		.global	uxTaskPriorityGetFromISR
 1139              		.code	16
 1140              		.thumb_func
 1141              		.type	uxTaskPriorityGetFromISR, %function
 1142              	uxTaskPriorityGetFromISR:
 1143              	.LFB8:
1494:..\FreeRTOS\Source/tasks.c **** 
1495:..\FreeRTOS\Source/tasks.c **** #endif /* INCLUDE_uxTaskPriorityGet */
1496:..\FreeRTOS\Source/tasks.c **** /*-----------------------------------------------------------*/
1497:..\FreeRTOS\Source/tasks.c **** 
1498:..\FreeRTOS\Source/tasks.c **** #if ( INCLUDE_uxTaskPriorityGet == 1 )
1499:..\FreeRTOS\Source/tasks.c **** 
1500:..\FreeRTOS\Source/tasks.c ****     UBaseType_t uxTaskPriorityGetFromISR( const TaskHandle_t xTask )
1501:..\FreeRTOS\Source/tasks.c ****     {
 1144              		.loc 1 1501 0
 1145              		.cfi_startproc
 1146              		@ args = 0, pretend = 0, frame = 24
 1147              		@ frame_needed = 1, uses_anonymous_args = 0
 1148 0000 80B5     		push	{r7, lr}
 1149              		.cfi_def_cfa_offset 8
 1150              		.cfi_offset 7, -8
 1151              		.cfi_offset 14, -4
 1152 0002 86B0     		sub	sp, sp, #24
ARM GAS  C:\Users\Jason\AppData\Local\Temp\cclSZdbR.s 			page 48


 1153              		.cfi_def_cfa_offset 32
 1154 0004 00AF     		add	r7, sp, #0
 1155              		.cfi_def_cfa_register 7
 1156 0006 7860     		str	r0, [r7, #4]
1502:..\FreeRTOS\Source/tasks.c ****         TCB_t const * pxTCB;
1503:..\FreeRTOS\Source/tasks.c ****         UBaseType_t uxReturn, uxSavedInterruptState;
1504:..\FreeRTOS\Source/tasks.c **** 
1505:..\FreeRTOS\Source/tasks.c ****         /* RTOS ports that support interrupt nesting have the concept of a
1506:..\FreeRTOS\Source/tasks.c ****          * maximum  system call (or maximum API call) interrupt priority.
1507:..\FreeRTOS\Source/tasks.c ****          * Interrupts that are  above the maximum system call priority are keep
1508:..\FreeRTOS\Source/tasks.c ****          * permanently enabled, even when the RTOS kernel is in a critical section,
1509:..\FreeRTOS\Source/tasks.c ****          * but cannot make any calls to FreeRTOS API functions.  If configASSERT()
1510:..\FreeRTOS\Source/tasks.c ****          * is defined in FreeRTOSConfig.h then
1511:..\FreeRTOS\Source/tasks.c ****          * portASSERT_IF_INTERRUPT_PRIORITY_INVALID() will result in an assertion
1512:..\FreeRTOS\Source/tasks.c ****          * failure if a FreeRTOS API function is called from an interrupt that has
1513:..\FreeRTOS\Source/tasks.c ****          * been assigned a priority above the configured maximum system call
1514:..\FreeRTOS\Source/tasks.c ****          * priority.  Only FreeRTOS functions that end in FromISR can be called
1515:..\FreeRTOS\Source/tasks.c ****          * from interrupts  that have been assigned a priority at or (logically)
1516:..\FreeRTOS\Source/tasks.c ****          * below the maximum system call interrupt priority.  FreeRTOS maintains a
1517:..\FreeRTOS\Source/tasks.c ****          * separate interrupt safe API to ensure interrupt entry is as fast and as
1518:..\FreeRTOS\Source/tasks.c ****          * simple as possible.  More information (albeit Cortex-M specific) is
1519:..\FreeRTOS\Source/tasks.c ****          * provided on the following link:
1520:..\FreeRTOS\Source/tasks.c ****          * https://www.FreeRTOS.org/RTOS-Cortex-M3-M4.html */
1521:..\FreeRTOS\Source/tasks.c ****         portASSERT_IF_INTERRUPT_PRIORITY_INVALID();
1522:..\FreeRTOS\Source/tasks.c **** 
1523:..\FreeRTOS\Source/tasks.c ****         uxSavedInterruptState = portSET_INTERRUPT_MASK_FROM_ISR();
 1157              		.loc 1 1523 0
 1158 0008 FFF7FEFF 		bl	ulSetInterruptMaskFromISR
 1159 000c 0300     		movs	r3, r0
 1160 000e 7B61     		str	r3, [r7, #20]
1524:..\FreeRTOS\Source/tasks.c ****         {
1525:..\FreeRTOS\Source/tasks.c ****             /* If null is passed in here then it is the priority of the calling
1526:..\FreeRTOS\Source/tasks.c ****              * task that is being queried. */
1527:..\FreeRTOS\Source/tasks.c ****             pxTCB = prvGetTCBFromHandle( xTask );
 1161              		.loc 1 1527 0
 1162 0010 7B68     		ldr	r3, [r7, #4]
 1163 0012 002B     		cmp	r3, #0
 1164 0014 02D1     		bne	.L86
 1165              		.loc 1 1527 0 is_stmt 0 discriminator 1
 1166 0016 084B     		ldr	r3, .L89
 1167 0018 1B68     		ldr	r3, [r3]
 1168 001a 00E0     		b	.L87
 1169              	.L86:
 1170              		.loc 1 1527 0 discriminator 2
 1171 001c 7B68     		ldr	r3, [r7, #4]
 1172              	.L87:
 1173              		.loc 1 1527 0 discriminator 4
 1174 001e 3B61     		str	r3, [r7, #16]
1528:..\FreeRTOS\Source/tasks.c ****             uxReturn = pxTCB->uxPriority;
 1175              		.loc 1 1528 0 is_stmt 1 discriminator 4
 1176 0020 3B69     		ldr	r3, [r7, #16]
 1177 0022 DB6A     		ldr	r3, [r3, #44]
 1178 0024 FB60     		str	r3, [r7, #12]
1529:..\FreeRTOS\Source/tasks.c ****         }
1530:..\FreeRTOS\Source/tasks.c ****         portCLEAR_INTERRUPT_MASK_FROM_ISR( uxSavedInterruptState );
 1179              		.loc 1 1530 0 discriminator 4
 1180 0026 7B69     		ldr	r3, [r7, #20]
ARM GAS  C:\Users\Jason\AppData\Local\Temp\cclSZdbR.s 			page 49


 1181 0028 1800     		movs	r0, r3
 1182 002a FFF7FEFF 		bl	vClearInterruptMaskFromISR
1531:..\FreeRTOS\Source/tasks.c **** 
1532:..\FreeRTOS\Source/tasks.c ****         return uxReturn;
 1183              		.loc 1 1532 0 discriminator 4
 1184 002e FB68     		ldr	r3, [r7, #12]
1533:..\FreeRTOS\Source/tasks.c ****     }
 1185              		.loc 1 1533 0 discriminator 4
 1186 0030 1800     		movs	r0, r3
 1187 0032 BD46     		mov	sp, r7
 1188 0034 06B0     		add	sp, sp, #24
 1189              		@ sp needed
 1190 0036 80BD     		pop	{r7, pc}
 1191              	.L90:
 1192              		.align	2
 1193              	.L89:
 1194 0038 00000000 		.word	pxCurrentTCB
 1195              		.cfi_endproc
 1196              	.LFE8:
 1197              		.size	uxTaskPriorityGetFromISR, .-uxTaskPriorityGetFromISR
 1198              		.section	.text.vTaskPrioritySet,"ax",%progbits
 1199              		.align	2
 1200              		.global	vTaskPrioritySet
 1201              		.code	16
 1202              		.thumb_func
 1203              		.type	vTaskPrioritySet, %function
 1204              	vTaskPrioritySet:
 1205              	.LFB9:
1534:..\FreeRTOS\Source/tasks.c **** 
1535:..\FreeRTOS\Source/tasks.c **** #endif /* INCLUDE_uxTaskPriorityGet */
1536:..\FreeRTOS\Source/tasks.c **** /*-----------------------------------------------------------*/
1537:..\FreeRTOS\Source/tasks.c **** 
1538:..\FreeRTOS\Source/tasks.c **** #if ( INCLUDE_vTaskPrioritySet == 1 )
1539:..\FreeRTOS\Source/tasks.c **** 
1540:..\FreeRTOS\Source/tasks.c ****     void vTaskPrioritySet( TaskHandle_t xTask,
1541:..\FreeRTOS\Source/tasks.c ****                            UBaseType_t uxNewPriority )
1542:..\FreeRTOS\Source/tasks.c ****     {
 1206              		.loc 1 1542 0
 1207              		.cfi_startproc
 1208              		@ args = 0, pretend = 0, frame = 24
 1209              		@ frame_needed = 1, uses_anonymous_args = 0
 1210 0000 80B5     		push	{r7, lr}
 1211              		.cfi_def_cfa_offset 8
 1212              		.cfi_offset 7, -8
 1213              		.cfi_offset 14, -4
 1214 0002 86B0     		sub	sp, sp, #24
 1215              		.cfi_def_cfa_offset 32
 1216 0004 00AF     		add	r7, sp, #0
 1217              		.cfi_def_cfa_register 7
 1218 0006 7860     		str	r0, [r7, #4]
 1219 0008 3960     		str	r1, [r7]
1543:..\FreeRTOS\Source/tasks.c ****         TCB_t * pxTCB;
1544:..\FreeRTOS\Source/tasks.c ****         UBaseType_t uxCurrentBasePriority, uxPriorityUsedOnEntry;
1545:..\FreeRTOS\Source/tasks.c ****         BaseType_t xYieldRequired = pdFALSE;
 1220              		.loc 1 1545 0
 1221 000a 0023     		movs	r3, #0
 1222 000c 7B61     		str	r3, [r7, #20]
ARM GAS  C:\Users\Jason\AppData\Local\Temp\cclSZdbR.s 			page 50


1546:..\FreeRTOS\Source/tasks.c **** 
1547:..\FreeRTOS\Source/tasks.c ****         configASSERT( ( uxNewPriority < configMAX_PRIORITIES ) );
 1223              		.loc 1 1547 0
 1224 000e 3B4B     		ldr	r3, .L103
 1225 0010 1B88     		ldrh	r3, [r3]
 1226 0012 002B     		cmp	r3, #0
 1227 0014 01D1     		bne	.L92
 1228              		.loc 1 1547 0 is_stmt 0 discriminator 1
 1229              		.syntax divided
 1230              	@ 1547 "..\FreeRTOS\Source\tasks.c" 1
 1231 0016 72B6     		 cpsid i 
 1232              	@ 0 "" 2
 1233              		.thumb
 1234              		.syntax unified
 1235              	.L93:
 1236 0018 FEE7     		b	.L93
 1237              	.L92:
1548:..\FreeRTOS\Source/tasks.c **** 
1549:..\FreeRTOS\Source/tasks.c ****         /* Ensure the new priority is valid. */
1550:..\FreeRTOS\Source/tasks.c ****         if( uxNewPriority >= ( UBaseType_t ) configMAX_PRIORITIES )
 1238              		.loc 1 1550 0 is_stmt 1
 1239 001a 3B68     		ldr	r3, [r7]
 1240 001c 042B     		cmp	r3, #4
 1241 001e 01D9     		bls	.L94
1551:..\FreeRTOS\Source/tasks.c ****         {
1552:..\FreeRTOS\Source/tasks.c ****             uxNewPriority = ( UBaseType_t ) configMAX_PRIORITIES - ( UBaseType_t ) 1U;
 1242              		.loc 1 1552 0
 1243 0020 0423     		movs	r3, #4
 1244 0022 3B60     		str	r3, [r7]
 1245              	.L94:
1553:..\FreeRTOS\Source/tasks.c ****         }
1554:..\FreeRTOS\Source/tasks.c ****         else
1555:..\FreeRTOS\Source/tasks.c ****         {
1556:..\FreeRTOS\Source/tasks.c ****             mtCOVERAGE_TEST_MARKER();
1557:..\FreeRTOS\Source/tasks.c ****         }
1558:..\FreeRTOS\Source/tasks.c **** 
1559:..\FreeRTOS\Source/tasks.c ****         taskENTER_CRITICAL();
 1246              		.loc 1 1559 0
 1247 0024 FFF7FEFF 		bl	vPortEnterCritical
1560:..\FreeRTOS\Source/tasks.c ****         {
1561:..\FreeRTOS\Source/tasks.c ****             /* If null is passed in here then it is the priority of the calling
1562:..\FreeRTOS\Source/tasks.c ****              * task that is being changed. */
1563:..\FreeRTOS\Source/tasks.c ****             pxTCB = prvGetTCBFromHandle( xTask );
 1248              		.loc 1 1563 0
 1249 0028 7B68     		ldr	r3, [r7, #4]
 1250 002a 002B     		cmp	r3, #0
 1251 002c 02D1     		bne	.L95
 1252              		.loc 1 1563 0 is_stmt 0 discriminator 1
 1253 002e 344B     		ldr	r3, .L103+4
 1254 0030 1B68     		ldr	r3, [r3]
 1255 0032 00E0     		b	.L96
 1256              	.L95:
 1257              		.loc 1 1563 0 discriminator 2
 1258 0034 7B68     		ldr	r3, [r7, #4]
 1259              	.L96:
 1260              		.loc 1 1563 0 discriminator 4
 1261 0036 3B61     		str	r3, [r7, #16]
ARM GAS  C:\Users\Jason\AppData\Local\Temp\cclSZdbR.s 			page 51


1564:..\FreeRTOS\Source/tasks.c **** 
1565:..\FreeRTOS\Source/tasks.c ****             traceTASK_PRIORITY_SET( pxTCB, uxNewPriority );
1566:..\FreeRTOS\Source/tasks.c **** 
1567:..\FreeRTOS\Source/tasks.c ****             #if ( configUSE_MUTEXES == 1 )
1568:..\FreeRTOS\Source/tasks.c ****                 {
1569:..\FreeRTOS\Source/tasks.c ****                     uxCurrentBasePriority = pxTCB->uxBasePriority;
1570:..\FreeRTOS\Source/tasks.c ****                 }
1571:..\FreeRTOS\Source/tasks.c ****             #else
1572:..\FreeRTOS\Source/tasks.c ****                 {
1573:..\FreeRTOS\Source/tasks.c ****                     uxCurrentBasePriority = pxTCB->uxPriority;
 1262              		.loc 1 1573 0 is_stmt 1 discriminator 4
 1263 0038 3B69     		ldr	r3, [r7, #16]
 1264 003a DB6A     		ldr	r3, [r3, #44]
 1265 003c FB60     		str	r3, [r7, #12]
1574:..\FreeRTOS\Source/tasks.c ****                 }
1575:..\FreeRTOS\Source/tasks.c ****             #endif
1576:..\FreeRTOS\Source/tasks.c **** 
1577:..\FreeRTOS\Source/tasks.c ****             if( uxCurrentBasePriority != uxNewPriority )
 1266              		.loc 1 1577 0 discriminator 4
 1267 003e FA68     		ldr	r2, [r7, #12]
 1268 0040 3B68     		ldr	r3, [r7]
 1269 0042 9A42     		cmp	r2, r3
 1270 0044 54D0     		beq	.L97
1578:..\FreeRTOS\Source/tasks.c ****             {
1579:..\FreeRTOS\Source/tasks.c ****                 /* The priority change may have readied a task of higher
1580:..\FreeRTOS\Source/tasks.c ****                  * priority than the calling task. */
1581:..\FreeRTOS\Source/tasks.c ****                 if( uxNewPriority > uxCurrentBasePriority )
 1271              		.loc 1 1581 0
 1272 0046 3A68     		ldr	r2, [r7]
 1273 0048 FB68     		ldr	r3, [r7, #12]
 1274 004a 9A42     		cmp	r2, r3
 1275 004c 0DD9     		bls	.L98
1582:..\FreeRTOS\Source/tasks.c ****                 {
1583:..\FreeRTOS\Source/tasks.c ****                     if( pxTCB != pxCurrentTCB )
 1276              		.loc 1 1583 0
 1277 004e 2C4B     		ldr	r3, .L103+4
 1278 0050 1B68     		ldr	r3, [r3]
 1279 0052 3A69     		ldr	r2, [r7, #16]
 1280 0054 9A42     		cmp	r2, r3
 1281 0056 0FD0     		beq	.L99
1584:..\FreeRTOS\Source/tasks.c ****                     {
1585:..\FreeRTOS\Source/tasks.c ****                         /* The priority of a task other than the currently
1586:..\FreeRTOS\Source/tasks.c ****                          * running task is being raised.  Is the priority being
1587:..\FreeRTOS\Source/tasks.c ****                          * raised above that of the running task? */
1588:..\FreeRTOS\Source/tasks.c ****                         if( uxNewPriority >= pxCurrentTCB->uxPriority )
 1282              		.loc 1 1588 0
 1283 0058 294B     		ldr	r3, .L103+4
 1284 005a 1B68     		ldr	r3, [r3]
 1285 005c DA6A     		ldr	r2, [r3, #44]
 1286 005e 3B68     		ldr	r3, [r7]
 1287 0060 9A42     		cmp	r2, r3
 1288 0062 09D8     		bhi	.L99
1589:..\FreeRTOS\Source/tasks.c ****                         {
1590:..\FreeRTOS\Source/tasks.c ****                             xYieldRequired = pdTRUE;
 1289              		.loc 1 1590 0
 1290 0064 0123     		movs	r3, #1
 1291 0066 7B61     		str	r3, [r7, #20]
ARM GAS  C:\Users\Jason\AppData\Local\Temp\cclSZdbR.s 			page 52


 1292 0068 06E0     		b	.L99
 1293              	.L98:
1591:..\FreeRTOS\Source/tasks.c ****                         }
1592:..\FreeRTOS\Source/tasks.c ****                         else
1593:..\FreeRTOS\Source/tasks.c ****                         {
1594:..\FreeRTOS\Source/tasks.c ****                             mtCOVERAGE_TEST_MARKER();
1595:..\FreeRTOS\Source/tasks.c ****                         }
1596:..\FreeRTOS\Source/tasks.c ****                     }
1597:..\FreeRTOS\Source/tasks.c ****                     else
1598:..\FreeRTOS\Source/tasks.c ****                     {
1599:..\FreeRTOS\Source/tasks.c ****                         /* The priority of the running task is being raised,
1600:..\FreeRTOS\Source/tasks.c ****                          * but the running task must already be the highest
1601:..\FreeRTOS\Source/tasks.c ****                          * priority task able to run so no yield is required. */
1602:..\FreeRTOS\Source/tasks.c ****                     }
1603:..\FreeRTOS\Source/tasks.c ****                 }
1604:..\FreeRTOS\Source/tasks.c ****                 else if( pxTCB == pxCurrentTCB )
 1294              		.loc 1 1604 0
 1295 006a 254B     		ldr	r3, .L103+4
 1296 006c 1B68     		ldr	r3, [r3]
 1297 006e 3A69     		ldr	r2, [r7, #16]
 1298 0070 9A42     		cmp	r2, r3
 1299 0072 01D1     		bne	.L99
1605:..\FreeRTOS\Source/tasks.c ****                 {
1606:..\FreeRTOS\Source/tasks.c ****                     /* Setting the priority of the running task down means
1607:..\FreeRTOS\Source/tasks.c ****                      * there may now be another task of higher priority that
1608:..\FreeRTOS\Source/tasks.c ****                      * is ready to execute. */
1609:..\FreeRTOS\Source/tasks.c ****                     xYieldRequired = pdTRUE;
 1300              		.loc 1 1609 0
 1301 0074 0123     		movs	r3, #1
 1302 0076 7B61     		str	r3, [r7, #20]
 1303              	.L99:
1610:..\FreeRTOS\Source/tasks.c ****                 }
1611:..\FreeRTOS\Source/tasks.c ****                 else
1612:..\FreeRTOS\Source/tasks.c ****                 {
1613:..\FreeRTOS\Source/tasks.c ****                     /* Setting the priority of any other task down does not
1614:..\FreeRTOS\Source/tasks.c ****                      * require a yield as the running task must be above the
1615:..\FreeRTOS\Source/tasks.c ****                      * new priority of the task being modified. */
1616:..\FreeRTOS\Source/tasks.c ****                 }
1617:..\FreeRTOS\Source/tasks.c **** 
1618:..\FreeRTOS\Source/tasks.c ****                 /* Remember the ready list the task might be referenced from
1619:..\FreeRTOS\Source/tasks.c ****                  * before its uxPriority member is changed so the
1620:..\FreeRTOS\Source/tasks.c ****                  * taskRESET_READY_PRIORITY() macro can function correctly. */
1621:..\FreeRTOS\Source/tasks.c ****                 uxPriorityUsedOnEntry = pxTCB->uxPriority;
 1304              		.loc 1 1621 0
 1305 0078 3B69     		ldr	r3, [r7, #16]
 1306 007a DB6A     		ldr	r3, [r3, #44]
 1307 007c BB60     		str	r3, [r7, #8]
1622:..\FreeRTOS\Source/tasks.c **** 
1623:..\FreeRTOS\Source/tasks.c ****                 #if ( configUSE_MUTEXES == 1 )
1624:..\FreeRTOS\Source/tasks.c ****                     {
1625:..\FreeRTOS\Source/tasks.c ****                         /* Only change the priority being used if the task is not
1626:..\FreeRTOS\Source/tasks.c ****                          * currently using an inherited priority. */
1627:..\FreeRTOS\Source/tasks.c ****                         if( pxTCB->uxBasePriority == pxTCB->uxPriority )
1628:..\FreeRTOS\Source/tasks.c ****                         {
1629:..\FreeRTOS\Source/tasks.c ****                             pxTCB->uxPriority = uxNewPriority;
1630:..\FreeRTOS\Source/tasks.c ****                         }
1631:..\FreeRTOS\Source/tasks.c ****                         else
ARM GAS  C:\Users\Jason\AppData\Local\Temp\cclSZdbR.s 			page 53


1632:..\FreeRTOS\Source/tasks.c ****                         {
1633:..\FreeRTOS\Source/tasks.c ****                             mtCOVERAGE_TEST_MARKER();
1634:..\FreeRTOS\Source/tasks.c ****                         }
1635:..\FreeRTOS\Source/tasks.c **** 
1636:..\FreeRTOS\Source/tasks.c ****                         /* The base priority gets set whatever. */
1637:..\FreeRTOS\Source/tasks.c ****                         pxTCB->uxBasePriority = uxNewPriority;
1638:..\FreeRTOS\Source/tasks.c ****                     }
1639:..\FreeRTOS\Source/tasks.c ****                 #else /* if ( configUSE_MUTEXES == 1 ) */
1640:..\FreeRTOS\Source/tasks.c ****                     {
1641:..\FreeRTOS\Source/tasks.c ****                         pxTCB->uxPriority = uxNewPriority;
 1308              		.loc 1 1641 0
 1309 007e 3B69     		ldr	r3, [r7, #16]
 1310 0080 3A68     		ldr	r2, [r7]
 1311 0082 DA62     		str	r2, [r3, #44]
1642:..\FreeRTOS\Source/tasks.c ****                     }
1643:..\FreeRTOS\Source/tasks.c ****                 #endif /* if ( configUSE_MUTEXES == 1 ) */
1644:..\FreeRTOS\Source/tasks.c **** 
1645:..\FreeRTOS\Source/tasks.c ****                 /* Only reset the event list item value if the value is not
1646:..\FreeRTOS\Source/tasks.c ****                  * being used for anything else. */
1647:..\FreeRTOS\Source/tasks.c ****                 if( ( listGET_LIST_ITEM_VALUE( &( pxTCB->xEventListItem ) ) & taskEVENT_LIST_ITEM_V
 1312              		.loc 1 1647 0
 1313 0084 3B69     		ldr	r3, [r7, #16]
 1314 0086 9B69     		ldr	r3, [r3, #24]
 1315 0088 002B     		cmp	r3, #0
 1316 008a 04DB     		blt	.L100
1648:..\FreeRTOS\Source/tasks.c ****                 {
1649:..\FreeRTOS\Source/tasks.c ****                     listSET_LIST_ITEM_VALUE( &( pxTCB->xEventListItem ), ( ( TickType_t ) configMAX
 1317              		.loc 1 1649 0
 1318 008c 3B68     		ldr	r3, [r7]
 1319 008e 0522     		movs	r2, #5
 1320 0090 D21A     		subs	r2, r2, r3
 1321 0092 3B69     		ldr	r3, [r7, #16]
 1322 0094 9A61     		str	r2, [r3, #24]
 1323              	.L100:
1650:..\FreeRTOS\Source/tasks.c ****                 }
1651:..\FreeRTOS\Source/tasks.c ****                 else
1652:..\FreeRTOS\Source/tasks.c ****                 {
1653:..\FreeRTOS\Source/tasks.c ****                     mtCOVERAGE_TEST_MARKER();
1654:..\FreeRTOS\Source/tasks.c ****                 }
1655:..\FreeRTOS\Source/tasks.c **** 
1656:..\FreeRTOS\Source/tasks.c ****                 /* If the task is in the blocked or suspended list we need do
1657:..\FreeRTOS\Source/tasks.c ****                  * nothing more than change its priority variable. However, if
1658:..\FreeRTOS\Source/tasks.c ****                  * the task is in a ready list it needs to be removed and placed
1659:..\FreeRTOS\Source/tasks.c ****                  * in the list appropriate to its new priority. */
1660:..\FreeRTOS\Source/tasks.c ****                 if( listIS_CONTAINED_WITHIN( &( pxReadyTasksLists[ uxPriorityUsedOnEntry ] ), &( px
 1324              		.loc 1 1660 0
 1325 0096 3B69     		ldr	r3, [r7, #16]
 1326 0098 5969     		ldr	r1, [r3, #20]
 1327 009a BA68     		ldr	r2, [r7, #8]
 1328 009c 1300     		movs	r3, r2
 1329 009e 9B00     		lsls	r3, r3, #2
 1330 00a0 9B18     		adds	r3, r3, r2
 1331 00a2 9B00     		lsls	r3, r3, #2
 1332 00a4 174A     		ldr	r2, .L103+8
 1333 00a6 9B18     		adds	r3, r3, r2
 1334 00a8 9942     		cmp	r1, r3
 1335 00aa 1CD1     		bne	.L101
ARM GAS  C:\Users\Jason\AppData\Local\Temp\cclSZdbR.s 			page 54


1661:..\FreeRTOS\Source/tasks.c ****                 {
1662:..\FreeRTOS\Source/tasks.c ****                     /* The task is currently in its ready list - remove before
1663:..\FreeRTOS\Source/tasks.c ****                      * adding it to it's new ready list.  As we are in a critical
1664:..\FreeRTOS\Source/tasks.c ****                      * section we can do this even if the scheduler is suspended. */
1665:..\FreeRTOS\Source/tasks.c ****                     if( uxListRemove( &( pxTCB->xStateListItem ) ) == ( UBaseType_t ) 0 )
 1336              		.loc 1 1665 0
 1337 00ac 3B69     		ldr	r3, [r7, #16]
 1338 00ae 0433     		adds	r3, r3, #4
 1339 00b0 1800     		movs	r0, r3
 1340 00b2 FFF7FEFF 		bl	uxListRemove
1666:..\FreeRTOS\Source/tasks.c ****                     {
1667:..\FreeRTOS\Source/tasks.c ****                         /* It is known that the task is in its ready list so
1668:..\FreeRTOS\Source/tasks.c ****                          * there is no need to check again and the port level
1669:..\FreeRTOS\Source/tasks.c ****                          * reset macro can be called directly. */
1670:..\FreeRTOS\Source/tasks.c ****                         portRESET_READY_PRIORITY( uxPriorityUsedOnEntry, uxTopReadyPriority );
1671:..\FreeRTOS\Source/tasks.c ****                     }
1672:..\FreeRTOS\Source/tasks.c ****                     else
1673:..\FreeRTOS\Source/tasks.c ****                     {
1674:..\FreeRTOS\Source/tasks.c ****                         mtCOVERAGE_TEST_MARKER();
1675:..\FreeRTOS\Source/tasks.c ****                     }
1676:..\FreeRTOS\Source/tasks.c **** 
1677:..\FreeRTOS\Source/tasks.c ****                     prvAddTaskToReadyList( pxTCB );
 1341              		.loc 1 1677 0
 1342 00b6 3B69     		ldr	r3, [r7, #16]
 1343 00b8 DA6A     		ldr	r2, [r3, #44]
 1344 00ba 134B     		ldr	r3, .L103+12
 1345 00bc 1B68     		ldr	r3, [r3]
 1346 00be 9A42     		cmp	r2, r3
 1347 00c0 03D9     		bls	.L102
 1348              		.loc 1 1677 0 is_stmt 0 discriminator 1
 1349 00c2 3B69     		ldr	r3, [r7, #16]
 1350 00c4 DA6A     		ldr	r2, [r3, #44]
 1351 00c6 104B     		ldr	r3, .L103+12
 1352 00c8 1A60     		str	r2, [r3]
 1353              	.L102:
 1354              		.loc 1 1677 0 discriminator 3
 1355 00ca 3B69     		ldr	r3, [r7, #16]
 1356 00cc DA6A     		ldr	r2, [r3, #44]
 1357 00ce 1300     		movs	r3, r2
 1358 00d0 9B00     		lsls	r3, r3, #2
 1359 00d2 9B18     		adds	r3, r3, r2
 1360 00d4 9B00     		lsls	r3, r3, #2
 1361 00d6 0B4A     		ldr	r2, .L103+8
 1362 00d8 9A18     		adds	r2, r3, r2
 1363 00da 3B69     		ldr	r3, [r7, #16]
 1364 00dc 0433     		adds	r3, r3, #4
 1365 00de 1900     		movs	r1, r3
 1366 00e0 1000     		movs	r0, r2
 1367 00e2 FFF7FEFF 		bl	vListInsertEnd
 1368              	.L101:
1678:..\FreeRTOS\Source/tasks.c ****                 }
1679:..\FreeRTOS\Source/tasks.c ****                 else
1680:..\FreeRTOS\Source/tasks.c ****                 {
1681:..\FreeRTOS\Source/tasks.c ****                     mtCOVERAGE_TEST_MARKER();
1682:..\FreeRTOS\Source/tasks.c ****                 }
1683:..\FreeRTOS\Source/tasks.c **** 
1684:..\FreeRTOS\Source/tasks.c ****                 if( xYieldRequired != pdFALSE )
ARM GAS  C:\Users\Jason\AppData\Local\Temp\cclSZdbR.s 			page 55


 1369              		.loc 1 1684 0 is_stmt 1
 1370 00e6 7B69     		ldr	r3, [r7, #20]
 1371 00e8 002B     		cmp	r3, #0
 1372 00ea 01D0     		beq	.L97
1685:..\FreeRTOS\Source/tasks.c ****                 {
1686:..\FreeRTOS\Source/tasks.c ****                     taskYIELD_IF_USING_PREEMPTION();
 1373              		.loc 1 1686 0
 1374 00ec FFF7FEFF 		bl	vPortYield
 1375              	.L97:
1687:..\FreeRTOS\Source/tasks.c ****                 }
1688:..\FreeRTOS\Source/tasks.c ****                 else
1689:..\FreeRTOS\Source/tasks.c ****                 {
1690:..\FreeRTOS\Source/tasks.c ****                     mtCOVERAGE_TEST_MARKER();
1691:..\FreeRTOS\Source/tasks.c ****                 }
1692:..\FreeRTOS\Source/tasks.c **** 
1693:..\FreeRTOS\Source/tasks.c ****                 /* Remove compiler warning about unused variables when the port
1694:..\FreeRTOS\Source/tasks.c ****                  * optimised task selection is not being used. */
1695:..\FreeRTOS\Source/tasks.c ****                 ( void ) uxPriorityUsedOnEntry;
1696:..\FreeRTOS\Source/tasks.c ****             }
1697:..\FreeRTOS\Source/tasks.c ****         }
1698:..\FreeRTOS\Source/tasks.c ****         taskEXIT_CRITICAL();
 1376              		.loc 1 1698 0
 1377 00f0 FFF7FEFF 		bl	vPortExitCritical
1699:..\FreeRTOS\Source/tasks.c ****     }
 1378              		.loc 1 1699 0
 1379 00f4 C046     		nop
 1380 00f6 BD46     		mov	sp, r7
 1381 00f8 06B0     		add	sp, sp, #24
 1382              		@ sp needed
 1383 00fa 80BD     		pop	{r7, pc}
 1384              	.L104:
 1385              		.align	2
 1386              	.L103:
 1387 00fc 00000000 		.word	x
 1388 0100 00000000 		.word	pxCurrentTCB
 1389 0104 04000000 		.word	pxReadyTasksLists
 1390 0108 E0000000 		.word	uxTopReadyPriority
 1391              		.cfi_endproc
 1392              	.LFE9:
 1393              		.size	vTaskPrioritySet, .-vTaskPrioritySet
 1394              		.section	.text.vTaskSuspend,"ax",%progbits
 1395              		.align	2
 1396              		.global	vTaskSuspend
 1397              		.code	16
 1398              		.thumb_func
 1399              		.type	vTaskSuspend, %function
 1400              	vTaskSuspend:
 1401              	.LFB10:
1700:..\FreeRTOS\Source/tasks.c **** 
1701:..\FreeRTOS\Source/tasks.c **** #endif /* INCLUDE_vTaskPrioritySet */
1702:..\FreeRTOS\Source/tasks.c **** /*-----------------------------------------------------------*/
1703:..\FreeRTOS\Source/tasks.c **** 
1704:..\FreeRTOS\Source/tasks.c **** #if ( INCLUDE_vTaskSuspend == 1 )
1705:..\FreeRTOS\Source/tasks.c **** 
1706:..\FreeRTOS\Source/tasks.c ****     void vTaskSuspend( TaskHandle_t xTaskToSuspend )
1707:..\FreeRTOS\Source/tasks.c ****     {
 1402              		.loc 1 1707 0
ARM GAS  C:\Users\Jason\AppData\Local\Temp\cclSZdbR.s 			page 56


 1403              		.cfi_startproc
 1404              		@ args = 0, pretend = 0, frame = 16
 1405              		@ frame_needed = 1, uses_anonymous_args = 0
 1406 0000 80B5     		push	{r7, lr}
 1407              		.cfi_def_cfa_offset 8
 1408              		.cfi_offset 7, -8
 1409              		.cfi_offset 14, -4
 1410 0002 84B0     		sub	sp, sp, #16
 1411              		.cfi_def_cfa_offset 24
 1412 0004 00AF     		add	r7, sp, #0
 1413              		.cfi_def_cfa_register 7
 1414 0006 7860     		str	r0, [r7, #4]
1708:..\FreeRTOS\Source/tasks.c ****         TCB_t * pxTCB;
1709:..\FreeRTOS\Source/tasks.c **** 
1710:..\FreeRTOS\Source/tasks.c ****         taskENTER_CRITICAL();
 1415              		.loc 1 1710 0
 1416 0008 FFF7FEFF 		bl	vPortEnterCritical
1711:..\FreeRTOS\Source/tasks.c ****         {
1712:..\FreeRTOS\Source/tasks.c ****             /* If null is passed in here then it is the running task that is
1713:..\FreeRTOS\Source/tasks.c ****              * being suspended. */
1714:..\FreeRTOS\Source/tasks.c ****             pxTCB = prvGetTCBFromHandle( xTaskToSuspend );
 1417              		.loc 1 1714 0
 1418 000c 7B68     		ldr	r3, [r7, #4]
 1419 000e 002B     		cmp	r3, #0
 1420 0010 02D1     		bne	.L106
 1421              		.loc 1 1714 0 is_stmt 0 discriminator 1
 1422 0012 314B     		ldr	r3, .L120
 1423 0014 1B68     		ldr	r3, [r3]
 1424 0016 00E0     		b	.L107
 1425              	.L106:
 1426              		.loc 1 1714 0 discriminator 2
 1427 0018 7B68     		ldr	r3, [r7, #4]
 1428              	.L107:
 1429              		.loc 1 1714 0 discriminator 4
 1430 001a BB60     		str	r3, [r7, #8]
1715:..\FreeRTOS\Source/tasks.c **** 
1716:..\FreeRTOS\Source/tasks.c ****             traceTASK_SUSPEND( pxTCB );
1717:..\FreeRTOS\Source/tasks.c **** 
1718:..\FreeRTOS\Source/tasks.c ****             /* Remove task from the ready/delayed list and place in the
1719:..\FreeRTOS\Source/tasks.c ****              * suspended list. */
1720:..\FreeRTOS\Source/tasks.c ****             if( uxListRemove( &( pxTCB->xStateListItem ) ) == ( UBaseType_t ) 0 )
 1431              		.loc 1 1720 0 is_stmt 1 discriminator 4
 1432 001c BB68     		ldr	r3, [r7, #8]
 1433 001e 0433     		adds	r3, r3, #4
 1434 0020 1800     		movs	r0, r3
 1435 0022 FFF7FEFF 		bl	uxListRemove
1721:..\FreeRTOS\Source/tasks.c ****             {
1722:..\FreeRTOS\Source/tasks.c ****                 taskRESET_READY_PRIORITY( pxTCB->uxPriority );
1723:..\FreeRTOS\Source/tasks.c ****             }
1724:..\FreeRTOS\Source/tasks.c ****             else
1725:..\FreeRTOS\Source/tasks.c ****             {
1726:..\FreeRTOS\Source/tasks.c ****                 mtCOVERAGE_TEST_MARKER();
1727:..\FreeRTOS\Source/tasks.c ****             }
1728:..\FreeRTOS\Source/tasks.c **** 
1729:..\FreeRTOS\Source/tasks.c ****             /* Is the task waiting on an event also? */
1730:..\FreeRTOS\Source/tasks.c ****             if( listLIST_ITEM_CONTAINER( &( pxTCB->xEventListItem ) ) != NULL )
 1436              		.loc 1 1730 0 discriminator 4
ARM GAS  C:\Users\Jason\AppData\Local\Temp\cclSZdbR.s 			page 57


 1437 0026 BB68     		ldr	r3, [r7, #8]
 1438 0028 9B6A     		ldr	r3, [r3, #40]
 1439 002a 002B     		cmp	r3, #0
 1440 002c 04D0     		beq	.L108
1731:..\FreeRTOS\Source/tasks.c ****             {
1732:..\FreeRTOS\Source/tasks.c ****                 ( void ) uxListRemove( &( pxTCB->xEventListItem ) );
 1441              		.loc 1 1732 0
 1442 002e BB68     		ldr	r3, [r7, #8]
 1443 0030 1833     		adds	r3, r3, #24
 1444 0032 1800     		movs	r0, r3
 1445 0034 FFF7FEFF 		bl	uxListRemove
 1446              	.L108:
1733:..\FreeRTOS\Source/tasks.c ****             }
1734:..\FreeRTOS\Source/tasks.c ****             else
1735:..\FreeRTOS\Source/tasks.c ****             {
1736:..\FreeRTOS\Source/tasks.c ****                 mtCOVERAGE_TEST_MARKER();
1737:..\FreeRTOS\Source/tasks.c ****             }
1738:..\FreeRTOS\Source/tasks.c **** 
1739:..\FreeRTOS\Source/tasks.c ****             vListInsertEnd( &xSuspendedTaskList, &( pxTCB->xStateListItem ) );
 1447              		.loc 1 1739 0
 1448 0038 BB68     		ldr	r3, [r7, #8]
 1449 003a 1A1D     		adds	r2, r3, #4
 1450 003c 274B     		ldr	r3, .L120+4
 1451 003e 1100     		movs	r1, r2
 1452 0040 1800     		movs	r0, r3
 1453 0042 FFF7FEFF 		bl	vListInsertEnd
 1454              	.LBB5:
1740:..\FreeRTOS\Source/tasks.c **** 
1741:..\FreeRTOS\Source/tasks.c ****             #if ( configUSE_TASK_NOTIFICATIONS == 1 )
1742:..\FreeRTOS\Source/tasks.c ****                 {
1743:..\FreeRTOS\Source/tasks.c ****                     BaseType_t x;
1744:..\FreeRTOS\Source/tasks.c **** 
1745:..\FreeRTOS\Source/tasks.c ****                     for( x = 0; x < configTASK_NOTIFICATION_ARRAY_ENTRIES; x++ )
 1455              		.loc 1 1745 0
 1456 0046 0023     		movs	r3, #0
 1457 0048 FB60     		str	r3, [r7, #12]
 1458 004a 12E0     		b	.L109
 1459              	.L111:
1746:..\FreeRTOS\Source/tasks.c ****                     {
1747:..\FreeRTOS\Source/tasks.c ****                         if( pxTCB->ucNotifyState[ x ] == taskWAITING_NOTIFICATION )
 1460              		.loc 1 1747 0
 1461 004c BA68     		ldr	r2, [r7, #8]
 1462 004e 6421     		movs	r1, #100
 1463 0050 FB68     		ldr	r3, [r7, #12]
 1464 0052 D318     		adds	r3, r2, r3
 1465 0054 5B18     		adds	r3, r3, r1
 1466 0056 1B78     		ldrb	r3, [r3]
 1467 0058 DBB2     		uxtb	r3, r3
 1468 005a 012B     		cmp	r3, #1
 1469 005c 06D1     		bne	.L110
1748:..\FreeRTOS\Source/tasks.c ****                         {
1749:..\FreeRTOS\Source/tasks.c ****                             /* The task was blocked to wait for a notification, but is
1750:..\FreeRTOS\Source/tasks.c ****                              * now suspended, so no notification was received. */
1751:..\FreeRTOS\Source/tasks.c ****                             pxTCB->ucNotifyState[ x ] = taskNOT_WAITING_NOTIFICATION;
 1470              		.loc 1 1751 0
 1471 005e BA68     		ldr	r2, [r7, #8]
 1472 0060 6421     		movs	r1, #100
ARM GAS  C:\Users\Jason\AppData\Local\Temp\cclSZdbR.s 			page 58


 1473 0062 FB68     		ldr	r3, [r7, #12]
 1474 0064 D318     		adds	r3, r2, r3
 1475 0066 5B18     		adds	r3, r3, r1
 1476 0068 0022     		movs	r2, #0
 1477 006a 1A70     		strb	r2, [r3]
 1478              	.L110:
1745:..\FreeRTOS\Source/tasks.c ****                     {
 1479              		.loc 1 1745 0 discriminator 2
 1480 006c FB68     		ldr	r3, [r7, #12]
 1481 006e 0133     		adds	r3, r3, #1
 1482 0070 FB60     		str	r3, [r7, #12]
 1483              	.L109:
1745:..\FreeRTOS\Source/tasks.c ****                     {
 1484              		.loc 1 1745 0 is_stmt 0 discriminator 1
 1485 0072 FB68     		ldr	r3, [r7, #12]
 1486 0074 022B     		cmp	r3, #2
 1487 0076 E9DD     		ble	.L111
 1488              	.LBE5:
1752:..\FreeRTOS\Source/tasks.c ****                         }
1753:..\FreeRTOS\Source/tasks.c ****                     }
1754:..\FreeRTOS\Source/tasks.c ****                 }
1755:..\FreeRTOS\Source/tasks.c ****             #endif /* if ( configUSE_TASK_NOTIFICATIONS == 1 ) */
1756:..\FreeRTOS\Source/tasks.c ****         }
1757:..\FreeRTOS\Source/tasks.c ****         taskEXIT_CRITICAL();
 1489              		.loc 1 1757 0 is_stmt 1
 1490 0078 FFF7FEFF 		bl	vPortExitCritical
1758:..\FreeRTOS\Source/tasks.c **** 
1759:..\FreeRTOS\Source/tasks.c ****         if( xSchedulerRunning != pdFALSE )
 1491              		.loc 1 1759 0
 1492 007c 184B     		ldr	r3, .L120+8
 1493 007e 1B68     		ldr	r3, [r3]
 1494 0080 002B     		cmp	r3, #0
 1495 0082 05D0     		beq	.L112
1760:..\FreeRTOS\Source/tasks.c ****         {
1761:..\FreeRTOS\Source/tasks.c ****             /* Reset the next expected unblock time in case it referred to the
1762:..\FreeRTOS\Source/tasks.c ****              * task that is now in the Suspended state. */
1763:..\FreeRTOS\Source/tasks.c ****             taskENTER_CRITICAL();
 1496              		.loc 1 1763 0
 1497 0084 FFF7FEFF 		bl	vPortEnterCritical
1764:..\FreeRTOS\Source/tasks.c ****             {
1765:..\FreeRTOS\Source/tasks.c ****                 prvResetNextTaskUnblockTime();
 1498              		.loc 1 1765 0
 1499 0088 FFF7FEFF 		bl	prvResetNextTaskUnblockTime
1766:..\FreeRTOS\Source/tasks.c ****             }
1767:..\FreeRTOS\Source/tasks.c ****             taskEXIT_CRITICAL();
 1500              		.loc 1 1767 0
 1501 008c FFF7FEFF 		bl	vPortExitCritical
 1502              	.L112:
1768:..\FreeRTOS\Source/tasks.c ****         }
1769:..\FreeRTOS\Source/tasks.c ****         else
1770:..\FreeRTOS\Source/tasks.c ****         {
1771:..\FreeRTOS\Source/tasks.c ****             mtCOVERAGE_TEST_MARKER();
1772:..\FreeRTOS\Source/tasks.c ****         }
1773:..\FreeRTOS\Source/tasks.c **** 
1774:..\FreeRTOS\Source/tasks.c ****         if( pxTCB == pxCurrentTCB )
 1503              		.loc 1 1774 0
 1504 0090 114B     		ldr	r3, .L120
ARM GAS  C:\Users\Jason\AppData\Local\Temp\cclSZdbR.s 			page 59


 1505 0092 1B68     		ldr	r3, [r3]
 1506 0094 BA68     		ldr	r2, [r7, #8]
 1507 0096 9A42     		cmp	r2, r3
 1508 0098 1AD1     		bne	.L119
1775:..\FreeRTOS\Source/tasks.c ****         {
1776:..\FreeRTOS\Source/tasks.c ****             if( xSchedulerRunning != pdFALSE )
 1509              		.loc 1 1776 0
 1510 009a 114B     		ldr	r3, .L120+8
 1511 009c 1B68     		ldr	r3, [r3]
 1512 009e 002B     		cmp	r3, #0
 1513 00a0 0AD0     		beq	.L114
1777:..\FreeRTOS\Source/tasks.c ****             {
1778:..\FreeRTOS\Source/tasks.c ****                 /* The current task has just been suspended. */
1779:..\FreeRTOS\Source/tasks.c ****                 configASSERT( uxSchedulerSuspended == 0 );
 1514              		.loc 1 1779 0
 1515 00a2 104B     		ldr	r3, .L120+12
 1516 00a4 1B88     		ldrh	r3, [r3]
 1517 00a6 002B     		cmp	r3, #0
 1518 00a8 01D1     		bne	.L115
 1519              		.loc 1 1779 0 is_stmt 0 discriminator 1
 1520              		.syntax divided
 1521              	@ 1779 "..\FreeRTOS\Source\tasks.c" 1
 1522 00aa 72B6     		 cpsid i 
 1523              	@ 0 "" 2
 1524              		.thumb
 1525              		.syntax unified
 1526              	.L116:
 1527 00ac FEE7     		b	.L116
 1528              	.L115:
 1529              		.loc 1 1779 0 discriminator 2
 1530 00ae 0E4B     		ldr	r3, .L120+16
 1531 00b0 1B68     		ldr	r3, [r3]
1780:..\FreeRTOS\Source/tasks.c ****                 portYIELD_WITHIN_API();
 1532              		.loc 1 1780 0 is_stmt 1 discriminator 2
 1533 00b2 FFF7FEFF 		bl	vPortYield
1781:..\FreeRTOS\Source/tasks.c ****             }
1782:..\FreeRTOS\Source/tasks.c ****             else
1783:..\FreeRTOS\Source/tasks.c ****             {
1784:..\FreeRTOS\Source/tasks.c ****                 /* The scheduler is not running, but the task that was pointed
1785:..\FreeRTOS\Source/tasks.c ****                  * to by pxCurrentTCB has just been suspended and pxCurrentTCB
1786:..\FreeRTOS\Source/tasks.c ****                  * must be adjusted to point to a different task. */
1787:..\FreeRTOS\Source/tasks.c ****                 if( listCURRENT_LIST_LENGTH( &xSuspendedTaskList ) == uxCurrentNumberOfTasks ) /*li
1788:..\FreeRTOS\Source/tasks.c ****                 {
1789:..\FreeRTOS\Source/tasks.c ****                     /* No other tasks are ready, so set pxCurrentTCB back to
1790:..\FreeRTOS\Source/tasks.c ****                      * NULL so when the next task is created pxCurrentTCB will
1791:..\FreeRTOS\Source/tasks.c ****                      * be set to point to it no matter what its relative priority
1792:..\FreeRTOS\Source/tasks.c ****                      * is. */
1793:..\FreeRTOS\Source/tasks.c ****                     pxCurrentTCB = NULL;
1794:..\FreeRTOS\Source/tasks.c ****                 }
1795:..\FreeRTOS\Source/tasks.c ****                 else
1796:..\FreeRTOS\Source/tasks.c ****                 {
1797:..\FreeRTOS\Source/tasks.c ****                     vTaskSwitchContext();
1798:..\FreeRTOS\Source/tasks.c ****                 }
1799:..\FreeRTOS\Source/tasks.c ****             }
1800:..\FreeRTOS\Source/tasks.c ****         }
1801:..\FreeRTOS\Source/tasks.c ****         else
1802:..\FreeRTOS\Source/tasks.c ****         {
ARM GAS  C:\Users\Jason\AppData\Local\Temp\cclSZdbR.s 			page 60


1803:..\FreeRTOS\Source/tasks.c ****             mtCOVERAGE_TEST_MARKER();
1804:..\FreeRTOS\Source/tasks.c ****         }
1805:..\FreeRTOS\Source/tasks.c ****     }
 1534              		.loc 1 1805 0 discriminator 2
 1535 00b6 0BE0     		b	.L119
 1536              	.L114:
1787:..\FreeRTOS\Source/tasks.c ****                 {
 1537              		.loc 1 1787 0
 1538 00b8 084B     		ldr	r3, .L120+4
 1539 00ba 1A68     		ldr	r2, [r3]
 1540 00bc 0B4B     		ldr	r3, .L120+20
 1541 00be 1B68     		ldr	r3, [r3]
 1542 00c0 9A42     		cmp	r2, r3
 1543 00c2 03D1     		bne	.L118
1793:..\FreeRTOS\Source/tasks.c ****                 }
 1544              		.loc 1 1793 0
 1545 00c4 044B     		ldr	r3, .L120
 1546 00c6 0022     		movs	r2, #0
 1547 00c8 1A60     		str	r2, [r3]
 1548              		.loc 1 1805 0
 1549 00ca 01E0     		b	.L119
 1550              	.L118:
1797:..\FreeRTOS\Source/tasks.c ****                 }
 1551              		.loc 1 1797 0
 1552 00cc FFF7FEFF 		bl	vTaskSwitchContext
 1553              	.L119:
 1554              		.loc 1 1805 0
 1555 00d0 C046     		nop
 1556 00d2 BD46     		mov	sp, r7
 1557 00d4 04B0     		add	sp, sp, #16
 1558              		@ sp needed
 1559 00d6 80BD     		pop	{r7, pc}
 1560              	.L121:
 1561              		.align	2
 1562              	.L120:
 1563 00d8 00000000 		.word	pxCurrentTCB
 1564 00dc C4000000 		.word	xSuspendedTaskList
 1565 00e0 E4000000 		.word	xSchedulerRunning
 1566 00e4 00000000 		.word	x
 1567 00e8 00010000 		.word	uxSchedulerSuspended
 1568 00ec D8000000 		.word	uxCurrentNumberOfTasks
 1569              		.cfi_endproc
 1570              	.LFE10:
 1571              		.size	vTaskSuspend, .-vTaskSuspend
 1572              		.section	.text.prvTaskIsTaskSuspended,"ax",%progbits
 1573              		.align	2
 1574              		.code	16
 1575              		.thumb_func
 1576              		.type	prvTaskIsTaskSuspended, %function
 1577              	prvTaskIsTaskSuspended:
 1578              	.LFB11:
1806:..\FreeRTOS\Source/tasks.c **** 
1807:..\FreeRTOS\Source/tasks.c **** #endif /* INCLUDE_vTaskSuspend */
1808:..\FreeRTOS\Source/tasks.c **** /*-----------------------------------------------------------*/
1809:..\FreeRTOS\Source/tasks.c **** 
1810:..\FreeRTOS\Source/tasks.c **** #if ( INCLUDE_vTaskSuspend == 1 )
1811:..\FreeRTOS\Source/tasks.c **** 
ARM GAS  C:\Users\Jason\AppData\Local\Temp\cclSZdbR.s 			page 61


1812:..\FreeRTOS\Source/tasks.c ****     static BaseType_t prvTaskIsTaskSuspended( const TaskHandle_t xTask )
1813:..\FreeRTOS\Source/tasks.c ****     {
 1579              		.loc 1 1813 0
 1580              		.cfi_startproc
 1581              		@ args = 0, pretend = 0, frame = 16
 1582              		@ frame_needed = 1, uses_anonymous_args = 0
 1583 0000 80B5     		push	{r7, lr}
 1584              		.cfi_def_cfa_offset 8
 1585              		.cfi_offset 7, -8
 1586              		.cfi_offset 14, -4
 1587 0002 84B0     		sub	sp, sp, #16
 1588              		.cfi_def_cfa_offset 24
 1589 0004 00AF     		add	r7, sp, #0
 1590              		.cfi_def_cfa_register 7
 1591 0006 7860     		str	r0, [r7, #4]
1814:..\FreeRTOS\Source/tasks.c ****         BaseType_t xReturn = pdFALSE;
 1592              		.loc 1 1814 0
 1593 0008 0023     		movs	r3, #0
 1594 000a FB60     		str	r3, [r7, #12]
1815:..\FreeRTOS\Source/tasks.c ****         const TCB_t * const pxTCB = xTask;
 1595              		.loc 1 1815 0
 1596 000c 7B68     		ldr	r3, [r7, #4]
 1597 000e BB60     		str	r3, [r7, #8]
1816:..\FreeRTOS\Source/tasks.c **** 
1817:..\FreeRTOS\Source/tasks.c ****         /* Accesses xPendingReadyList so must be called from a critical
1818:..\FreeRTOS\Source/tasks.c ****          * section. */
1819:..\FreeRTOS\Source/tasks.c **** 
1820:..\FreeRTOS\Source/tasks.c ****         /* It does not make sense to check if the calling task is suspended. */
1821:..\FreeRTOS\Source/tasks.c ****         configASSERT( xTask );
 1598              		.loc 1 1821 0
 1599 0010 0D4B     		ldr	r3, .L127
 1600 0012 1B88     		ldrh	r3, [r3]
 1601 0014 002B     		cmp	r3, #0
 1602 0016 01D1     		bne	.L123
 1603              		.loc 1 1821 0 is_stmt 0 discriminator 1
 1604              		.syntax divided
 1605              	@ 1821 "..\FreeRTOS\Source\tasks.c" 1
 1606 0018 72B6     		 cpsid i 
 1607              	@ 0 "" 2
 1608              		.thumb
 1609              		.syntax unified
 1610              	.L124:
 1611 001a FEE7     		b	.L124
 1612              	.L123:
1822:..\FreeRTOS\Source/tasks.c **** 
1823:..\FreeRTOS\Source/tasks.c ****         /* Is the task being resumed actually in the suspended list? */
1824:..\FreeRTOS\Source/tasks.c ****         if( listIS_CONTAINED_WITHIN( &xSuspendedTaskList, &( pxTCB->xStateListItem ) ) != pdFALSE )
 1613              		.loc 1 1824 0 is_stmt 1
 1614 001c BB68     		ldr	r3, [r7, #8]
 1615 001e 5A69     		ldr	r2, [r3, #20]
 1616 0020 0A4B     		ldr	r3, .L127+4
 1617 0022 9A42     		cmp	r2, r3
 1618 0024 0AD1     		bne	.L125
1825:..\FreeRTOS\Source/tasks.c ****         {
1826:..\FreeRTOS\Source/tasks.c ****             /* Has the task already been resumed from within an ISR? */
1827:..\FreeRTOS\Source/tasks.c ****             if( listIS_CONTAINED_WITHIN( &xPendingReadyList, &( pxTCB->xEventListItem ) ) == pdFALS
 1619              		.loc 1 1827 0
ARM GAS  C:\Users\Jason\AppData\Local\Temp\cclSZdbR.s 			page 62


 1620 0026 BB68     		ldr	r3, [r7, #8]
 1621 0028 9A6A     		ldr	r2, [r3, #40]
 1622 002a 094B     		ldr	r3, .L127+8
 1623 002c 9A42     		cmp	r2, r3
 1624 002e 05D0     		beq	.L125
1828:..\FreeRTOS\Source/tasks.c ****             {
1829:..\FreeRTOS\Source/tasks.c ****                 /* Is it in the suspended list because it is in the Suspended
1830:..\FreeRTOS\Source/tasks.c ****                  * state, or because is is blocked with no timeout? */
1831:..\FreeRTOS\Source/tasks.c ****                 if( listIS_CONTAINED_WITHIN( NULL, &( pxTCB->xEventListItem ) ) != pdFALSE ) /*lint
 1625              		.loc 1 1831 0
 1626 0030 BB68     		ldr	r3, [r7, #8]
 1627 0032 9B6A     		ldr	r3, [r3, #40]
 1628 0034 002B     		cmp	r3, #0
 1629 0036 01D1     		bne	.L125
1832:..\FreeRTOS\Source/tasks.c ****                 {
1833:..\FreeRTOS\Source/tasks.c ****                     xReturn = pdTRUE;
 1630              		.loc 1 1833 0
 1631 0038 0123     		movs	r3, #1
 1632 003a FB60     		str	r3, [r7, #12]
 1633              	.L125:
1834:..\FreeRTOS\Source/tasks.c ****                 }
1835:..\FreeRTOS\Source/tasks.c ****                 else
1836:..\FreeRTOS\Source/tasks.c ****                 {
1837:..\FreeRTOS\Source/tasks.c ****                     mtCOVERAGE_TEST_MARKER();
1838:..\FreeRTOS\Source/tasks.c ****                 }
1839:..\FreeRTOS\Source/tasks.c ****             }
1840:..\FreeRTOS\Source/tasks.c ****             else
1841:..\FreeRTOS\Source/tasks.c ****             {
1842:..\FreeRTOS\Source/tasks.c ****                 mtCOVERAGE_TEST_MARKER();
1843:..\FreeRTOS\Source/tasks.c ****             }
1844:..\FreeRTOS\Source/tasks.c ****         }
1845:..\FreeRTOS\Source/tasks.c ****         else
1846:..\FreeRTOS\Source/tasks.c ****         {
1847:..\FreeRTOS\Source/tasks.c ****             mtCOVERAGE_TEST_MARKER();
1848:..\FreeRTOS\Source/tasks.c ****         }
1849:..\FreeRTOS\Source/tasks.c **** 
1850:..\FreeRTOS\Source/tasks.c ****         return xReturn;
 1634              		.loc 1 1850 0
 1635 003c FB68     		ldr	r3, [r7, #12]
1851:..\FreeRTOS\Source/tasks.c ****     } /*lint !e818 xTask cannot be a pointer to const because it is a typedef. */
 1636              		.loc 1 1851 0
 1637 003e 1800     		movs	r0, r3
 1638 0040 BD46     		mov	sp, r7
 1639 0042 04B0     		add	sp, sp, #16
 1640              		@ sp needed
 1641 0044 80BD     		pop	{r7, pc}
 1642              	.L128:
 1643 0046 C046     		.align	2
 1644              	.L127:
 1645 0048 00000000 		.word	x
 1646 004c C4000000 		.word	xSuspendedTaskList
 1647 0050 98000000 		.word	xPendingReadyList
 1648              		.cfi_endproc
 1649              	.LFE11:
 1650              		.size	prvTaskIsTaskSuspended, .-prvTaskIsTaskSuspended
 1651              		.section	.text.vTaskResume,"ax",%progbits
 1652              		.align	2
ARM GAS  C:\Users\Jason\AppData\Local\Temp\cclSZdbR.s 			page 63


 1653              		.global	vTaskResume
 1654              		.code	16
 1655              		.thumb_func
 1656              		.type	vTaskResume, %function
 1657              	vTaskResume:
 1658              	.LFB12:
1852:..\FreeRTOS\Source/tasks.c **** 
1853:..\FreeRTOS\Source/tasks.c **** #endif /* INCLUDE_vTaskSuspend */
1854:..\FreeRTOS\Source/tasks.c **** /*-----------------------------------------------------------*/
1855:..\FreeRTOS\Source/tasks.c **** 
1856:..\FreeRTOS\Source/tasks.c **** #if ( INCLUDE_vTaskSuspend == 1 )
1857:..\FreeRTOS\Source/tasks.c **** 
1858:..\FreeRTOS\Source/tasks.c ****     void vTaskResume( TaskHandle_t xTaskToResume )
1859:..\FreeRTOS\Source/tasks.c ****     {
 1659              		.loc 1 1859 0
 1660              		.cfi_startproc
 1661              		@ args = 0, pretend = 0, frame = 16
 1662              		@ frame_needed = 1, uses_anonymous_args = 0
 1663 0000 80B5     		push	{r7, lr}
 1664              		.cfi_def_cfa_offset 8
 1665              		.cfi_offset 7, -8
 1666              		.cfi_offset 14, -4
 1667 0002 84B0     		sub	sp, sp, #16
 1668              		.cfi_def_cfa_offset 24
 1669 0004 00AF     		add	r7, sp, #0
 1670              		.cfi_def_cfa_register 7
 1671 0006 7860     		str	r0, [r7, #4]
1860:..\FreeRTOS\Source/tasks.c ****         TCB_t * const pxTCB = xTaskToResume;
 1672              		.loc 1 1860 0
 1673 0008 7B68     		ldr	r3, [r7, #4]
 1674 000a FB60     		str	r3, [r7, #12]
1861:..\FreeRTOS\Source/tasks.c **** 
1862:..\FreeRTOS\Source/tasks.c ****         /* It does not make sense to resume the calling task. */
1863:..\FreeRTOS\Source/tasks.c ****         configASSERT( xTaskToResume );
 1675              		.loc 1 1863 0
 1676 000c 204B     		ldr	r3, .L136
 1677 000e 1B88     		ldrh	r3, [r3]
 1678 0010 002B     		cmp	r3, #0
 1679 0012 01D1     		bne	.L130
 1680              		.loc 1 1863 0 is_stmt 0 discriminator 1
 1681              		.syntax divided
 1682              	@ 1863 "..\FreeRTOS\Source\tasks.c" 1
 1683 0014 72B6     		 cpsid i 
 1684              	@ 0 "" 2
 1685              		.thumb
 1686              		.syntax unified
 1687              	.L131:
 1688 0016 FEE7     		b	.L131
 1689              	.L130:
1864:..\FreeRTOS\Source/tasks.c **** 
1865:..\FreeRTOS\Source/tasks.c ****         /* The parameter cannot be NULL as it is impossible to resume the
1866:..\FreeRTOS\Source/tasks.c ****          * currently executing task. */
1867:..\FreeRTOS\Source/tasks.c ****         if( ( pxTCB != pxCurrentTCB ) && ( pxTCB != NULL ) )
 1690              		.loc 1 1867 0 is_stmt 1
 1691 0018 1E4B     		ldr	r3, .L136+4
 1692 001a 1B68     		ldr	r3, [r3]
 1693 001c FA68     		ldr	r2, [r7, #12]
ARM GAS  C:\Users\Jason\AppData\Local\Temp\cclSZdbR.s 			page 64


 1694 001e 9A42     		cmp	r2, r3
 1695 0020 32D0     		beq	.L135
 1696              		.loc 1 1867 0 is_stmt 0 discriminator 1
 1697 0022 FB68     		ldr	r3, [r7, #12]
 1698 0024 002B     		cmp	r3, #0
 1699 0026 2FD0     		beq	.L135
1868:..\FreeRTOS\Source/tasks.c ****         {
1869:..\FreeRTOS\Source/tasks.c ****             taskENTER_CRITICAL();
 1700              		.loc 1 1869 0 is_stmt 1
 1701 0028 FFF7FEFF 		bl	vPortEnterCritical
1870:..\FreeRTOS\Source/tasks.c ****             {
1871:..\FreeRTOS\Source/tasks.c ****                 if( prvTaskIsTaskSuspended( pxTCB ) != pdFALSE )
 1702              		.loc 1 1871 0
 1703 002c FB68     		ldr	r3, [r7, #12]
 1704 002e 1800     		movs	r0, r3
 1705 0030 FFF7FEFF 		bl	prvTaskIsTaskSuspended
 1706 0034 031E     		subs	r3, r0, #0
 1707 0036 25D0     		beq	.L133
1872:..\FreeRTOS\Source/tasks.c ****                 {
1873:..\FreeRTOS\Source/tasks.c ****                     traceTASK_RESUME( pxTCB );
1874:..\FreeRTOS\Source/tasks.c **** 
1875:..\FreeRTOS\Source/tasks.c ****                     /* The ready list can be accessed even if the scheduler is
1876:..\FreeRTOS\Source/tasks.c ****                      * suspended because this is inside a critical section. */
1877:..\FreeRTOS\Source/tasks.c ****                     ( void ) uxListRemove( &( pxTCB->xStateListItem ) );
 1708              		.loc 1 1877 0
 1709 0038 FB68     		ldr	r3, [r7, #12]
 1710 003a 0433     		adds	r3, r3, #4
 1711 003c 1800     		movs	r0, r3
 1712 003e FFF7FEFF 		bl	uxListRemove
1878:..\FreeRTOS\Source/tasks.c ****                     prvAddTaskToReadyList( pxTCB );
 1713              		.loc 1 1878 0
 1714 0042 FB68     		ldr	r3, [r7, #12]
 1715 0044 DA6A     		ldr	r2, [r3, #44]
 1716 0046 144B     		ldr	r3, .L136+8
 1717 0048 1B68     		ldr	r3, [r3]
 1718 004a 9A42     		cmp	r2, r3
 1719 004c 03D9     		bls	.L134
 1720              		.loc 1 1878 0 is_stmt 0 discriminator 1
 1721 004e FB68     		ldr	r3, [r7, #12]
 1722 0050 DA6A     		ldr	r2, [r3, #44]
 1723 0052 114B     		ldr	r3, .L136+8
 1724 0054 1A60     		str	r2, [r3]
 1725              	.L134:
 1726              		.loc 1 1878 0 discriminator 3
 1727 0056 FB68     		ldr	r3, [r7, #12]
 1728 0058 DA6A     		ldr	r2, [r3, #44]
 1729 005a 1300     		movs	r3, r2
 1730 005c 9B00     		lsls	r3, r3, #2
 1731 005e 9B18     		adds	r3, r3, r2
 1732 0060 9B00     		lsls	r3, r3, #2
 1733 0062 0E4A     		ldr	r2, .L136+12
 1734 0064 9A18     		adds	r2, r3, r2
 1735 0066 FB68     		ldr	r3, [r7, #12]
 1736 0068 0433     		adds	r3, r3, #4
 1737 006a 1900     		movs	r1, r3
 1738 006c 1000     		movs	r0, r2
 1739 006e FFF7FEFF 		bl	vListInsertEnd
ARM GAS  C:\Users\Jason\AppData\Local\Temp\cclSZdbR.s 			page 65


1879:..\FreeRTOS\Source/tasks.c **** 
1880:..\FreeRTOS\Source/tasks.c ****                     /* A higher priority task may have just been resumed. */
1881:..\FreeRTOS\Source/tasks.c ****                     if( pxTCB->uxPriority >= pxCurrentTCB->uxPriority )
 1740              		.loc 1 1881 0 is_stmt 1 discriminator 3
 1741 0072 FB68     		ldr	r3, [r7, #12]
 1742 0074 DA6A     		ldr	r2, [r3, #44]
 1743 0076 074B     		ldr	r3, .L136+4
 1744 0078 1B68     		ldr	r3, [r3]
 1745 007a DB6A     		ldr	r3, [r3, #44]
 1746 007c 9A42     		cmp	r2, r3
 1747 007e 01D3     		bcc	.L133
1882:..\FreeRTOS\Source/tasks.c ****                     {
1883:..\FreeRTOS\Source/tasks.c ****                         /* This yield may not cause the task just resumed to run,
1884:..\FreeRTOS\Source/tasks.c ****                          * but will leave the lists in the correct state for the
1885:..\FreeRTOS\Source/tasks.c ****                          * next yield. */
1886:..\FreeRTOS\Source/tasks.c ****                         taskYIELD_IF_USING_PREEMPTION();
 1748              		.loc 1 1886 0
 1749 0080 FFF7FEFF 		bl	vPortYield
 1750              	.L133:
1887:..\FreeRTOS\Source/tasks.c ****                     }
1888:..\FreeRTOS\Source/tasks.c ****                     else
1889:..\FreeRTOS\Source/tasks.c ****                     {
1890:..\FreeRTOS\Source/tasks.c ****                         mtCOVERAGE_TEST_MARKER();
1891:..\FreeRTOS\Source/tasks.c ****                     }
1892:..\FreeRTOS\Source/tasks.c ****                 }
1893:..\FreeRTOS\Source/tasks.c ****                 else
1894:..\FreeRTOS\Source/tasks.c ****                 {
1895:..\FreeRTOS\Source/tasks.c ****                     mtCOVERAGE_TEST_MARKER();
1896:..\FreeRTOS\Source/tasks.c ****                 }
1897:..\FreeRTOS\Source/tasks.c ****             }
1898:..\FreeRTOS\Source/tasks.c ****             taskEXIT_CRITICAL();
 1751              		.loc 1 1898 0
 1752 0084 FFF7FEFF 		bl	vPortExitCritical
 1753              	.L135:
1899:..\FreeRTOS\Source/tasks.c ****         }
1900:..\FreeRTOS\Source/tasks.c ****         else
1901:..\FreeRTOS\Source/tasks.c ****         {
1902:..\FreeRTOS\Source/tasks.c ****             mtCOVERAGE_TEST_MARKER();
1903:..\FreeRTOS\Source/tasks.c ****         }
1904:..\FreeRTOS\Source/tasks.c ****     }
 1754              		.loc 1 1904 0
 1755 0088 C046     		nop
 1756 008a BD46     		mov	sp, r7
 1757 008c 04B0     		add	sp, sp, #16
 1758              		@ sp needed
 1759 008e 80BD     		pop	{r7, pc}
 1760              	.L137:
 1761              		.align	2
 1762              	.L136:
 1763 0090 00000000 		.word	x
 1764 0094 00000000 		.word	pxCurrentTCB
 1765 0098 E0000000 		.word	uxTopReadyPriority
 1766 009c 04000000 		.word	pxReadyTasksLists
 1767              		.cfi_endproc
 1768              	.LFE12:
 1769              		.size	vTaskResume, .-vTaskResume
 1770              		.section	.text.xTaskResumeFromISR,"ax",%progbits
ARM GAS  C:\Users\Jason\AppData\Local\Temp\cclSZdbR.s 			page 66


 1771              		.align	2
 1772              		.global	xTaskResumeFromISR
 1773              		.code	16
 1774              		.thumb_func
 1775              		.type	xTaskResumeFromISR, %function
 1776              	xTaskResumeFromISR:
 1777              	.LFB13:
1905:..\FreeRTOS\Source/tasks.c **** 
1906:..\FreeRTOS\Source/tasks.c **** #endif /* INCLUDE_vTaskSuspend */
1907:..\FreeRTOS\Source/tasks.c **** 
1908:..\FreeRTOS\Source/tasks.c **** /*-----------------------------------------------------------*/
1909:..\FreeRTOS\Source/tasks.c **** 
1910:..\FreeRTOS\Source/tasks.c **** #if ( ( INCLUDE_xTaskResumeFromISR == 1 ) && ( INCLUDE_vTaskSuspend == 1 ) )
1911:..\FreeRTOS\Source/tasks.c **** 
1912:..\FreeRTOS\Source/tasks.c ****     BaseType_t xTaskResumeFromISR( TaskHandle_t xTaskToResume )
1913:..\FreeRTOS\Source/tasks.c ****     {
 1778              		.loc 1 1913 0
 1779              		.cfi_startproc
 1780              		@ args = 0, pretend = 0, frame = 24
 1781              		@ frame_needed = 1, uses_anonymous_args = 0
 1782 0000 80B5     		push	{r7, lr}
 1783              		.cfi_def_cfa_offset 8
 1784              		.cfi_offset 7, -8
 1785              		.cfi_offset 14, -4
 1786 0002 86B0     		sub	sp, sp, #24
 1787              		.cfi_def_cfa_offset 32
 1788 0004 00AF     		add	r7, sp, #0
 1789              		.cfi_def_cfa_register 7
 1790 0006 7860     		str	r0, [r7, #4]
1914:..\FreeRTOS\Source/tasks.c ****         BaseType_t xYieldRequired = pdFALSE;
 1791              		.loc 1 1914 0
 1792 0008 0023     		movs	r3, #0
 1793 000a 7B61     		str	r3, [r7, #20]
1915:..\FreeRTOS\Source/tasks.c ****         TCB_t * const pxTCB = xTaskToResume;
 1794              		.loc 1 1915 0
 1795 000c 7B68     		ldr	r3, [r7, #4]
 1796 000e 3B61     		str	r3, [r7, #16]
1916:..\FreeRTOS\Source/tasks.c ****         UBaseType_t uxSavedInterruptStatus;
1917:..\FreeRTOS\Source/tasks.c **** 
1918:..\FreeRTOS\Source/tasks.c ****         configASSERT( xTaskToResume );
 1797              		.loc 1 1918 0
 1798 0010 274B     		ldr	r3, .L147
 1799 0012 1B88     		ldrh	r3, [r3]
 1800 0014 002B     		cmp	r3, #0
 1801 0016 01D1     		bne	.L139
 1802              		.loc 1 1918 0 is_stmt 0 discriminator 1
 1803              		.syntax divided
 1804              	@ 1918 "..\FreeRTOS\Source\tasks.c" 1
 1805 0018 72B6     		 cpsid i 
 1806              	@ 0 "" 2
 1807              		.thumb
 1808              		.syntax unified
 1809              	.L140:
 1810 001a FEE7     		b	.L140
 1811              	.L139:
1919:..\FreeRTOS\Source/tasks.c **** 
1920:..\FreeRTOS\Source/tasks.c ****         /* RTOS ports that support interrupt nesting have the concept of a
ARM GAS  C:\Users\Jason\AppData\Local\Temp\cclSZdbR.s 			page 67


1921:..\FreeRTOS\Source/tasks.c ****          * maximum  system call (or maximum API call) interrupt priority.
1922:..\FreeRTOS\Source/tasks.c ****          * Interrupts that are  above the maximum system call priority are keep
1923:..\FreeRTOS\Source/tasks.c ****          * permanently enabled, even when the RTOS kernel is in a critical section,
1924:..\FreeRTOS\Source/tasks.c ****          * but cannot make any calls to FreeRTOS API functions.  If configASSERT()
1925:..\FreeRTOS\Source/tasks.c ****          * is defined in FreeRTOSConfig.h then
1926:..\FreeRTOS\Source/tasks.c ****          * portASSERT_IF_INTERRUPT_PRIORITY_INVALID() will result in an assertion
1927:..\FreeRTOS\Source/tasks.c ****          * failure if a FreeRTOS API function is called from an interrupt that has
1928:..\FreeRTOS\Source/tasks.c ****          * been assigned a priority above the configured maximum system call
1929:..\FreeRTOS\Source/tasks.c ****          * priority.  Only FreeRTOS functions that end in FromISR can be called
1930:..\FreeRTOS\Source/tasks.c ****          * from interrupts  that have been assigned a priority at or (logically)
1931:..\FreeRTOS\Source/tasks.c ****          * below the maximum system call interrupt priority.  FreeRTOS maintains a
1932:..\FreeRTOS\Source/tasks.c ****          * separate interrupt safe API to ensure interrupt entry is as fast and as
1933:..\FreeRTOS\Source/tasks.c ****          * simple as possible.  More information (albeit Cortex-M specific) is
1934:..\FreeRTOS\Source/tasks.c ****          * provided on the following link:
1935:..\FreeRTOS\Source/tasks.c ****          * https://www.FreeRTOS.org/RTOS-Cortex-M3-M4.html */
1936:..\FreeRTOS\Source/tasks.c ****         portASSERT_IF_INTERRUPT_PRIORITY_INVALID();
1937:..\FreeRTOS\Source/tasks.c **** 
1938:..\FreeRTOS\Source/tasks.c ****         uxSavedInterruptStatus = portSET_INTERRUPT_MASK_FROM_ISR();
 1812              		.loc 1 1938 0 is_stmt 1
 1813 001c FFF7FEFF 		bl	ulSetInterruptMaskFromISR
 1814 0020 0300     		movs	r3, r0
 1815 0022 FB60     		str	r3, [r7, #12]
1939:..\FreeRTOS\Source/tasks.c ****         {
1940:..\FreeRTOS\Source/tasks.c ****             if( prvTaskIsTaskSuspended( pxTCB ) != pdFALSE )
 1816              		.loc 1 1940 0
 1817 0024 3B69     		ldr	r3, [r7, #16]
 1818 0026 1800     		movs	r0, r3
 1819 0028 FFF7FEFF 		bl	prvTaskIsTaskSuspended
 1820 002c 031E     		subs	r3, r0, #0
 1821 002e 35D0     		beq	.L141
1941:..\FreeRTOS\Source/tasks.c ****             {
1942:..\FreeRTOS\Source/tasks.c ****                 traceTASK_RESUME_FROM_ISR( pxTCB );
1943:..\FreeRTOS\Source/tasks.c **** 
1944:..\FreeRTOS\Source/tasks.c ****                 /* Check the ready lists can be accessed. */
1945:..\FreeRTOS\Source/tasks.c ****                 if( uxSchedulerSuspended == ( UBaseType_t ) pdFALSE )
 1822              		.loc 1 1945 0
 1823 0030 204B     		ldr	r3, .L147+4
 1824 0032 1B68     		ldr	r3, [r3]
 1825 0034 002B     		cmp	r3, #0
 1826 0036 29D1     		bne	.L142
1946:..\FreeRTOS\Source/tasks.c ****                 {
1947:..\FreeRTOS\Source/tasks.c ****                     /* Ready lists can be accessed so move the task from the
1948:..\FreeRTOS\Source/tasks.c ****                      * suspended list to the ready list directly. */
1949:..\FreeRTOS\Source/tasks.c ****                     if( pxTCB->uxPriority >= pxCurrentTCB->uxPriority )
 1827              		.loc 1 1949 0
 1828 0038 3B69     		ldr	r3, [r7, #16]
 1829 003a DA6A     		ldr	r2, [r3, #44]
 1830 003c 1E4B     		ldr	r3, .L147+8
 1831 003e 1B68     		ldr	r3, [r3]
 1832 0040 DB6A     		ldr	r3, [r3, #44]
 1833 0042 9A42     		cmp	r2, r3
 1834 0044 04D3     		bcc	.L143
1950:..\FreeRTOS\Source/tasks.c ****                     {
1951:..\FreeRTOS\Source/tasks.c ****                         xYieldRequired = pdTRUE;
 1835              		.loc 1 1951 0
 1836 0046 0123     		movs	r3, #1
 1837 0048 7B61     		str	r3, [r7, #20]
ARM GAS  C:\Users\Jason\AppData\Local\Temp\cclSZdbR.s 			page 68


1952:..\FreeRTOS\Source/tasks.c **** 
1953:..\FreeRTOS\Source/tasks.c ****                         /* Mark that a yield is pending in case the user is not
1954:..\FreeRTOS\Source/tasks.c ****                          * using the return value to initiate a context switch
1955:..\FreeRTOS\Source/tasks.c ****                          * from the ISR using portYIELD_FROM_ISR. */
1956:..\FreeRTOS\Source/tasks.c ****                         xYieldPending = pdTRUE;
 1838              		.loc 1 1956 0
 1839 004a 1C4B     		ldr	r3, .L147+12
 1840 004c 0122     		movs	r2, #1
 1841 004e 1A60     		str	r2, [r3]
 1842              	.L143:
1957:..\FreeRTOS\Source/tasks.c ****                     }
1958:..\FreeRTOS\Source/tasks.c ****                     else
1959:..\FreeRTOS\Source/tasks.c ****                     {
1960:..\FreeRTOS\Source/tasks.c ****                         mtCOVERAGE_TEST_MARKER();
1961:..\FreeRTOS\Source/tasks.c ****                     }
1962:..\FreeRTOS\Source/tasks.c **** 
1963:..\FreeRTOS\Source/tasks.c ****                     ( void ) uxListRemove( &( pxTCB->xStateListItem ) );
 1843              		.loc 1 1963 0
 1844 0050 3B69     		ldr	r3, [r7, #16]
 1845 0052 0433     		adds	r3, r3, #4
 1846 0054 1800     		movs	r0, r3
 1847 0056 FFF7FEFF 		bl	uxListRemove
1964:..\FreeRTOS\Source/tasks.c ****                     prvAddTaskToReadyList( pxTCB );
 1848              		.loc 1 1964 0
 1849 005a 3B69     		ldr	r3, [r7, #16]
 1850 005c DA6A     		ldr	r2, [r3, #44]
 1851 005e 184B     		ldr	r3, .L147+16
 1852 0060 1B68     		ldr	r3, [r3]
 1853 0062 9A42     		cmp	r2, r3
 1854 0064 03D9     		bls	.L144
 1855              		.loc 1 1964 0 is_stmt 0 discriminator 1
 1856 0066 3B69     		ldr	r3, [r7, #16]
 1857 0068 DA6A     		ldr	r2, [r3, #44]
 1858 006a 154B     		ldr	r3, .L147+16
 1859 006c 1A60     		str	r2, [r3]
 1860              	.L144:
 1861              		.loc 1 1964 0 discriminator 3
 1862 006e 3B69     		ldr	r3, [r7, #16]
 1863 0070 DA6A     		ldr	r2, [r3, #44]
 1864 0072 1300     		movs	r3, r2
 1865 0074 9B00     		lsls	r3, r3, #2
 1866 0076 9B18     		adds	r3, r3, r2
 1867 0078 9B00     		lsls	r3, r3, #2
 1868 007a 124A     		ldr	r2, .L147+20
 1869 007c 9A18     		adds	r2, r3, r2
 1870 007e 3B69     		ldr	r3, [r7, #16]
 1871 0080 0433     		adds	r3, r3, #4
 1872 0082 1900     		movs	r1, r3
 1873 0084 1000     		movs	r0, r2
 1874 0086 FFF7FEFF 		bl	vListInsertEnd
 1875 008a 07E0     		b	.L141
 1876              	.L142:
1965:..\FreeRTOS\Source/tasks.c ****                 }
1966:..\FreeRTOS\Source/tasks.c ****                 else
1967:..\FreeRTOS\Source/tasks.c ****                 {
1968:..\FreeRTOS\Source/tasks.c ****                     /* The delayed or ready lists cannot be accessed so the task
1969:..\FreeRTOS\Source/tasks.c ****                      * is held in the pending ready list until the scheduler is
ARM GAS  C:\Users\Jason\AppData\Local\Temp\cclSZdbR.s 			page 69


1970:..\FreeRTOS\Source/tasks.c ****                      * unsuspended. */
1971:..\FreeRTOS\Source/tasks.c ****                     vListInsertEnd( &( xPendingReadyList ), &( pxTCB->xEventListItem ) );
 1877              		.loc 1 1971 0 is_stmt 1
 1878 008c 3B69     		ldr	r3, [r7, #16]
 1879 008e 1833     		adds	r3, r3, #24
 1880 0090 1A00     		movs	r2, r3
 1881 0092 0D4B     		ldr	r3, .L147+24
 1882 0094 1100     		movs	r1, r2
 1883 0096 1800     		movs	r0, r3
 1884 0098 FFF7FEFF 		bl	vListInsertEnd
 1885              	.L141:
1972:..\FreeRTOS\Source/tasks.c ****                 }
1973:..\FreeRTOS\Source/tasks.c ****             }
1974:..\FreeRTOS\Source/tasks.c ****             else
1975:..\FreeRTOS\Source/tasks.c ****             {
1976:..\FreeRTOS\Source/tasks.c ****                 mtCOVERAGE_TEST_MARKER();
1977:..\FreeRTOS\Source/tasks.c ****             }
1978:..\FreeRTOS\Source/tasks.c ****         }
1979:..\FreeRTOS\Source/tasks.c ****         portCLEAR_INTERRUPT_MASK_FROM_ISR( uxSavedInterruptStatus );
 1886              		.loc 1 1979 0
 1887 009c FB68     		ldr	r3, [r7, #12]
 1888 009e 1800     		movs	r0, r3
 1889 00a0 FFF7FEFF 		bl	vClearInterruptMaskFromISR
1980:..\FreeRTOS\Source/tasks.c **** 
1981:..\FreeRTOS\Source/tasks.c ****         return xYieldRequired;
 1890              		.loc 1 1981 0
 1891 00a4 7B69     		ldr	r3, [r7, #20]
1982:..\FreeRTOS\Source/tasks.c ****     }
 1892              		.loc 1 1982 0
 1893 00a6 1800     		movs	r0, r3
 1894 00a8 BD46     		mov	sp, r7
 1895 00aa 06B0     		add	sp, sp, #24
 1896              		@ sp needed
 1897 00ac 80BD     		pop	{r7, pc}
 1898              	.L148:
 1899 00ae C046     		.align	2
 1900              	.L147:
 1901 00b0 00000000 		.word	x
 1902 00b4 00010000 		.word	uxSchedulerSuspended
 1903 00b8 00000000 		.word	pxCurrentTCB
 1904 00bc EC000000 		.word	xYieldPending
 1905 00c0 E0000000 		.word	uxTopReadyPriority
 1906 00c4 04000000 		.word	pxReadyTasksLists
 1907 00c8 98000000 		.word	xPendingReadyList
 1908              		.cfi_endproc
 1909              	.LFE13:
 1910              		.size	xTaskResumeFromISR, .-xTaskResumeFromISR
 1911              		.section	.rodata
 1912              		.align	2
 1913              	.LC46:
 1914 0000 49444C45 		.ascii	"IDLE\000"
 1914      00
 1915              		.section	.text.vTaskStartScheduler,"ax",%progbits
 1916              		.align	2
 1917              		.global	vTaskStartScheduler
 1918              		.code	16
 1919              		.thumb_func
ARM GAS  C:\Users\Jason\AppData\Local\Temp\cclSZdbR.s 			page 70


 1920              		.type	vTaskStartScheduler, %function
 1921              	vTaskStartScheduler:
 1922              	.LFB14:
1983:..\FreeRTOS\Source/tasks.c **** 
1984:..\FreeRTOS\Source/tasks.c **** #endif /* ( ( INCLUDE_xTaskResumeFromISR == 1 ) && ( INCLUDE_vTaskSuspend == 1 ) ) */
1985:..\FreeRTOS\Source/tasks.c **** /*-----------------------------------------------------------*/
1986:..\FreeRTOS\Source/tasks.c **** 
1987:..\FreeRTOS\Source/tasks.c **** void vTaskStartScheduler( void )
1988:..\FreeRTOS\Source/tasks.c **** {
 1923              		.loc 1 1988 0
 1924              		.cfi_startproc
 1925              		@ args = 0, pretend = 0, frame = 16
 1926              		@ frame_needed = 1, uses_anonymous_args = 0
 1927 0000 90B5     		push	{r4, r7, lr}
 1928              		.cfi_def_cfa_offset 12
 1929              		.cfi_offset 4, -12
 1930              		.cfi_offset 7, -8
 1931              		.cfi_offset 14, -4
 1932 0002 89B0     		sub	sp, sp, #36
 1933              		.cfi_def_cfa_offset 48
 1934 0004 04AF     		add	r7, sp, #16
 1935              		.cfi_def_cfa 7, 32
 1936              	.LBB6:
1989:..\FreeRTOS\Source/tasks.c ****     BaseType_t xReturn;
1990:..\FreeRTOS\Source/tasks.c **** 
1991:..\FreeRTOS\Source/tasks.c ****     /* Add the idle task at the lowest priority. */
1992:..\FreeRTOS\Source/tasks.c ****     #if ( configSUPPORT_STATIC_ALLOCATION == 1 )
1993:..\FreeRTOS\Source/tasks.c ****         {
1994:..\FreeRTOS\Source/tasks.c ****             StaticTask_t * pxIdleTaskTCBBuffer = NULL;
 1937              		.loc 1 1994 0
 1938 0006 0023     		movs	r3, #0
 1939 0008 BB60     		str	r3, [r7, #8]
1995:..\FreeRTOS\Source/tasks.c ****             StackType_t * pxIdleTaskStackBuffer = NULL;
 1940              		.loc 1 1995 0
 1941 000a 0023     		movs	r3, #0
 1942 000c 7B60     		str	r3, [r7, #4]
1996:..\FreeRTOS\Source/tasks.c ****             uint32_t ulIdleTaskStackSize;
1997:..\FreeRTOS\Source/tasks.c **** 
1998:..\FreeRTOS\Source/tasks.c ****             /* The Idle task is created using user provided RAM - obtain the
1999:..\FreeRTOS\Source/tasks.c ****              * address of the RAM then create the idle task. */
2000:..\FreeRTOS\Source/tasks.c ****             vApplicationGetIdleTaskMemory( &pxIdleTaskTCBBuffer, &pxIdleTaskStackBuffer, &ulIdleTas
 1943              		.loc 1 2000 0
 1944 000e 3A00     		movs	r2, r7
 1945 0010 391D     		adds	r1, r7, #4
 1946 0012 0823     		movs	r3, #8
 1947 0014 FB18     		adds	r3, r7, r3
 1948 0016 1800     		movs	r0, r3
 1949 0018 FFF7FEFF 		bl	vApplicationGetIdleTaskMemory
2001:..\FreeRTOS\Source/tasks.c ****             xIdleTaskHandle = xTaskCreateStatic( prvIdleTask,
 1950              		.loc 1 2001 0
 1951 001c 3C68     		ldr	r4, [r7]
 1952 001e 7B68     		ldr	r3, [r7, #4]
 1953 0020 BA68     		ldr	r2, [r7, #8]
 1954 0022 1D49     		ldr	r1, .L156
 1955 0024 1D48     		ldr	r0, .L156+4
 1956 0026 0292     		str	r2, [sp, #8]
 1957 0028 0193     		str	r3, [sp, #4]
ARM GAS  C:\Users\Jason\AppData\Local\Temp\cclSZdbR.s 			page 71


 1958 002a 0023     		movs	r3, #0
 1959 002c 0093     		str	r3, [sp]
 1960 002e 0023     		movs	r3, #0
 1961 0030 2200     		movs	r2, r4
 1962 0032 FFF7FEFF 		bl	xTaskCreateStatic
 1963 0036 0200     		movs	r2, r0
 1964 0038 194B     		ldr	r3, .L156+8
 1965 003a 1A60     		str	r2, [r3]
2002:..\FreeRTOS\Source/tasks.c ****                                                  configIDLE_TASK_NAME,
2003:..\FreeRTOS\Source/tasks.c ****                                                  ulIdleTaskStackSize,
2004:..\FreeRTOS\Source/tasks.c ****                                                  ( void * ) NULL,       /*lint !e961.  The cast is 
2005:..\FreeRTOS\Source/tasks.c ****                                                  portPRIVILEGE_BIT,     /* In effect ( tskIDLE_PRIO
2006:..\FreeRTOS\Source/tasks.c ****                                                  pxIdleTaskStackBuffer,
2007:..\FreeRTOS\Source/tasks.c ****                                                  pxIdleTaskTCBBuffer ); /*lint !e961 MISRA exceptio
2008:..\FreeRTOS\Source/tasks.c **** 
2009:..\FreeRTOS\Source/tasks.c ****             if( xIdleTaskHandle != NULL )
 1966              		.loc 1 2009 0
 1967 003c 184B     		ldr	r3, .L156+8
 1968 003e 1B68     		ldr	r3, [r3]
 1969 0040 002B     		cmp	r3, #0
 1970 0042 02D0     		beq	.L150
2010:..\FreeRTOS\Source/tasks.c ****             {
2011:..\FreeRTOS\Source/tasks.c ****                 xReturn = pdPASS;
 1971              		.loc 1 2011 0
 1972 0044 0123     		movs	r3, #1
 1973 0046 FB60     		str	r3, [r7, #12]
 1974 0048 01E0     		b	.L151
 1975              	.L150:
2012:..\FreeRTOS\Source/tasks.c ****             }
2013:..\FreeRTOS\Source/tasks.c ****             else
2014:..\FreeRTOS\Source/tasks.c ****             {
2015:..\FreeRTOS\Source/tasks.c ****                 xReturn = pdFAIL;
 1976              		.loc 1 2015 0
 1977 004a 0023     		movs	r3, #0
 1978 004c FB60     		str	r3, [r7, #12]
 1979              	.L151:
 1980              	.LBE6:
2016:..\FreeRTOS\Source/tasks.c ****             }
2017:..\FreeRTOS\Source/tasks.c ****         }
2018:..\FreeRTOS\Source/tasks.c ****     #else /* if ( configSUPPORT_STATIC_ALLOCATION == 1 ) */
2019:..\FreeRTOS\Source/tasks.c ****         {
2020:..\FreeRTOS\Source/tasks.c ****             /* The Idle task is being created using dynamically allocated RAM. */
2021:..\FreeRTOS\Source/tasks.c ****             xReturn = xTaskCreate( prvIdleTask,
2022:..\FreeRTOS\Source/tasks.c ****                                    configIDLE_TASK_NAME,
2023:..\FreeRTOS\Source/tasks.c ****                                    configMINIMAL_STACK_SIZE,
2024:..\FreeRTOS\Source/tasks.c ****                                    ( void * ) NULL,
2025:..\FreeRTOS\Source/tasks.c ****                                    portPRIVILEGE_BIT,  /* In effect ( tskIDLE_PRIORITY | portPRIVIL
2026:..\FreeRTOS\Source/tasks.c ****                                    &xIdleTaskHandle ); /*lint !e961 MISRA exception, justified as i
2027:..\FreeRTOS\Source/tasks.c ****         }
2028:..\FreeRTOS\Source/tasks.c ****     #endif /* configSUPPORT_STATIC_ALLOCATION */
2029:..\FreeRTOS\Source/tasks.c **** 
2030:..\FreeRTOS\Source/tasks.c ****     #if ( configUSE_TIMERS == 1 )
2031:..\FreeRTOS\Source/tasks.c ****         {
2032:..\FreeRTOS\Source/tasks.c ****             if( xReturn == pdPASS )
 1981              		.loc 1 2032 0
 1982 004e FB68     		ldr	r3, [r7, #12]
 1983 0050 012B     		cmp	r3, #1
ARM GAS  C:\Users\Jason\AppData\Local\Temp\cclSZdbR.s 			page 72


 1984 0052 03D1     		bne	.L152
2033:..\FreeRTOS\Source/tasks.c ****             {
2034:..\FreeRTOS\Source/tasks.c ****                 xReturn = xTimerCreateTimerTask();
 1985              		.loc 1 2034 0
 1986 0054 FFF7FEFF 		bl	xTimerCreateTimerTask
 1987 0058 0300     		movs	r3, r0
 1988 005a FB60     		str	r3, [r7, #12]
 1989              	.L152:
2035:..\FreeRTOS\Source/tasks.c ****             }
2036:..\FreeRTOS\Source/tasks.c ****             else
2037:..\FreeRTOS\Source/tasks.c ****             {
2038:..\FreeRTOS\Source/tasks.c ****                 mtCOVERAGE_TEST_MARKER();
2039:..\FreeRTOS\Source/tasks.c ****             }
2040:..\FreeRTOS\Source/tasks.c ****         }
2041:..\FreeRTOS\Source/tasks.c ****     #endif /* configUSE_TIMERS */
2042:..\FreeRTOS\Source/tasks.c **** 
2043:..\FreeRTOS\Source/tasks.c ****     if( xReturn == pdPASS )
 1990              		.loc 1 2043 0
 1991 005c FB68     		ldr	r3, [r7, #12]
 1992 005e 012B     		cmp	r3, #1
 1993 0060 0DD1     		bne	.L153
2044:..\FreeRTOS\Source/tasks.c ****     {
2045:..\FreeRTOS\Source/tasks.c ****         /* freertos_tasks_c_additions_init() should only be called if the user
2046:..\FreeRTOS\Source/tasks.c ****          * definable macro FREERTOS_TASKS_C_ADDITIONS_INIT() is defined, as that is
2047:..\FreeRTOS\Source/tasks.c ****          * the only macro called by the function. */
2048:..\FreeRTOS\Source/tasks.c ****         #ifdef FREERTOS_TASKS_C_ADDITIONS_INIT
2049:..\FreeRTOS\Source/tasks.c ****             {
2050:..\FreeRTOS\Source/tasks.c ****                 freertos_tasks_c_additions_init();
2051:..\FreeRTOS\Source/tasks.c ****             }
2052:..\FreeRTOS\Source/tasks.c ****         #endif
2053:..\FreeRTOS\Source/tasks.c **** 
2054:..\FreeRTOS\Source/tasks.c ****         /* Interrupts are turned off here, to ensure a tick does not occur
2055:..\FreeRTOS\Source/tasks.c ****          * before or during the call to xPortStartScheduler().  The stacks of
2056:..\FreeRTOS\Source/tasks.c ****          * the created tasks contain a status word with interrupts switched on
2057:..\FreeRTOS\Source/tasks.c ****          * so interrupts will automatically get re-enabled when the first task
2058:..\FreeRTOS\Source/tasks.c ****          * starts to run. */
2059:..\FreeRTOS\Source/tasks.c ****         portDISABLE_INTERRUPTS();
 1994              		.loc 1 2059 0
 1995              		.syntax divided
 1996              	@ 2059 "..\FreeRTOS\Source\tasks.c" 1
 1997 0062 72B6     		 cpsid i 
 1998              	@ 0 "" 2
2060:..\FreeRTOS\Source/tasks.c **** 
2061:..\FreeRTOS\Source/tasks.c ****         #if ( configUSE_NEWLIB_REENTRANT == 1 )
2062:..\FreeRTOS\Source/tasks.c ****             {
2063:..\FreeRTOS\Source/tasks.c ****                 /* Switch Newlib's _impure_ptr variable to point to the _reent
2064:..\FreeRTOS\Source/tasks.c ****                  * structure specific to the task that will run first.
2065:..\FreeRTOS\Source/tasks.c ****                  * See the third party link http://www.nadler.com/embedded/newlibAndFreeRTOS.html
2066:..\FreeRTOS\Source/tasks.c ****                  * for additional information. */
2067:..\FreeRTOS\Source/tasks.c ****                 _impure_ptr = &( pxCurrentTCB->xNewLib_reent );
2068:..\FreeRTOS\Source/tasks.c ****             }
2069:..\FreeRTOS\Source/tasks.c ****         #endif /* configUSE_NEWLIB_REENTRANT */
2070:..\FreeRTOS\Source/tasks.c **** 
2071:..\FreeRTOS\Source/tasks.c ****         xNextTaskUnblockTime = portMAX_DELAY;
 1999              		.loc 1 2071 0
 2000              		.thumb
 2001              		.syntax unified
ARM GAS  C:\Users\Jason\AppData\Local\Temp\cclSZdbR.s 			page 73


 2002 0064 0F4B     		ldr	r3, .L156+12
 2003 0066 0122     		movs	r2, #1
 2004 0068 5242     		rsbs	r2, r2, #0
 2005 006a 1A60     		str	r2, [r3]
2072:..\FreeRTOS\Source/tasks.c ****         xSchedulerRunning = pdTRUE;
 2006              		.loc 1 2072 0
 2007 006c 0E4B     		ldr	r3, .L156+16
 2008 006e 0122     		movs	r2, #1
 2009 0070 1A60     		str	r2, [r3]
2073:..\FreeRTOS\Source/tasks.c ****         xTickCount = ( TickType_t ) configINITIAL_TICK_COUNT;
 2010              		.loc 1 2073 0
 2011 0072 0E4B     		ldr	r3, .L156+20
 2012 0074 0022     		movs	r2, #0
 2013 0076 1A60     		str	r2, [r3]
2074:..\FreeRTOS\Source/tasks.c **** 
2075:..\FreeRTOS\Source/tasks.c ****         /* If configGENERATE_RUN_TIME_STATS is defined then the following
2076:..\FreeRTOS\Source/tasks.c ****          * macro must be defined to configure the timer/counter used to generate
2077:..\FreeRTOS\Source/tasks.c ****          * the run time counter time base.   NOTE:  If configGENERATE_RUN_TIME_STATS
2078:..\FreeRTOS\Source/tasks.c ****          * is set to 0 and the following line fails to build then ensure you do not
2079:..\FreeRTOS\Source/tasks.c ****          * have portCONFIGURE_TIMER_FOR_RUN_TIME_STATS() defined in your
2080:..\FreeRTOS\Source/tasks.c ****          * FreeRTOSConfig.h file. */
2081:..\FreeRTOS\Source/tasks.c ****         portCONFIGURE_TIMER_FOR_RUN_TIME_STATS();
2082:..\FreeRTOS\Source/tasks.c **** 
2083:..\FreeRTOS\Source/tasks.c ****         traceTASK_SWITCHED_IN();
2084:..\FreeRTOS\Source/tasks.c **** 
2085:..\FreeRTOS\Source/tasks.c ****         /* Setting up the timer tick is hardware specific and thus in the
2086:..\FreeRTOS\Source/tasks.c ****          * portable interface. */
2087:..\FreeRTOS\Source/tasks.c ****         if( xPortStartScheduler() != pdFALSE )
 2014              		.loc 1 2087 0
 2015 0078 FFF7FEFF 		bl	xPortStartScheduler
 2016 007c 05E0     		b	.L154
 2017              	.L153:
2088:..\FreeRTOS\Source/tasks.c ****         {
2089:..\FreeRTOS\Source/tasks.c ****             /* Should not reach here as if the scheduler is running the
2090:..\FreeRTOS\Source/tasks.c ****              * function will not return. */
2091:..\FreeRTOS\Source/tasks.c ****         }
2092:..\FreeRTOS\Source/tasks.c ****         else
2093:..\FreeRTOS\Source/tasks.c ****         {
2094:..\FreeRTOS\Source/tasks.c ****             /* Should only reach here if a task calls xTaskEndScheduler(). */
2095:..\FreeRTOS\Source/tasks.c ****         }
2096:..\FreeRTOS\Source/tasks.c ****     }
2097:..\FreeRTOS\Source/tasks.c ****     else
2098:..\FreeRTOS\Source/tasks.c ****     {
2099:..\FreeRTOS\Source/tasks.c ****         /* This line will only be reached if the kernel could not be started,
2100:..\FreeRTOS\Source/tasks.c ****          * because there was not enough FreeRTOS heap to create the idle task
2101:..\FreeRTOS\Source/tasks.c ****          * or the timer task. */
2102:..\FreeRTOS\Source/tasks.c ****         configASSERT( xReturn != errCOULD_NOT_ALLOCATE_REQUIRED_MEMORY );
 2018              		.loc 1 2102 0
 2019 007e 0C4B     		ldr	r3, .L156+24
 2020 0080 1B88     		ldrh	r3, [r3]
 2021 0082 002B     		cmp	r3, #0
 2022 0084 01D1     		bne	.L154
 2023              		.loc 1 2102 0 is_stmt 0 discriminator 1
 2024              		.syntax divided
 2025              	@ 2102 "..\FreeRTOS\Source\tasks.c" 1
 2026 0086 72B6     		 cpsid i 
 2027              	@ 0 "" 2
ARM GAS  C:\Users\Jason\AppData\Local\Temp\cclSZdbR.s 			page 74


 2028              		.thumb
 2029              		.syntax unified
 2030              	.L155:
 2031              		.loc 1 2102 0 discriminator 2
 2032 0088 FEE7     		b	.L155
 2033              	.L154:
2103:..\FreeRTOS\Source/tasks.c ****     }
2104:..\FreeRTOS\Source/tasks.c **** 
2105:..\FreeRTOS\Source/tasks.c ****     /* Prevent compiler warnings if INCLUDE_xTaskGetIdleTaskHandle is set to 0,
2106:..\FreeRTOS\Source/tasks.c ****      * meaning xIdleTaskHandle is not used anywhere else. */
2107:..\FreeRTOS\Source/tasks.c ****     ( void ) xIdleTaskHandle;
2108:..\FreeRTOS\Source/tasks.c **** 
2109:..\FreeRTOS\Source/tasks.c ****     /* OpenOCD makes use of uxTopUsedPriority for thread debugging. Prevent uxTopUsedPriority
2110:..\FreeRTOS\Source/tasks.c ****      * from getting optimized out as it is no longer used by the kernel. */
2111:..\FreeRTOS\Source/tasks.c ****     ( void ) uxTopUsedPriority;
 2034              		.loc 1 2111 0 is_stmt 1
 2035 008a 0A4B     		ldr	r3, .L156+28
 2036 008c 1B68     		ldr	r3, [r3]
2112:..\FreeRTOS\Source/tasks.c **** }
 2037              		.loc 1 2112 0
 2038 008e C046     		nop
 2039 0090 BD46     		mov	sp, r7
 2040 0092 05B0     		add	sp, sp, #20
 2041              		@ sp needed
 2042 0094 90BD     		pop	{r4, r7, pc}
 2043              	.L157:
 2044 0096 C046     		.align	2
 2045              	.L156:
 2046 0098 00000000 		.word	.LC46
 2047 009c 00000000 		.word	prvIdleTask
 2048 00a0 FC000000 		.word	xIdleTaskHandle
 2049 00a4 F8000000 		.word	xNextTaskUnblockTime
 2050 00a8 E4000000 		.word	xSchedulerRunning
 2051 00ac DC000000 		.word	xTickCount
 2052 00b0 00000000 		.word	x
 2053 00b4 00000000 		.word	uxTopUsedPriority
 2054              		.cfi_endproc
 2055              	.LFE14:
 2056              		.size	vTaskStartScheduler, .-vTaskStartScheduler
 2057              		.section	.text.vTaskEndScheduler,"ax",%progbits
 2058              		.align	2
 2059              		.global	vTaskEndScheduler
 2060              		.code	16
 2061              		.thumb_func
 2062              		.type	vTaskEndScheduler, %function
 2063              	vTaskEndScheduler:
 2064              	.LFB15:
2113:..\FreeRTOS\Source/tasks.c **** /*-----------------------------------------------------------*/
2114:..\FreeRTOS\Source/tasks.c **** 
2115:..\FreeRTOS\Source/tasks.c **** void vTaskEndScheduler( void )
2116:..\FreeRTOS\Source/tasks.c **** {
 2065              		.loc 1 2116 0
 2066              		.cfi_startproc
 2067              		@ args = 0, pretend = 0, frame = 0
 2068              		@ frame_needed = 1, uses_anonymous_args = 0
 2069 0000 80B5     		push	{r7, lr}
 2070              		.cfi_def_cfa_offset 8
ARM GAS  C:\Users\Jason\AppData\Local\Temp\cclSZdbR.s 			page 75


 2071              		.cfi_offset 7, -8
 2072              		.cfi_offset 14, -4
 2073 0002 00AF     		add	r7, sp, #0
 2074              		.cfi_def_cfa_register 7
2117:..\FreeRTOS\Source/tasks.c ****     /* Stop the scheduler interrupts and call the portable scheduler end
2118:..\FreeRTOS\Source/tasks.c ****      * routine so the original ISRs can be restored if necessary.  The port
2119:..\FreeRTOS\Source/tasks.c ****      * layer must ensure interrupts enable  bit is left in the correct state. */
2120:..\FreeRTOS\Source/tasks.c ****     portDISABLE_INTERRUPTS();
 2075              		.loc 1 2120 0
 2076              		.syntax divided
 2077              	@ 2120 "..\FreeRTOS\Source\tasks.c" 1
 2078 0004 72B6     		 cpsid i 
 2079              	@ 0 "" 2
2121:..\FreeRTOS\Source/tasks.c ****     xSchedulerRunning = pdFALSE;
 2080              		.loc 1 2121 0
 2081              		.thumb
 2082              		.syntax unified
 2083 0006 044B     		ldr	r3, .L159
 2084 0008 0022     		movs	r2, #0
 2085 000a 1A60     		str	r2, [r3]
2122:..\FreeRTOS\Source/tasks.c ****     vPortEndScheduler();
 2086              		.loc 1 2122 0
 2087 000c FFF7FEFF 		bl	vPortEndScheduler
2123:..\FreeRTOS\Source/tasks.c **** }
 2088              		.loc 1 2123 0
 2089 0010 C046     		nop
 2090 0012 BD46     		mov	sp, r7
 2091              		@ sp needed
 2092 0014 80BD     		pop	{r7, pc}
 2093              	.L160:
 2094 0016 C046     		.align	2
 2095              	.L159:
 2096 0018 E4000000 		.word	xSchedulerRunning
 2097              		.cfi_endproc
 2098              	.LFE15:
 2099              		.size	vTaskEndScheduler, .-vTaskEndScheduler
 2100              		.section	.text.vTaskSuspendAll,"ax",%progbits
 2101              		.align	2
 2102              		.global	vTaskSuspendAll
 2103              		.code	16
 2104              		.thumb_func
 2105              		.type	vTaskSuspendAll, %function
 2106              	vTaskSuspendAll:
 2107              	.LFB16:
2124:..\FreeRTOS\Source/tasks.c **** /*----------------------------------------------------------*/
2125:..\FreeRTOS\Source/tasks.c **** 
2126:..\FreeRTOS\Source/tasks.c **** void vTaskSuspendAll( void )
2127:..\FreeRTOS\Source/tasks.c **** {
 2108              		.loc 1 2127 0
 2109              		.cfi_startproc
 2110              		@ args = 0, pretend = 0, frame = 0
 2111              		@ frame_needed = 1, uses_anonymous_args = 0
 2112 0000 80B5     		push	{r7, lr}
 2113              		.cfi_def_cfa_offset 8
 2114              		.cfi_offset 7, -8
 2115              		.cfi_offset 14, -4
 2116 0002 00AF     		add	r7, sp, #0
ARM GAS  C:\Users\Jason\AppData\Local\Temp\cclSZdbR.s 			page 76


 2117              		.cfi_def_cfa_register 7
