ARM GAS  C:\Users\Jason\AppData\Local\Temp\cc2RQUqt.s 			page 1


   1              		.syntax unified
   2              		.cpu cortex-m0
   3              		.fpu softvfp
   4              		.eabi_attribute 20, 1
   5              		.eabi_attribute 21, 1
   6              		.eabi_attribute 23, 3
   7              		.eabi_attribute 24, 1
   8              		.eabi_attribute 25, 1
   9              		.eabi_attribute 26, 1
  10              		.eabi_attribute 30, 6
  11              		.eabi_attribute 34, 0
  12              		.eabi_attribute 18, 4
  13              		.thumb
  14              		.syntax unified
  15              		.file	"timers.c"
  16              		.text
  17              	.Ltext0:
  18              		.cfi_sections	.debug_frame
  19              		.comm	x,2,2
  20              		.bss
  21              		.align	2
  22              	xActiveTimerList1:
  23 0000 00000000 		.space	20
  23      00000000 
  23      00000000 
  23      00000000 
  23      00000000 
  24              		.align	2
  25              	xActiveTimerList2:
  26 0014 00000000 		.space	20
  26      00000000 
  26      00000000 
  26      00000000 
  26      00000000 
  27              		.align	2
  28              	pxCurrentTimerList:
  29 0028 00000000 		.space	4
  30              		.align	2
  31              	pxOverflowTimerList:
  32 002c 00000000 		.space	4
  33              		.align	2
  34              	xTimerQueue:
  35 0030 00000000 		.space	4
  36              		.align	2
  37              	xTimerTaskHandle:
  38 0034 00000000 		.space	4
  39              		.section	.rodata
  40              		.align	2
  41              	.LC1:
  42 0000 546D7220 		.ascii	"Tmr Svc\000"
  42      53766300 
  43              		.section	.text.xTimerCreateTimerTask,"ax",%progbits
  44              		.align	2
  45              		.global	xTimerCreateTimerTask
  46              		.code	16
  47              		.thumb_func
  48              		.type	xTimerCreateTimerTask, %function
ARM GAS  C:\Users\Jason\AppData\Local\Temp\cc2RQUqt.s 			page 2


  49              	xTimerCreateTimerTask:
  50              	.LFB0:
  51              		.file 1 "..\\FreeRTOS\\Source\\timers.c"
   1:..\FreeRTOS\Source/timers.c **** /*
   2:..\FreeRTOS\Source/timers.c ****  * FreeRTOS Kernel V10.4.3
   3:..\FreeRTOS\Source/timers.c ****  * Copyright (C) 2020 Amazon.com, Inc. or its affiliates.  All Rights Reserved.
   4:..\FreeRTOS\Source/timers.c ****  *
   5:..\FreeRTOS\Source/timers.c ****  * Permission is hereby granted, free of charge, to any person obtaining a copy of
   6:..\FreeRTOS\Source/timers.c ****  * this software and associated documentation files (the "Software"), to deal in
   7:..\FreeRTOS\Source/timers.c ****  * the Software without restriction, including without limitation the rights to
   8:..\FreeRTOS\Source/timers.c ****  * use, copy, modify, merge, publish, distribute, sublicense, and/or sell copies of
   9:..\FreeRTOS\Source/timers.c ****  * the Software, and to permit persons to whom the Software is furnished to do so,
  10:..\FreeRTOS\Source/timers.c ****  * subject to the following conditions:
  11:..\FreeRTOS\Source/timers.c ****  *
  12:..\FreeRTOS\Source/timers.c ****  * The above copyright notice and this permission notice shall be included in all
  13:..\FreeRTOS\Source/timers.c ****  * copies or substantial portions of the Software.
  14:..\FreeRTOS\Source/timers.c ****  *
  15:..\FreeRTOS\Source/timers.c ****  * THE SOFTWARE IS PROVIDED "AS IS", WITHOUT WARRANTY OF ANY KIND, EXPRESS OR
  16:..\FreeRTOS\Source/timers.c ****  * IMPLIED, INCLUDING BUT NOT LIMITED TO THE WARRANTIES OF MERCHANTABILITY, FITNESS
  17:..\FreeRTOS\Source/timers.c ****  * FOR A PARTICULAR PURPOSE AND NONINFRINGEMENT. IN NO EVENT SHALL THE AUTHORS OR
  18:..\FreeRTOS\Source/timers.c ****  * COPYRIGHT HOLDERS BE LIABLE FOR ANY CLAIM, DAMAGES OR OTHER LIABILITY, WHETHER
  19:..\FreeRTOS\Source/timers.c ****  * IN AN ACTION OF CONTRACT, TORT OR OTHERWISE, ARISING FROM, OUT OF OR IN
  20:..\FreeRTOS\Source/timers.c ****  * CONNECTION WITH THE SOFTWARE OR THE USE OR OTHER DEALINGS IN THE SOFTWARE.
  21:..\FreeRTOS\Source/timers.c ****  *
  22:..\FreeRTOS\Source/timers.c ****  * https://www.FreeRTOS.org
  23:..\FreeRTOS\Source/timers.c ****  * https://github.com/FreeRTOS
  24:..\FreeRTOS\Source/timers.c ****  *
  25:..\FreeRTOS\Source/timers.c ****  */
  26:..\FreeRTOS\Source/timers.c **** 
  27:..\FreeRTOS\Source/timers.c **** /* Standard includes. */
  28:..\FreeRTOS\Source/timers.c **** #include <stdlib.h>
  29:..\FreeRTOS\Source/timers.c **** 
  30:..\FreeRTOS\Source/timers.c **** /* Defining MPU_WRAPPERS_INCLUDED_FROM_API_FILE prevents task.h from redefining
  31:..\FreeRTOS\Source/timers.c ****  * all the API functions to use the MPU wrappers.  That should only be done when
  32:..\FreeRTOS\Source/timers.c ****  * task.h is included from an application file. */
  33:..\FreeRTOS\Source/timers.c **** #define MPU_WRAPPERS_INCLUDED_FROM_API_FILE
  34:..\FreeRTOS\Source/timers.c **** 
  35:..\FreeRTOS\Source/timers.c **** #include "FreeRTOS.h"
  36:..\FreeRTOS\Source/timers.c **** #include "task.h"
  37:..\FreeRTOS\Source/timers.c **** #include "queue.h"
  38:..\FreeRTOS\Source/timers.c **** #include "timers.h"
  39:..\FreeRTOS\Source/timers.c **** 
  40:..\FreeRTOS\Source/timers.c **** #if ( INCLUDE_xTimerPendFunctionCall == 1 ) && ( configUSE_TIMERS == 0 )
  41:..\FreeRTOS\Source/timers.c ****     #error configUSE_TIMERS must be set to 1 to make the xTimerPendFunctionCall() function availabl
  42:..\FreeRTOS\Source/timers.c **** #endif
  43:..\FreeRTOS\Source/timers.c **** 
  44:..\FreeRTOS\Source/timers.c **** /* Lint e9021, e961 and e750 are suppressed as a MISRA exception justified
  45:..\FreeRTOS\Source/timers.c ****  * because the MPU ports require MPU_WRAPPERS_INCLUDED_FROM_API_FILE to be defined
  46:..\FreeRTOS\Source/timers.c ****  * for the header files above, but not in this file, in order to generate the
  47:..\FreeRTOS\Source/timers.c ****  * correct privileged Vs unprivileged linkage and placement. */
  48:..\FreeRTOS\Source/timers.c **** #undef MPU_WRAPPERS_INCLUDED_FROM_API_FILE /*lint !e9021 !e961 !e750. */
  49:..\FreeRTOS\Source/timers.c **** 
  50:..\FreeRTOS\Source/timers.c **** 
  51:..\FreeRTOS\Source/timers.c **** /* This entire source file will be skipped if the application is not configured
  52:..\FreeRTOS\Source/timers.c ****  * to include software timer functionality.  This #if is closed at the very bottom
  53:..\FreeRTOS\Source/timers.c ****  * of this file.  If you want to include software timer functionality then ensure
  54:..\FreeRTOS\Source/timers.c ****  * configUSE_TIMERS is set to 1 in FreeRTOSConfig.h. */
ARM GAS  C:\Users\Jason\AppData\Local\Temp\cc2RQUqt.s 			page 3


  55:..\FreeRTOS\Source/timers.c **** #if ( configUSE_TIMERS == 1 )
  56:..\FreeRTOS\Source/timers.c **** 
  57:..\FreeRTOS\Source/timers.c **** /* Misc definitions. */
  58:..\FreeRTOS\Source/timers.c ****     #define tmrNO_DELAY    ( TickType_t ) 0U
  59:..\FreeRTOS\Source/timers.c **** 
  60:..\FreeRTOS\Source/timers.c **** /* The name assigned to the timer service task.  This can be overridden by
  61:..\FreeRTOS\Source/timers.c ****  * defining trmTIMER_SERVICE_TASK_NAME in FreeRTOSConfig.h. */
  62:..\FreeRTOS\Source/timers.c ****     #ifndef configTIMER_SERVICE_TASK_NAME
  63:..\FreeRTOS\Source/timers.c ****         #define configTIMER_SERVICE_TASK_NAME    "Tmr Svc"
  64:..\FreeRTOS\Source/timers.c ****     #endif
  65:..\FreeRTOS\Source/timers.c **** 
  66:..\FreeRTOS\Source/timers.c **** /* Bit definitions used in the ucStatus member of a timer structure. */
  67:..\FreeRTOS\Source/timers.c ****     #define tmrSTATUS_IS_ACTIVE                  ( ( uint8_t ) 0x01 )
  68:..\FreeRTOS\Source/timers.c ****     #define tmrSTATUS_IS_STATICALLY_ALLOCATED    ( ( uint8_t ) 0x02 )
  69:..\FreeRTOS\Source/timers.c ****     #define tmrSTATUS_IS_AUTORELOAD              ( ( uint8_t ) 0x04 )
  70:..\FreeRTOS\Source/timers.c **** 
  71:..\FreeRTOS\Source/timers.c **** /* The definition of the timers themselves. */
  72:..\FreeRTOS\Source/timers.c ****     typedef struct tmrTimerControl                  /* The old naming convention is used to prevent
  73:..\FreeRTOS\Source/timers.c ****     {
  74:..\FreeRTOS\Source/timers.c ****         const char * pcTimerName;                   /*<< Text name.  This is not used by the kernel
  75:..\FreeRTOS\Source/timers.c ****         ListItem_t xTimerListItem;                  /*<< Standard linked list item as used by all k
  76:..\FreeRTOS\Source/timers.c ****         TickType_t xTimerPeriodInTicks;             /*<< How quickly and often the timer expires. *
  77:..\FreeRTOS\Source/timers.c ****         void * pvTimerID;                           /*<< An ID to identify the timer.  This allows 
  78:..\FreeRTOS\Source/timers.c ****         TimerCallbackFunction_t pxCallbackFunction; /*<< The function that will be called when the 
  79:..\FreeRTOS\Source/timers.c ****         #if ( configUSE_TRACE_FACILITY == 1 )
  80:..\FreeRTOS\Source/timers.c ****             UBaseType_t uxTimerNumber;              /*<< An ID assigned by trace tools such as Free
  81:..\FreeRTOS\Source/timers.c ****         #endif
  82:..\FreeRTOS\Source/timers.c ****         uint8_t ucStatus;                           /*<< Holds bits to say if the timer was statica
  83:..\FreeRTOS\Source/timers.c ****     } xTIMER;
  84:..\FreeRTOS\Source/timers.c **** 
  85:..\FreeRTOS\Source/timers.c **** /* The old xTIMER name is maintained above then typedefed to the new Timer_t
  86:..\FreeRTOS\Source/timers.c ****  * name below to enable the use of older kernel aware debuggers. */
  87:..\FreeRTOS\Source/timers.c ****     typedef xTIMER Timer_t;
  88:..\FreeRTOS\Source/timers.c **** 
  89:..\FreeRTOS\Source/timers.c **** /* The definition of messages that can be sent and received on the timer queue.
  90:..\FreeRTOS\Source/timers.c ****  * Two types of message can be queued - messages that manipulate a software timer,
  91:..\FreeRTOS\Source/timers.c ****  * and messages that request the execution of a non-timer related callback.  The
  92:..\FreeRTOS\Source/timers.c ****  * two message types are defined in two separate structures, xTimerParametersType
  93:..\FreeRTOS\Source/timers.c ****  * and xCallbackParametersType respectively. */
  94:..\FreeRTOS\Source/timers.c ****     typedef struct tmrTimerParameters
  95:..\FreeRTOS\Source/timers.c ****     {
  96:..\FreeRTOS\Source/timers.c ****         TickType_t xMessageValue; /*<< An optional value used by a subset of commands, for example,
  97:..\FreeRTOS\Source/timers.c ****         Timer_t * pxTimer;        /*<< The timer to which the command will be applied. */
  98:..\FreeRTOS\Source/timers.c ****     } TimerParameter_t;
  99:..\FreeRTOS\Source/timers.c **** 
 100:..\FreeRTOS\Source/timers.c **** 
 101:..\FreeRTOS\Source/timers.c ****     typedef struct tmrCallbackParameters
 102:..\FreeRTOS\Source/timers.c ****     {
 103:..\FreeRTOS\Source/timers.c ****         PendedFunction_t pxCallbackFunction; /* << The callback function to execute. */
 104:..\FreeRTOS\Source/timers.c ****         void * pvParameter1;                 /* << The value that will be used as the callback func
 105:..\FreeRTOS\Source/timers.c ****         uint32_t ulParameter2;               /* << The value that will be used as the callback func
 106:..\FreeRTOS\Source/timers.c ****     } CallbackParameters_t;
 107:..\FreeRTOS\Source/timers.c **** 
 108:..\FreeRTOS\Source/timers.c **** /* The structure that contains the two message types, along with an identifier
 109:..\FreeRTOS\Source/timers.c ****  * that is used to determine which message type is valid. */
 110:..\FreeRTOS\Source/timers.c ****     typedef struct tmrTimerQueueMessage
 111:..\FreeRTOS\Source/timers.c ****     {
ARM GAS  C:\Users\Jason\AppData\Local\Temp\cc2RQUqt.s 			page 4


 112:..\FreeRTOS\Source/timers.c ****         BaseType_t xMessageID; /*<< The command being sent to the timer service task. */
 113:..\FreeRTOS\Source/timers.c ****         union
 114:..\FreeRTOS\Source/timers.c ****         {
 115:..\FreeRTOS\Source/timers.c ****             TimerParameter_t xTimerParameters;
 116:..\FreeRTOS\Source/timers.c **** 
 117:..\FreeRTOS\Source/timers.c ****             /* Don't include xCallbackParameters if it is not going to be used as
 118:..\FreeRTOS\Source/timers.c ****              * it makes the structure (and therefore the timer queue) larger. */
 119:..\FreeRTOS\Source/timers.c ****             #if ( INCLUDE_xTimerPendFunctionCall == 1 )
 120:..\FreeRTOS\Source/timers.c ****                 CallbackParameters_t xCallbackParameters;
 121:..\FreeRTOS\Source/timers.c ****             #endif /* INCLUDE_xTimerPendFunctionCall */
 122:..\FreeRTOS\Source/timers.c ****         } u;
 123:..\FreeRTOS\Source/timers.c ****     } DaemonTaskMessage_t;
 124:..\FreeRTOS\Source/timers.c **** 
 125:..\FreeRTOS\Source/timers.c **** /*lint -save -e956 A manual analysis and inspection has been used to determine
 126:..\FreeRTOS\Source/timers.c ****  * which static variables must be declared volatile. */
 127:..\FreeRTOS\Source/timers.c **** 
 128:..\FreeRTOS\Source/timers.c **** /* The list in which active timers are stored.  Timers are referenced in expire
 129:..\FreeRTOS\Source/timers.c ****  * time order, with the nearest expiry time at the front of the list.  Only the
 130:..\FreeRTOS\Source/timers.c ****  * timer service task is allowed to access these lists.
 131:..\FreeRTOS\Source/timers.c ****  * xActiveTimerList1 and xActiveTimerList2 could be at function scope but that
 132:..\FreeRTOS\Source/timers.c ****  * breaks some kernel aware debuggers, and debuggers that reply on removing the
 133:..\FreeRTOS\Source/timers.c ****  * static qualifier. */
 134:..\FreeRTOS\Source/timers.c ****     PRIVILEGED_DATA static List_t xActiveTimerList1;
 135:..\FreeRTOS\Source/timers.c ****     PRIVILEGED_DATA static List_t xActiveTimerList2;
 136:..\FreeRTOS\Source/timers.c ****     PRIVILEGED_DATA static List_t * pxCurrentTimerList;
 137:..\FreeRTOS\Source/timers.c ****     PRIVILEGED_DATA static List_t * pxOverflowTimerList;
 138:..\FreeRTOS\Source/timers.c **** 
 139:..\FreeRTOS\Source/timers.c **** /* A queue that is used to send commands to the timer service task. */
 140:..\FreeRTOS\Source/timers.c ****     PRIVILEGED_DATA static QueueHandle_t xTimerQueue = NULL;
 141:..\FreeRTOS\Source/timers.c ****     PRIVILEGED_DATA static TaskHandle_t xTimerTaskHandle = NULL;
 142:..\FreeRTOS\Source/timers.c **** 
 143:..\FreeRTOS\Source/timers.c **** /*lint -restore */
 144:..\FreeRTOS\Source/timers.c **** 
 145:..\FreeRTOS\Source/timers.c **** /*-----------------------------------------------------------*/
 146:..\FreeRTOS\Source/timers.c **** 
 147:..\FreeRTOS\Source/timers.c **** /*
 148:..\FreeRTOS\Source/timers.c ****  * Initialise the infrastructure used by the timer service task if it has not
 149:..\FreeRTOS\Source/timers.c ****  * been initialised already.
 150:..\FreeRTOS\Source/timers.c ****  */
 151:..\FreeRTOS\Source/timers.c ****     static void prvCheckForValidListAndQueue( void ) PRIVILEGED_FUNCTION;
 152:..\FreeRTOS\Source/timers.c **** 
 153:..\FreeRTOS\Source/timers.c **** /*
 154:..\FreeRTOS\Source/timers.c ****  * The timer service task (daemon).  Timer functionality is controlled by this
 155:..\FreeRTOS\Source/timers.c ****  * task.  Other tasks communicate with the timer service task using the
 156:..\FreeRTOS\Source/timers.c ****  * xTimerQueue queue.
 157:..\FreeRTOS\Source/timers.c ****  */
 158:..\FreeRTOS\Source/timers.c ****     static portTASK_FUNCTION_PROTO( prvTimerTask, pvParameters ) PRIVILEGED_FUNCTION;
 159:..\FreeRTOS\Source/timers.c **** 
 160:..\FreeRTOS\Source/timers.c **** /*
 161:..\FreeRTOS\Source/timers.c ****  * Called by the timer service task to interpret and process a command it
 162:..\FreeRTOS\Source/timers.c ****  * received on the timer queue.
 163:..\FreeRTOS\Source/timers.c ****  */
 164:..\FreeRTOS\Source/timers.c ****     static void prvProcessReceivedCommands( void ) PRIVILEGED_FUNCTION;
 165:..\FreeRTOS\Source/timers.c **** 
 166:..\FreeRTOS\Source/timers.c **** /*
 167:..\FreeRTOS\Source/timers.c ****  * Insert the timer into either xActiveTimerList1, or xActiveTimerList2,
 168:..\FreeRTOS\Source/timers.c ****  * depending on if the expire time causes a timer counter overflow.
ARM GAS  C:\Users\Jason\AppData\Local\Temp\cc2RQUqt.s 			page 5


 169:..\FreeRTOS\Source/timers.c ****  */
 170:..\FreeRTOS\Source/timers.c ****     static BaseType_t prvInsertTimerInActiveList( Timer_t * const pxTimer,
 171:..\FreeRTOS\Source/timers.c ****                                                   const TickType_t xNextExpiryTime,
 172:..\FreeRTOS\Source/timers.c ****                                                   const TickType_t xTimeNow,
 173:..\FreeRTOS\Source/timers.c ****                                                   const TickType_t xCommandTime ) PRIVILEGED_FUNCTI
 174:..\FreeRTOS\Source/timers.c **** 
 175:..\FreeRTOS\Source/timers.c **** /*
 176:..\FreeRTOS\Source/timers.c ****  * An active timer has reached its expire time.  Reload the timer if it is an
 177:..\FreeRTOS\Source/timers.c ****  * auto-reload timer, then call its callback.
 178:..\FreeRTOS\Source/timers.c ****  */
 179:..\FreeRTOS\Source/timers.c ****     static void prvProcessExpiredTimer( const TickType_t xNextExpireTime,
 180:..\FreeRTOS\Source/timers.c ****                                         const TickType_t xTimeNow ) PRIVILEGED_FUNCTION;
 181:..\FreeRTOS\Source/timers.c **** 
 182:..\FreeRTOS\Source/timers.c **** /*
 183:..\FreeRTOS\Source/timers.c ****  * The tick count has overflowed.  Switch the timer lists after ensuring the
 184:..\FreeRTOS\Source/timers.c ****  * current timer list does not still reference some timers.
 185:..\FreeRTOS\Source/timers.c ****  */
 186:..\FreeRTOS\Source/timers.c ****     static void prvSwitchTimerLists( void ) PRIVILEGED_FUNCTION;
 187:..\FreeRTOS\Source/timers.c **** 
 188:..\FreeRTOS\Source/timers.c **** /*
 189:..\FreeRTOS\Source/timers.c ****  * Obtain the current tick count, setting *pxTimerListsWereSwitched to pdTRUE
 190:..\FreeRTOS\Source/timers.c ****  * if a tick count overflow occurred since prvSampleTimeNow() was last called.
 191:..\FreeRTOS\Source/timers.c ****  */
 192:..\FreeRTOS\Source/timers.c ****     static TickType_t prvSampleTimeNow( BaseType_t * const pxTimerListsWereSwitched ) PRIVILEGED_FU
 193:..\FreeRTOS\Source/timers.c **** 
 194:..\FreeRTOS\Source/timers.c **** /*
 195:..\FreeRTOS\Source/timers.c ****  * If the timer list contains any active timers then return the expire time of
 196:..\FreeRTOS\Source/timers.c ****  * the timer that will expire first and set *pxListWasEmpty to false.  If the
 197:..\FreeRTOS\Source/timers.c ****  * timer list does not contain any timers then return 0 and set *pxListWasEmpty
 198:..\FreeRTOS\Source/timers.c ****  * to pdTRUE.
 199:..\FreeRTOS\Source/timers.c ****  */
 200:..\FreeRTOS\Source/timers.c ****     static TickType_t prvGetNextExpireTime( BaseType_t * const pxListWasEmpty ) PRIVILEGED_FUNCTION
 201:..\FreeRTOS\Source/timers.c **** 
 202:..\FreeRTOS\Source/timers.c **** /*
 203:..\FreeRTOS\Source/timers.c ****  * If a timer has expired, process it.  Otherwise, block the timer service task
 204:..\FreeRTOS\Source/timers.c ****  * until either a timer does expire or a command is received.
 205:..\FreeRTOS\Source/timers.c ****  */
 206:..\FreeRTOS\Source/timers.c ****     static void prvProcessTimerOrBlockTask( const TickType_t xNextExpireTime,
 207:..\FreeRTOS\Source/timers.c ****                                             BaseType_t xListWasEmpty ) PRIVILEGED_FUNCTION;
 208:..\FreeRTOS\Source/timers.c **** 
 209:..\FreeRTOS\Source/timers.c **** /*
 210:..\FreeRTOS\Source/timers.c ****  * Called after a Timer_t structure has been allocated either statically or
 211:..\FreeRTOS\Source/timers.c ****  * dynamically to fill in the structure's members.
 212:..\FreeRTOS\Source/timers.c ****  */
 213:..\FreeRTOS\Source/timers.c ****     static void prvInitialiseNewTimer( const char * const pcTimerName, /*lint !e971 Unqualified cha
 214:..\FreeRTOS\Source/timers.c ****                                        const TickType_t xTimerPeriodInTicks,
 215:..\FreeRTOS\Source/timers.c ****                                        const UBaseType_t uxAutoReload,
 216:..\FreeRTOS\Source/timers.c ****                                        void * const pvTimerID,
 217:..\FreeRTOS\Source/timers.c ****                                        TimerCallbackFunction_t pxCallbackFunction,
 218:..\FreeRTOS\Source/timers.c ****                                        Timer_t * pxNewTimer ) PRIVILEGED_FUNCTION;
 219:..\FreeRTOS\Source/timers.c **** /*-----------------------------------------------------------*/
 220:..\FreeRTOS\Source/timers.c **** 
 221:..\FreeRTOS\Source/timers.c ****     BaseType_t xTimerCreateTimerTask( void )
 222:..\FreeRTOS\Source/timers.c ****     {
  52              		.loc 1 222 0
  53              		.cfi_startproc
  54              		@ args = 0, pretend = 0, frame = 16
ARM GAS  C:\Users\Jason\AppData\Local\Temp\cc2RQUqt.s 			page 6


  55              		@ frame_needed = 1, uses_anonymous_args = 0
  56 0000 90B5     		push	{r4, r7, lr}
  57              		.cfi_def_cfa_offset 12
  58              		.cfi_offset 4, -12
  59              		.cfi_offset 7, -8
  60              		.cfi_offset 14, -4
  61 0002 89B0     		sub	sp, sp, #36
  62              		.cfi_def_cfa_offset 48
  63 0004 04AF     		add	r7, sp, #16
  64              		.cfi_def_cfa 7, 32
 223:..\FreeRTOS\Source/timers.c ****         BaseType_t xReturn = pdFAIL;
  65              		.loc 1 223 0
  66 0006 0023     		movs	r3, #0
  67 0008 FB60     		str	r3, [r7, #12]
 224:..\FreeRTOS\Source/timers.c **** 
 225:..\FreeRTOS\Source/timers.c ****         /* This function is called when the scheduler is started if
 226:..\FreeRTOS\Source/timers.c ****          * configUSE_TIMERS is set to 1.  Check that the infrastructure used by the
 227:..\FreeRTOS\Source/timers.c ****          * timer service task has been created/initialised.  If timers have already
 228:..\FreeRTOS\Source/timers.c ****          * been created then the initialisation will already have been performed. */
 229:..\FreeRTOS\Source/timers.c ****         prvCheckForValidListAndQueue();
  68              		.loc 1 229 0
  69 000a FFF7FEFF 		bl	prvCheckForValidListAndQueue
 230:..\FreeRTOS\Source/timers.c **** 
 231:..\FreeRTOS\Source/timers.c ****         if( xTimerQueue != NULL )
  70              		.loc 1 231 0
  71 000e 184B     		ldr	r3, .L7
  72 0010 1B68     		ldr	r3, [r3]
  73 0012 002B     		cmp	r3, #0
  74 0014 20D0     		beq	.L2
  75              	.LBB2:
 232:..\FreeRTOS\Source/timers.c ****         {
 233:..\FreeRTOS\Source/timers.c ****             #if ( configSUPPORT_STATIC_ALLOCATION == 1 )
 234:..\FreeRTOS\Source/timers.c ****                 {
 235:..\FreeRTOS\Source/timers.c ****                     StaticTask_t * pxTimerTaskTCBBuffer = NULL;
  76              		.loc 1 235 0
  77 0016 0023     		movs	r3, #0
  78 0018 BB60     		str	r3, [r7, #8]
 236:..\FreeRTOS\Source/timers.c ****                     StackType_t * pxTimerTaskStackBuffer = NULL;
  79              		.loc 1 236 0
  80 001a 0023     		movs	r3, #0
  81 001c 7B60     		str	r3, [r7, #4]
 237:..\FreeRTOS\Source/timers.c ****                     uint32_t ulTimerTaskStackSize;
 238:..\FreeRTOS\Source/timers.c **** 
 239:..\FreeRTOS\Source/timers.c ****                     vApplicationGetTimerTaskMemory( &pxTimerTaskTCBBuffer, &pxTimerTaskStackBuffer,
  82              		.loc 1 239 0
  83 001e 3A00     		movs	r2, r7
  84 0020 391D     		adds	r1, r7, #4
  85 0022 0823     		movs	r3, #8
  86 0024 FB18     		adds	r3, r7, r3
  87 0026 1800     		movs	r0, r3
  88 0028 FFF7FEFF 		bl	vApplicationGetTimerTaskMemory
 240:..\FreeRTOS\Source/timers.c ****                     xTimerTaskHandle = xTaskCreateStatic( prvTimerTask,
  89              		.loc 1 240 0
  90 002c 3C68     		ldr	r4, [r7]
  91 002e 7B68     		ldr	r3, [r7, #4]
  92 0030 BA68     		ldr	r2, [r7, #8]
  93 0032 1049     		ldr	r1, .L7+4
ARM GAS  C:\Users\Jason\AppData\Local\Temp\cc2RQUqt.s 			page 7


  94 0034 1048     		ldr	r0, .L7+8
  95 0036 0292     		str	r2, [sp, #8]
  96 0038 0193     		str	r3, [sp, #4]
  97 003a 0323     		movs	r3, #3
  98 003c 0093     		str	r3, [sp]
  99 003e 0023     		movs	r3, #0
 100 0040 2200     		movs	r2, r4
 101 0042 FFF7FEFF 		bl	xTaskCreateStatic
 102 0046 0200     		movs	r2, r0
 103 0048 0C4B     		ldr	r3, .L7+12
 104 004a 1A60     		str	r2, [r3]
 241:..\FreeRTOS\Source/timers.c ****                                                           configTIMER_SERVICE_TASK_NAME,
 242:..\FreeRTOS\Source/timers.c ****                                                           ulTimerTaskStackSize,
 243:..\FreeRTOS\Source/timers.c ****                                                           NULL,
 244:..\FreeRTOS\Source/timers.c ****                                                           ( ( UBaseType_t ) configTIMER_TASK_PRIORI
 245:..\FreeRTOS\Source/timers.c ****                                                           pxTimerTaskStackBuffer,
 246:..\FreeRTOS\Source/timers.c ****                                                           pxTimerTaskTCBBuffer );
 247:..\FreeRTOS\Source/timers.c **** 
 248:..\FreeRTOS\Source/timers.c ****                     if( xTimerTaskHandle != NULL )
 105              		.loc 1 248 0
 106 004c 0B4B     		ldr	r3, .L7+12
 107 004e 1B68     		ldr	r3, [r3]
 108 0050 002B     		cmp	r3, #0
 109 0052 01D0     		beq	.L2
 249:..\FreeRTOS\Source/timers.c ****                     {
 250:..\FreeRTOS\Source/timers.c ****                         xReturn = pdPASS;
 110              		.loc 1 250 0
 111 0054 0123     		movs	r3, #1
 112 0056 FB60     		str	r3, [r7, #12]
 113              	.L2:
 114              	.LBE2:
 251:..\FreeRTOS\Source/timers.c ****                     }
 252:..\FreeRTOS\Source/timers.c ****                 }
 253:..\FreeRTOS\Source/timers.c ****             #else /* if ( configSUPPORT_STATIC_ALLOCATION == 1 ) */
 254:..\FreeRTOS\Source/timers.c ****                 {
 255:..\FreeRTOS\Source/timers.c ****                     xReturn = xTaskCreate( prvTimerTask,
 256:..\FreeRTOS\Source/timers.c ****                                            configTIMER_SERVICE_TASK_NAME,
 257:..\FreeRTOS\Source/timers.c ****                                            configTIMER_TASK_STACK_DEPTH,
 258:..\FreeRTOS\Source/timers.c ****                                            NULL,
 259:..\FreeRTOS\Source/timers.c ****                                            ( ( UBaseType_t ) configTIMER_TASK_PRIORITY ) | portPRIV
 260:..\FreeRTOS\Source/timers.c ****                                            &xTimerTaskHandle );
 261:..\FreeRTOS\Source/timers.c ****                 }
 262:..\FreeRTOS\Source/timers.c ****             #endif /* configSUPPORT_STATIC_ALLOCATION */
 263:..\FreeRTOS\Source/timers.c ****         }
 264:..\FreeRTOS\Source/timers.c ****         else
 265:..\FreeRTOS\Source/timers.c ****         {
 266:..\FreeRTOS\Source/timers.c ****             mtCOVERAGE_TEST_MARKER();
 267:..\FreeRTOS\Source/timers.c ****         }
 268:..\FreeRTOS\Source/timers.c **** 
 269:..\FreeRTOS\Source/timers.c ****         configASSERT( xReturn );
 115              		.loc 1 269 0
 116 0058 094B     		ldr	r3, .L7+16
 117 005a 1B88     		ldrh	r3, [r3]
 118 005c 002B     		cmp	r3, #0
 119 005e 01D1     		bne	.L4
 120              		.loc 1 269 0 is_stmt 0 discriminator 1
 121              		.syntax divided
ARM GAS  C:\Users\Jason\AppData\Local\Temp\cc2RQUqt.s 			page 8


 122              	@ 269 "..\FreeRTOS\Source\timers.c" 1
 123 0060 72B6     		 cpsid i 
 124              	@ 0 "" 2
 125              		.thumb
 126              		.syntax unified
 127              	.L5:
 128 0062 FEE7     		b	.L5
 129              	.L4:
 270:..\FreeRTOS\Source/timers.c ****         return xReturn;
 130              		.loc 1 270 0 is_stmt 1
 131 0064 FB68     		ldr	r3, [r7, #12]
 271:..\FreeRTOS\Source/timers.c ****     }
 132              		.loc 1 271 0
 133 0066 1800     		movs	r0, r3
 134 0068 BD46     		mov	sp, r7
 135 006a 05B0     		add	sp, sp, #20
 136              		@ sp needed
 137 006c 90BD     		pop	{r4, r7, pc}
 138              	.L8:
 139 006e C046     		.align	2
 140              	.L7:
 141 0070 30000000 		.word	xTimerQueue
 142 0074 00000000 		.word	.LC1
 143 0078 00000000 		.word	prvTimerTask
 144 007c 34000000 		.word	xTimerTaskHandle
 145 0080 00000000 		.word	x
 146              		.cfi_endproc
 147              	.LFE0:
 148              		.size	xTimerCreateTimerTask, .-xTimerCreateTimerTask
 149              		.section	.text.xTimerCreate,"ax",%progbits
 150              		.align	2
 151              		.global	xTimerCreate
 152              		.code	16
 153              		.thumb_func
 154              		.type	xTimerCreate, %function
 155              	xTimerCreate:
 156              	.LFB1:
 272:..\FreeRTOS\Source/timers.c **** /*-----------------------------------------------------------*/
 273:..\FreeRTOS\Source/timers.c **** 
 274:..\FreeRTOS\Source/timers.c ****     #if ( configSUPPORT_DYNAMIC_ALLOCATION == 1 )
 275:..\FreeRTOS\Source/timers.c **** 
 276:..\FreeRTOS\Source/timers.c ****         TimerHandle_t xTimerCreate( const char * const pcTimerName, /*lint !e971 Unqualified char t
 277:..\FreeRTOS\Source/timers.c ****                                     const TickType_t xTimerPeriodInTicks,
 278:..\FreeRTOS\Source/timers.c ****                                     const UBaseType_t uxAutoReload,
 279:..\FreeRTOS\Source/timers.c ****                                     void * const pvTimerID,
 280:..\FreeRTOS\Source/timers.c ****                                     TimerCallbackFunction_t pxCallbackFunction )
 281:..\FreeRTOS\Source/timers.c ****         {
 157              		.loc 1 281 0
 158              		.cfi_startproc
 159              		@ args = 4, pretend = 0, frame = 24
 160              		@ frame_needed = 1, uses_anonymous_args = 0
 161 0000 90B5     		push	{r4, r7, lr}
 162              		.cfi_def_cfa_offset 12
 163              		.cfi_offset 4, -12
 164              		.cfi_offset 7, -8
 165              		.cfi_offset 14, -4
 166 0002 89B0     		sub	sp, sp, #36
ARM GAS  C:\Users\Jason\AppData\Local\Temp\cc2RQUqt.s 			page 9


 167              		.cfi_def_cfa_offset 48
 168 0004 02AF     		add	r7, sp, #8
 169              		.cfi_def_cfa 7, 40
 170 0006 F860     		str	r0, [r7, #12]
 171 0008 B960     		str	r1, [r7, #8]
 172 000a 7A60     		str	r2, [r7, #4]
 173 000c 3B60     		str	r3, [r7]
 282:..\FreeRTOS\Source/timers.c ****             Timer_t * pxNewTimer;
 283:..\FreeRTOS\Source/timers.c **** 
 284:..\FreeRTOS\Source/timers.c ****             pxNewTimer = ( Timer_t * ) pvPortMalloc( sizeof( Timer_t ) ); /*lint !e9087 !e9079 All 
 174              		.loc 1 284 0
 175 000e 2820     		movs	r0, #40
 176 0010 FFF7FEFF 		bl	pvPortMalloc
 177 0014 0300     		movs	r3, r0
 178 0016 7B61     		str	r3, [r7, #20]
 285:..\FreeRTOS\Source/timers.c **** 
 286:..\FreeRTOS\Source/timers.c ****             if( pxNewTimer != NULL )
 179              		.loc 1 286 0
 180 0018 7B69     		ldr	r3, [r7, #20]
 181 001a 002B     		cmp	r3, #0
 182 001c 0ED0     		beq	.L10
 287:..\FreeRTOS\Source/timers.c ****             {
 288:..\FreeRTOS\Source/timers.c ****                 /* Status is thus far zero as the timer is not created statically
 289:..\FreeRTOS\Source/timers.c ****                  * and has not been started.  The auto-reload bit may get set in
 290:..\FreeRTOS\Source/timers.c ****                  * prvInitialiseNewTimer. */
 291:..\FreeRTOS\Source/timers.c ****                 pxNewTimer->ucStatus = 0x00;
 183              		.loc 1 291 0
 184 001e 7B69     		ldr	r3, [r7, #20]
 185 0020 2422     		movs	r2, #36
 186 0022 0021     		movs	r1, #0
 187 0024 9954     		strb	r1, [r3, r2]
 292:..\FreeRTOS\Source/timers.c ****                 prvInitialiseNewTimer( pcTimerName, xTimerPeriodInTicks, uxAutoReload, pvTimerID, p
 188              		.loc 1 292 0
 189 0026 3C68     		ldr	r4, [r7]
 190 0028 7A68     		ldr	r2, [r7, #4]
 191 002a B968     		ldr	r1, [r7, #8]
 192 002c F868     		ldr	r0, [r7, #12]
 193 002e 7B69     		ldr	r3, [r7, #20]
 194 0030 0193     		str	r3, [sp, #4]
 195 0032 BB6A     		ldr	r3, [r7, #40]
 196 0034 0093     		str	r3, [sp]
 197 0036 2300     		movs	r3, r4
 198 0038 FFF7FEFF 		bl	prvInitialiseNewTimer
 199              	.L10:
 293:..\FreeRTOS\Source/timers.c ****             }
 294:..\FreeRTOS\Source/timers.c **** 
 295:..\FreeRTOS\Source/timers.c ****             return pxNewTimer;
 200              		.loc 1 295 0
 201 003c 7B69     		ldr	r3, [r7, #20]
 296:..\FreeRTOS\Source/timers.c ****         }
 202              		.loc 1 296 0
 203 003e 1800     		movs	r0, r3
 204 0040 BD46     		mov	sp, r7
 205 0042 07B0     		add	sp, sp, #28
 206              		@ sp needed
 207 0044 90BD     		pop	{r4, r7, pc}
 208              		.cfi_endproc
ARM GAS  C:\Users\Jason\AppData\Local\Temp\cc2RQUqt.s 			page 10


 209              	.LFE1:
 210              		.size	xTimerCreate, .-xTimerCreate
 211 0046 C046     		.section	.text.xTimerCreateStatic,"ax",%progbits
 212              		.align	2
 213              		.global	xTimerCreateStatic
 214              		.code	16
 215              		.thumb_func
 216              		.type	xTimerCreateStatic, %function
 217              	xTimerCreateStatic:
 218              	.LFB2:
 297:..\FreeRTOS\Source/timers.c **** 
 298:..\FreeRTOS\Source/timers.c ****     #endif /* configSUPPORT_DYNAMIC_ALLOCATION */
 299:..\FreeRTOS\Source/timers.c **** /*-----------------------------------------------------------*/
 300:..\FreeRTOS\Source/timers.c **** 
 301:..\FreeRTOS\Source/timers.c ****     #if ( configSUPPORT_STATIC_ALLOCATION == 1 )
 302:..\FreeRTOS\Source/timers.c **** 
 303:..\FreeRTOS\Source/timers.c ****         TimerHandle_t xTimerCreateStatic( const char * const pcTimerName, /*lint !e971 Unqualified 
 304:..\FreeRTOS\Source/timers.c ****                                           const TickType_t xTimerPeriodInTicks,
 305:..\FreeRTOS\Source/timers.c ****                                           const UBaseType_t uxAutoReload,
 306:..\FreeRTOS\Source/timers.c ****                                           void * const pvTimerID,
 307:..\FreeRTOS\Source/timers.c ****                                           TimerCallbackFunction_t pxCallbackFunction,
 308:..\FreeRTOS\Source/timers.c ****                                           StaticTimer_t * pxTimerBuffer )
 309:..\FreeRTOS\Source/timers.c ****         {
 219              		.loc 1 309 0
 220              		.cfi_startproc
 221              		@ args = 8, pretend = 0, frame = 24
 222              		@ frame_needed = 1, uses_anonymous_args = 0
 223 0000 90B5     		push	{r4, r7, lr}
 224              		.cfi_def_cfa_offset 12
 225              		.cfi_offset 4, -12
 226              		.cfi_offset 7, -8
 227              		.cfi_offset 14, -4
 228 0002 89B0     		sub	sp, sp, #36
 229              		.cfi_def_cfa_offset 48
 230 0004 02AF     		add	r7, sp, #8
 231              		.cfi_def_cfa 7, 40
 232 0006 F860     		str	r0, [r7, #12]
 233 0008 B960     		str	r1, [r7, #8]
 234 000a 7A60     		str	r2, [r7, #4]
 235 000c 3B60     		str	r3, [r7]
 236              	.LBB3:
 310:..\FreeRTOS\Source/timers.c ****             Timer_t * pxNewTimer;
 311:..\FreeRTOS\Source/timers.c **** 
 312:..\FreeRTOS\Source/timers.c ****             #if ( configASSERT_DEFINED == 1 )
 313:..\FreeRTOS\Source/timers.c ****                 {
 314:..\FreeRTOS\Source/timers.c ****                     /* Sanity check that the size of the structure used to declare a
 315:..\FreeRTOS\Source/timers.c ****                      * variable of type StaticTimer_t equals the size of the real timer
 316:..\FreeRTOS\Source/timers.c ****                      * structure. */
 317:..\FreeRTOS\Source/timers.c ****                     volatile size_t xSize = sizeof( StaticTimer_t );
 237              		.loc 1 317 0
 238 000e 2823     		movs	r3, #40
 239 0010 3B61     		str	r3, [r7, #16]
 318:..\FreeRTOS\Source/timers.c ****                     configASSERT( xSize == sizeof( Timer_t ) );
 240              		.loc 1 318 0
 241 0012 134B     		ldr	r3, .L19
 242 0014 1B88     		ldrh	r3, [r3]
 243 0016 002B     		cmp	r3, #0
ARM GAS  C:\Users\Jason\AppData\Local\Temp\cc2RQUqt.s 			page 11


 244 0018 01D1     		bne	.L13
 245              		.loc 1 318 0 is_stmt 0 discriminator 1
 246              		.syntax divided
 247              	@ 318 "..\FreeRTOS\Source\timers.c" 1
 248 001a 72B6     		 cpsid i 
 249              	@ 0 "" 2
 250              		.thumb
 251              		.syntax unified
 252              	.L14:
 253 001c FEE7     		b	.L14
 254              	.L13:
 255              		.loc 1 318 0 discriminator 2
 256 001e 3B69     		ldr	r3, [r7, #16]
 319:..\FreeRTOS\Source/timers.c ****                     ( void ) xSize; /* Keeps lint quiet when configASSERT() is not defined. */
 257              		.loc 1 319 0 is_stmt 1 discriminator 2
 258 0020 3B69     		ldr	r3, [r7, #16]
 259              	.LBE3:
 320:..\FreeRTOS\Source/timers.c ****                 }
 321:..\FreeRTOS\Source/timers.c ****             #endif /* configASSERT_DEFINED */
 322:..\FreeRTOS\Source/timers.c **** 
 323:..\FreeRTOS\Source/timers.c ****             /* A pointer to a StaticTimer_t structure MUST be provided, use it. */
 324:..\FreeRTOS\Source/timers.c ****             configASSERT( pxTimerBuffer );
 260              		.loc 1 324 0 discriminator 2
 261 0022 0F4B     		ldr	r3, .L19
 262 0024 1B88     		ldrh	r3, [r3]
 263 0026 002B     		cmp	r3, #0
 264 0028 01D1     		bne	.L15
 265              		.loc 1 324 0 is_stmt 0 discriminator 1
 266              		.syntax divided
 267              	@ 324 "..\FreeRTOS\Source\timers.c" 1
 268 002a 72B6     		 cpsid i 
 269              	@ 0 "" 2
 270              		.thumb
 271              		.syntax unified
 272              	.L16:
 273              		.loc 1 324 0 discriminator 2
 274 002c FEE7     		b	.L16
 275              	.L15:
 325:..\FreeRTOS\Source/timers.c ****             pxNewTimer = ( Timer_t * ) pxTimerBuffer; /*lint !e740 !e9087 StaticTimer_t is a pointe
 276              		.loc 1 325 0 is_stmt 1
 277 002e FB6A     		ldr	r3, [r7, #44]
 278 0030 7B61     		str	r3, [r7, #20]
 326:..\FreeRTOS\Source/timers.c **** 
 327:..\FreeRTOS\Source/timers.c ****             if( pxNewTimer != NULL )
 279              		.loc 1 327 0
 280 0032 7B69     		ldr	r3, [r7, #20]
 281 0034 002B     		cmp	r3, #0
 282 0036 0ED0     		beq	.L17
 328:..\FreeRTOS\Source/timers.c ****             {
 329:..\FreeRTOS\Source/timers.c ****                 /* Timers can be created statically or dynamically so note this
 330:..\FreeRTOS\Source/timers.c ****                  * timer was created statically in case it is later deleted.  The
 331:..\FreeRTOS\Source/timers.c ****                  * auto-reload bit may get set in prvInitialiseNewTimer(). */
 332:..\FreeRTOS\Source/timers.c ****                 pxNewTimer->ucStatus = tmrSTATUS_IS_STATICALLY_ALLOCATED;
 283              		.loc 1 332 0
 284 0038 7B69     		ldr	r3, [r7, #20]
 285 003a 2422     		movs	r2, #36
 286 003c 0221     		movs	r1, #2
ARM GAS  C:\Users\Jason\AppData\Local\Temp\cc2RQUqt.s 			page 12


 287 003e 9954     		strb	r1, [r3, r2]
 333:..\FreeRTOS\Source/timers.c **** 
 334:..\FreeRTOS\Source/timers.c ****                 prvInitialiseNewTimer( pcTimerName, xTimerPeriodInTicks, uxAutoReload, pvTimerID, p
 288              		.loc 1 334 0
 289 0040 3C68     		ldr	r4, [r7]
 290 0042 7A68     		ldr	r2, [r7, #4]
 291 0044 B968     		ldr	r1, [r7, #8]
 292 0046 F868     		ldr	r0, [r7, #12]
 293 0048 7B69     		ldr	r3, [r7, #20]
 294 004a 0193     		str	r3, [sp, #4]
 295 004c BB6A     		ldr	r3, [r7, #40]
 296 004e 0093     		str	r3, [sp]
 297 0050 2300     		movs	r3, r4
 298 0052 FFF7FEFF 		bl	prvInitialiseNewTimer
 299              	.L17:
 335:..\FreeRTOS\Source/timers.c ****             }
 336:..\FreeRTOS\Source/timers.c **** 
 337:..\FreeRTOS\Source/timers.c ****             return pxNewTimer;
 300              		.loc 1 337 0
 301 0056 7B69     		ldr	r3, [r7, #20]
 338:..\FreeRTOS\Source/timers.c ****         }
 302              		.loc 1 338 0
 303 0058 1800     		movs	r0, r3
 304 005a BD46     		mov	sp, r7
 305 005c 07B0     		add	sp, sp, #28
 306              		@ sp needed
 307 005e 90BD     		pop	{r4, r7, pc}
 308              	.L20:
 309              		.align	2
 310              	.L19:
 311 0060 00000000 		.word	x
 312              		.cfi_endproc
 313              	.LFE2:
 314              		.size	xTimerCreateStatic, .-xTimerCreateStatic
 315              		.section	.text.prvInitialiseNewTimer,"ax",%progbits
 316              		.align	2
 317              		.code	16
 318              		.thumb_func
 319              		.type	prvInitialiseNewTimer, %function
 320              	prvInitialiseNewTimer:
 321              	.LFB3:
 339:..\FreeRTOS\Source/timers.c **** 
 340:..\FreeRTOS\Source/timers.c ****     #endif /* configSUPPORT_STATIC_ALLOCATION */
 341:..\FreeRTOS\Source/timers.c **** /*-----------------------------------------------------------*/
 342:..\FreeRTOS\Source/timers.c **** 
 343:..\FreeRTOS\Source/timers.c ****     static void prvInitialiseNewTimer( const char * const pcTimerName, /*lint !e971 Unqualified cha
 344:..\FreeRTOS\Source/timers.c ****                                        const TickType_t xTimerPeriodInTicks,
 345:..\FreeRTOS\Source/timers.c ****                                        const UBaseType_t uxAutoReload,
 346:..\FreeRTOS\Source/timers.c ****                                        void * const pvTimerID,
 347:..\FreeRTOS\Source/timers.c ****                                        TimerCallbackFunction_t pxCallbackFunction,
 348:..\FreeRTOS\Source/timers.c ****                                        Timer_t * pxNewTimer )
 349:..\FreeRTOS\Source/timers.c ****     {
 322              		.loc 1 349 0
 323              		.cfi_startproc
 324              		@ args = 8, pretend = 0, frame = 16
 325              		@ frame_needed = 1, uses_anonymous_args = 0
 326 0000 80B5     		push	{r7, lr}
ARM GAS  C:\Users\Jason\AppData\Local\Temp\cc2RQUqt.s 			page 13


 327              		.cfi_def_cfa_offset 8
 328              		.cfi_offset 7, -8
 329              		.cfi_offset 14, -4
 330 0002 84B0     		sub	sp, sp, #16
 331              		.cfi_def_cfa_offset 24
 332 0004 00AF     		add	r7, sp, #0
 333              		.cfi_def_cfa_register 7
 334 0006 F860     		str	r0, [r7, #12]
 335 0008 B960     		str	r1, [r7, #8]
 336 000a 7A60     		str	r2, [r7, #4]
 337 000c 3B60     		str	r3, [r7]
 350:..\FreeRTOS\Source/timers.c ****         /* 0 is not a valid value for xTimerPeriodInTicks. */
 351:..\FreeRTOS\Source/timers.c ****         configASSERT( ( xTimerPeriodInTicks > 0 ) );
 338              		.loc 1 351 0
 339 000e 164B     		ldr	r3, .L26
 340 0010 1B88     		ldrh	r3, [r3]
 341 0012 002B     		cmp	r3, #0
 342 0014 01D1     		bne	.L22
 343              		.loc 1 351 0 is_stmt 0 discriminator 1
 344              		.syntax divided
 345              	@ 351 "..\FreeRTOS\Source\timers.c" 1
 346 0016 72B6     		 cpsid i 
 347              	@ 0 "" 2
 348              		.thumb
 349              		.syntax unified
 350              	.L23:
 351 0018 FEE7     		b	.L23
 352              	.L22:
 352:..\FreeRTOS\Source/timers.c **** 
 353:..\FreeRTOS\Source/timers.c ****         if( pxNewTimer != NULL )
 353              		.loc 1 353 0 is_stmt 1
 354 001a FB69     		ldr	r3, [r7, #28]
 355 001c 002B     		cmp	r3, #0
 356 001e 1ED0     		beq	.L25
 354:..\FreeRTOS\Source/timers.c ****         {
 355:..\FreeRTOS\Source/timers.c ****             /* Ensure the infrastructure used by the timer service task has been
 356:..\FreeRTOS\Source/timers.c ****              * created/initialised. */
 357:..\FreeRTOS\Source/timers.c ****             prvCheckForValidListAndQueue();
 357              		.loc 1 357 0
 358 0020 FFF7FEFF 		bl	prvCheckForValidListAndQueue
 358:..\FreeRTOS\Source/timers.c **** 
 359:..\FreeRTOS\Source/timers.c ****             /* Initialise the timer structure members using the function
 360:..\FreeRTOS\Source/timers.c ****              * parameters. */
 361:..\FreeRTOS\Source/timers.c ****             pxNewTimer->pcTimerName = pcTimerName;
 359              		.loc 1 361 0
 360 0024 FB69     		ldr	r3, [r7, #28]
 361 0026 FA68     		ldr	r2, [r7, #12]
 362 0028 1A60     		str	r2, [r3]
 362:..\FreeRTOS\Source/timers.c ****             pxNewTimer->xTimerPeriodInTicks = xTimerPeriodInTicks;
 363              		.loc 1 362 0
 364 002a FB69     		ldr	r3, [r7, #28]
 365 002c BA68     		ldr	r2, [r7, #8]
 366 002e 9A61     		str	r2, [r3, #24]
 363:..\FreeRTOS\Source/timers.c ****             pxNewTimer->pvTimerID = pvTimerID;
 367              		.loc 1 363 0
 368 0030 FB69     		ldr	r3, [r7, #28]
 369 0032 3A68     		ldr	r2, [r7]
ARM GAS  C:\Users\Jason\AppData\Local\Temp\cc2RQUqt.s 			page 14


 370 0034 DA61     		str	r2, [r3, #28]
 364:..\FreeRTOS\Source/timers.c ****             pxNewTimer->pxCallbackFunction = pxCallbackFunction;
 371              		.loc 1 364 0
 372 0036 FB69     		ldr	r3, [r7, #28]
 373 0038 BA69     		ldr	r2, [r7, #24]
 374 003a 1A62     		str	r2, [r3, #32]
 365:..\FreeRTOS\Source/timers.c ****             vListInitialiseItem( &( pxNewTimer->xTimerListItem ) );
 375              		.loc 1 365 0
 376 003c FB69     		ldr	r3, [r7, #28]
 377 003e 0433     		adds	r3, r3, #4
 378 0040 1800     		movs	r0, r3
 379 0042 FFF7FEFF 		bl	vListInitialiseItem
 366:..\FreeRTOS\Source/timers.c **** 
 367:..\FreeRTOS\Source/timers.c ****             if( uxAutoReload != pdFALSE )
 380              		.loc 1 367 0
 381 0046 7B68     		ldr	r3, [r7, #4]
 382 0048 002B     		cmp	r3, #0
 383 004a 08D0     		beq	.L25
 368:..\FreeRTOS\Source/timers.c ****             {
 369:..\FreeRTOS\Source/timers.c ****                 pxNewTimer->ucStatus |= tmrSTATUS_IS_AUTORELOAD;
 384              		.loc 1 369 0
 385 004c FB69     		ldr	r3, [r7, #28]
 386 004e 2422     		movs	r2, #36
 387 0050 9B5C     		ldrb	r3, [r3, r2]
 388 0052 0422     		movs	r2, #4
 389 0054 1343     		orrs	r3, r2
 390 0056 D9B2     		uxtb	r1, r3
 391 0058 FB69     		ldr	r3, [r7, #28]
 392 005a 2422     		movs	r2, #36
 393 005c 9954     		strb	r1, [r3, r2]
 394              	.L25:
 370:..\FreeRTOS\Source/timers.c ****             }
 371:..\FreeRTOS\Source/timers.c **** 
 372:..\FreeRTOS\Source/timers.c ****             traceTIMER_CREATE( pxNewTimer );
 373:..\FreeRTOS\Source/timers.c ****         }
 374:..\FreeRTOS\Source/timers.c ****     }
 395              		.loc 1 374 0
 396 005e C046     		nop
 397 0060 BD46     		mov	sp, r7
 398 0062 04B0     		add	sp, sp, #16
 399              		@ sp needed
 400 0064 80BD     		pop	{r7, pc}
 401              	.L27:
 402 0066 C046     		.align	2
 403              	.L26:
 404 0068 00000000 		.word	x
 405              		.cfi_endproc
 406              	.LFE3:
 407              		.size	prvInitialiseNewTimer, .-prvInitialiseNewTimer
 408              		.section	.text.xTimerGenericCommand,"ax",%progbits
 409              		.align	2
 410              		.global	xTimerGenericCommand
 411              		.code	16
 412              		.thumb_func
 413              		.type	xTimerGenericCommand, %function
 414              	xTimerGenericCommand:
 415              	.LFB4:
ARM GAS  C:\Users\Jason\AppData\Local\Temp\cc2RQUqt.s 			page 15


 375:..\FreeRTOS\Source/timers.c **** /*-----------------------------------------------------------*/
 376:..\FreeRTOS\Source/timers.c **** 
 377:..\FreeRTOS\Source/timers.c ****     BaseType_t xTimerGenericCommand( TimerHandle_t xTimer,
 378:..\FreeRTOS\Source/timers.c ****                                      const BaseType_t xCommandID,
 379:..\FreeRTOS\Source/timers.c ****                                      const TickType_t xOptionalValue,
 380:..\FreeRTOS\Source/timers.c ****                                      BaseType_t * const pxHigherPriorityTaskWoken,
 381:..\FreeRTOS\Source/timers.c ****                                      const TickType_t xTicksToWait )
 382:..\FreeRTOS\Source/timers.c ****     {
 416              		.loc 1 382 0
 417              		.cfi_startproc
 418              		@ args = 4, pretend = 0, frame = 32
 419              		@ frame_needed = 1, uses_anonymous_args = 0
 420 0000 80B5     		push	{r7, lr}
 421              		.cfi_def_cfa_offset 8
 422              		.cfi_offset 7, -8
 423              		.cfi_offset 14, -4
 424 0002 88B0     		sub	sp, sp, #32
 425              		.cfi_def_cfa_offset 40
 426 0004 00AF     		add	r7, sp, #0
 427              		.cfi_def_cfa_register 7
 428 0006 F860     		str	r0, [r7, #12]
 429 0008 B960     		str	r1, [r7, #8]
 430 000a 7A60     		str	r2, [r7, #4]
 431 000c 3B60     		str	r3, [r7]
 383:..\FreeRTOS\Source/timers.c ****         BaseType_t xReturn = pdFAIL;
 432              		.loc 1 383 0
 433 000e 0023     		movs	r3, #0
 434 0010 FB61     		str	r3, [r7, #28]
 384:..\FreeRTOS\Source/timers.c ****         DaemonTaskMessage_t xMessage;
 385:..\FreeRTOS\Source/timers.c **** 
 386:..\FreeRTOS\Source/timers.c ****         configASSERT( xTimer );
 435              		.loc 1 386 0
 436 0012 214B     		ldr	r3, .L37
 437 0014 1B88     		ldrh	r3, [r3]
 438 0016 002B     		cmp	r3, #0
 439 0018 01D1     		bne	.L29
 440              		.loc 1 386 0 is_stmt 0 discriminator 1
 441              		.syntax divided
 442              	@ 386 "..\FreeRTOS\Source\timers.c" 1
 443 001a 72B6     		 cpsid i 
 444              	@ 0 "" 2
 445              		.thumb
 446              		.syntax unified
 447              	.L30:
 448 001c FEE7     		b	.L30
 449              	.L29:
 387:..\FreeRTOS\Source/timers.c **** 
 388:..\FreeRTOS\Source/timers.c ****         /* Send a message to the timer service task to perform a particular action
 389:..\FreeRTOS\Source/timers.c ****          * on a particular timer definition. */
 390:..\FreeRTOS\Source/timers.c ****         if( xTimerQueue != NULL )
 450              		.loc 1 390 0 is_stmt 1
 451 001e 1F4B     		ldr	r3, .L37+4
 452 0020 1B68     		ldr	r3, [r3]
 453 0022 002B     		cmp	r3, #0
 454 0024 33D0     		beq	.L31
 391:..\FreeRTOS\Source/timers.c ****         {
 392:..\FreeRTOS\Source/timers.c ****             /* Send a command to the timer service task to start the xTimer timer. */
ARM GAS  C:\Users\Jason\AppData\Local\Temp\cc2RQUqt.s 			page 16


 393:..\FreeRTOS\Source/timers.c ****             xMessage.xMessageID = xCommandID;
 455              		.loc 1 393 0
 456 0026 1023     		movs	r3, #16
 457 0028 FB18     		adds	r3, r7, r3
 458 002a BA68     		ldr	r2, [r7, #8]
 459 002c 1A60     		str	r2, [r3]
 394:..\FreeRTOS\Source/timers.c ****             xMessage.u.xTimerParameters.xMessageValue = xOptionalValue;
 460              		.loc 1 394 0
 461 002e 1023     		movs	r3, #16
 462 0030 FB18     		adds	r3, r7, r3
 463 0032 7A68     		ldr	r2, [r7, #4]
 464 0034 5A60     		str	r2, [r3, #4]
 395:..\FreeRTOS\Source/timers.c ****             xMessage.u.xTimerParameters.pxTimer = xTimer;
 465              		.loc 1 395 0
 466 0036 1023     		movs	r3, #16
 467 0038 FB18     		adds	r3, r7, r3
 468 003a FA68     		ldr	r2, [r7, #12]
 469 003c 9A60     		str	r2, [r3, #8]
 396:..\FreeRTOS\Source/timers.c **** 
 397:..\FreeRTOS\Source/timers.c ****             if( xCommandID < tmrFIRST_FROM_ISR_COMMAND )
 470              		.loc 1 397 0
 471 003e BB68     		ldr	r3, [r7, #8]
 472 0040 052B     		cmp	r3, #5
 473 0042 1ADC     		bgt	.L32
 398:..\FreeRTOS\Source/timers.c ****             {
 399:..\FreeRTOS\Source/timers.c ****                 if( xTaskGetSchedulerState() == taskSCHEDULER_RUNNING )
 474              		.loc 1 399 0
 475 0044 FFF7FEFF 		bl	xTaskGetSchedulerState
 476 0048 0300     		movs	r3, r0
 477 004a 022B     		cmp	r3, #2
 478 004c 0AD1     		bne	.L33
 400:..\FreeRTOS\Source/timers.c ****                 {
 401:..\FreeRTOS\Source/timers.c ****                     xReturn = xQueueSendToBack( xTimerQueue, &xMessage, xTicksToWait );
 479              		.loc 1 401 0
 480 004e 134B     		ldr	r3, .L37+4
 481 0050 1868     		ldr	r0, [r3]
 482 0052 BA6A     		ldr	r2, [r7, #40]
 483 0054 1023     		movs	r3, #16
 484 0056 F918     		adds	r1, r7, r3
 485 0058 0023     		movs	r3, #0
 486 005a FFF7FEFF 		bl	xQueueGenericSend
 487 005e 0300     		movs	r3, r0
 488 0060 FB61     		str	r3, [r7, #28]
 489 0062 14E0     		b	.L31
 490              	.L33:
 402:..\FreeRTOS\Source/timers.c ****                 }
 403:..\FreeRTOS\Source/timers.c ****                 else
 404:..\FreeRTOS\Source/timers.c ****                 {
 405:..\FreeRTOS\Source/timers.c ****                     xReturn = xQueueSendToBack( xTimerQueue, &xMessage, tmrNO_DELAY );
 491              		.loc 1 405 0
 492 0064 0D4B     		ldr	r3, .L37+4
 493 0066 1868     		ldr	r0, [r3]
 494 0068 1023     		movs	r3, #16
 495 006a F918     		adds	r1, r7, r3
 496 006c 0023     		movs	r3, #0
 497 006e 0022     		movs	r2, #0
 498 0070 FFF7FEFF 		bl	xQueueGenericSend
ARM GAS  C:\Users\Jason\AppData\Local\Temp\cc2RQUqt.s 			page 17


 499 0074 0300     		movs	r3, r0
 500 0076 FB61     		str	r3, [r7, #28]
 501 0078 09E0     		b	.L31
 502              	.L32:
 406:..\FreeRTOS\Source/timers.c ****                 }
 407:..\FreeRTOS\Source/timers.c ****             }
 408:..\FreeRTOS\Source/timers.c ****             else
 409:..\FreeRTOS\Source/timers.c ****             {
 410:..\FreeRTOS\Source/timers.c ****                 xReturn = xQueueSendToBackFromISR( xTimerQueue, &xMessage, pxHigherPriorityTaskWoke
 503              		.loc 1 410 0
 504 007a 084B     		ldr	r3, .L37+4
 505 007c 1868     		ldr	r0, [r3]
 506 007e 3A68     		ldr	r2, [r7]
 507 0080 1023     		movs	r3, #16
 508 0082 F918     		adds	r1, r7, r3
 509 0084 0023     		movs	r3, #0
 510 0086 FFF7FEFF 		bl	xQueueGenericSendFromISR
 511 008a 0300     		movs	r3, r0
 512 008c FB61     		str	r3, [r7, #28]
 513              	.L31:
 411:..\FreeRTOS\Source/timers.c ****             }
 412:..\FreeRTOS\Source/timers.c **** 
 413:..\FreeRTOS\Source/timers.c ****             traceTIMER_COMMAND_SEND( xTimer, xCommandID, xOptionalValue, xReturn );
 414:..\FreeRTOS\Source/timers.c ****         }
 415:..\FreeRTOS\Source/timers.c ****         else
 416:..\FreeRTOS\Source/timers.c ****         {
 417:..\FreeRTOS\Source/timers.c ****             mtCOVERAGE_TEST_MARKER();
 418:..\FreeRTOS\Source/timers.c ****         }
 419:..\FreeRTOS\Source/timers.c **** 
 420:..\FreeRTOS\Source/timers.c ****         return xReturn;
 514              		.loc 1 420 0
 515 008e FB69     		ldr	r3, [r7, #28]
 421:..\FreeRTOS\Source/timers.c ****     }
 516              		.loc 1 421 0
 517 0090 1800     		movs	r0, r3
 518 0092 BD46     		mov	sp, r7
 519 0094 08B0     		add	sp, sp, #32
 520              		@ sp needed
 521 0096 80BD     		pop	{r7, pc}
 522              	.L38:
 523              		.align	2
 524              	.L37:
 525 0098 00000000 		.word	x
 526 009c 30000000 		.word	xTimerQueue
 527              		.cfi_endproc
 528              	.LFE4:
 529              		.size	xTimerGenericCommand, .-xTimerGenericCommand
 530              		.section	.text.xTimerGetTimerDaemonTaskHandle,"ax",%progbits
 531              		.align	2
 532              		.global	xTimerGetTimerDaemonTaskHandle
 533              		.code	16
 534              		.thumb_func
 535              		.type	xTimerGetTimerDaemonTaskHandle, %function
 536              	xTimerGetTimerDaemonTaskHandle:
 537              	.LFB5:
 422:..\FreeRTOS\Source/timers.c **** /*-----------------------------------------------------------*/
 423:..\FreeRTOS\Source/timers.c **** 
ARM GAS  C:\Users\Jason\AppData\Local\Temp\cc2RQUqt.s 			page 18


 424:..\FreeRTOS\Source/timers.c ****     TaskHandle_t xTimerGetTimerDaemonTaskHandle( void )
 425:..\FreeRTOS\Source/timers.c ****     {
 538              		.loc 1 425 0
 539              		.cfi_startproc
 540              		@ args = 0, pretend = 0, frame = 0
 541              		@ frame_needed = 1, uses_anonymous_args = 0
 542 0000 80B5     		push	{r7, lr}
 543              		.cfi_def_cfa_offset 8
 544              		.cfi_offset 7, -8
 545              		.cfi_offset 14, -4
 546 0002 00AF     		add	r7, sp, #0
 547              		.cfi_def_cfa_register 7
 426:..\FreeRTOS\Source/timers.c ****         /* If xTimerGetTimerDaemonTaskHandle() is called before the scheduler has been
 427:..\FreeRTOS\Source/timers.c ****          * started, then xTimerTaskHandle will be NULL. */
 428:..\FreeRTOS\Source/timers.c ****         configASSERT( ( xTimerTaskHandle != NULL ) );
 548              		.loc 1 428 0
 549 0004 054B     		ldr	r3, .L43
 550 0006 1B88     		ldrh	r3, [r3]
 551 0008 002B     		cmp	r3, #0
 552 000a 01D1     		bne	.L40
 553              		.loc 1 428 0 is_stmt 0 discriminator 1
 554              		.syntax divided
 555              	@ 428 "..\FreeRTOS\Source\timers.c" 1
 556 000c 72B6     		 cpsid i 
 557              	@ 0 "" 2
 558              		.thumb
 559              		.syntax unified
 560              	.L41:
 561 000e FEE7     		b	.L41
 562              	.L40:
 429:..\FreeRTOS\Source/timers.c ****         return xTimerTaskHandle;
 563              		.loc 1 429 0 is_stmt 1 discriminator 2
 564 0010 034B     		ldr	r3, .L43+4
 565 0012 1B68     		ldr	r3, [r3]
 430:..\FreeRTOS\Source/timers.c ****     }
 566              		.loc 1 430 0 discriminator 2
 567 0014 1800     		movs	r0, r3
 568 0016 BD46     		mov	sp, r7
 569              		@ sp needed
 570 0018 80BD     		pop	{r7, pc}
 571              	.L44:
 572 001a C046     		.align	2
 573              	.L43:
 574 001c 00000000 		.word	x
 575 0020 34000000 		.word	xTimerTaskHandle
 576              		.cfi_endproc
 577              	.LFE5:
 578              		.size	xTimerGetTimerDaemonTaskHandle, .-xTimerGetTimerDaemonTaskHandle
 579              		.section	.text.xTimerGetPeriod,"ax",%progbits
 580              		.align	2
 581              		.global	xTimerGetPeriod
 582              		.code	16
 583              		.thumb_func
 584              		.type	xTimerGetPeriod, %function
 585              	xTimerGetPeriod:
 586              	.LFB6:
 431:..\FreeRTOS\Source/timers.c **** /*-----------------------------------------------------------*/
ARM GAS  C:\Users\Jason\AppData\Local\Temp\cc2RQUqt.s 			page 19


 432:..\FreeRTOS\Source/timers.c **** 
 433:..\FreeRTOS\Source/timers.c ****     TickType_t xTimerGetPeriod( TimerHandle_t xTimer )
 434:..\FreeRTOS\Source/timers.c ****     {
 587              		.loc 1 434 0
 588              		.cfi_startproc
 589              		@ args = 0, pretend = 0, frame = 16
 590              		@ frame_needed = 1, uses_anonymous_args = 0
 591 0000 80B5     		push	{r7, lr}
 592              		.cfi_def_cfa_offset 8
 593              		.cfi_offset 7, -8
 594              		.cfi_offset 14, -4
 595 0002 84B0     		sub	sp, sp, #16
 596              		.cfi_def_cfa_offset 24
 597 0004 00AF     		add	r7, sp, #0
 598              		.cfi_def_cfa_register 7
 599 0006 7860     		str	r0, [r7, #4]
 435:..\FreeRTOS\Source/timers.c ****         Timer_t * pxTimer = xTimer;
 600              		.loc 1 435 0
 601 0008 7B68     		ldr	r3, [r7, #4]
 602 000a FB60     		str	r3, [r7, #12]
 436:..\FreeRTOS\Source/timers.c **** 
 437:..\FreeRTOS\Source/timers.c ****         configASSERT( xTimer );
 603              		.loc 1 437 0
 604 000c 054B     		ldr	r3, .L49
 605 000e 1B88     		ldrh	r3, [r3]
 606 0010 002B     		cmp	r3, #0
 607 0012 01D1     		bne	.L46
 608              		.loc 1 437 0 is_stmt 0 discriminator 1
 609              		.syntax divided
 610              	@ 437 "..\FreeRTOS\Source\timers.c" 1
 611 0014 72B6     		 cpsid i 
 612              	@ 0 "" 2
 613              		.thumb
 614              		.syntax unified
 615              	.L47:
 616 0016 FEE7     		b	.L47
 617              	.L46:
 438:..\FreeRTOS\Source/timers.c ****         return pxTimer->xTimerPeriodInTicks;
 618              		.loc 1 438 0 is_stmt 1
 619 0018 FB68     		ldr	r3, [r7, #12]
 620 001a 9B69     		ldr	r3, [r3, #24]
 439:..\FreeRTOS\Source/timers.c ****     }
 621              		.loc 1 439 0
 622 001c 1800     		movs	r0, r3
 623 001e BD46     		mov	sp, r7
 624 0020 04B0     		add	sp, sp, #16
 625              		@ sp needed
 626 0022 80BD     		pop	{r7, pc}
 627              	.L50:
 628              		.align	2
 629              	.L49:
 630 0024 00000000 		.word	x
 631              		.cfi_endproc
 632              	.LFE6:
 633              		.size	xTimerGetPeriod, .-xTimerGetPeriod
 634              		.section	.text.vTimerSetReloadMode,"ax",%progbits
 635              		.align	2
ARM GAS  C:\Users\Jason\AppData\Local\Temp\cc2RQUqt.s 			page 20


 636              		.global	vTimerSetReloadMode
 637              		.code	16
 638              		.thumb_func
 639              		.type	vTimerSetReloadMode, %function
 640              	vTimerSetReloadMode:
 641              	.LFB7:
 440:..\FreeRTOS\Source/timers.c **** /*-----------------------------------------------------------*/
 441:..\FreeRTOS\Source/timers.c **** 
 442:..\FreeRTOS\Source/timers.c ****     void vTimerSetReloadMode( TimerHandle_t xTimer,
 443:..\FreeRTOS\Source/timers.c ****                               const UBaseType_t uxAutoReload )
 444:..\FreeRTOS\Source/timers.c ****     {
 642              		.loc 1 444 0
 643              		.cfi_startproc
 644              		@ args = 0, pretend = 0, frame = 16
 645              		@ frame_needed = 1, uses_anonymous_args = 0
 646 0000 80B5     		push	{r7, lr}
 647              		.cfi_def_cfa_offset 8
 648              		.cfi_offset 7, -8
 649              		.cfi_offset 14, -4
 650 0002 84B0     		sub	sp, sp, #16
 651              		.cfi_def_cfa_offset 24
 652 0004 00AF     		add	r7, sp, #0
 653              		.cfi_def_cfa_register 7
 654 0006 7860     		str	r0, [r7, #4]
 655 0008 3960     		str	r1, [r7]
 445:..\FreeRTOS\Source/timers.c ****         Timer_t * pxTimer = xTimer;
 656              		.loc 1 445 0
 657 000a 7B68     		ldr	r3, [r7, #4]
 658 000c FB60     		str	r3, [r7, #12]
 446:..\FreeRTOS\Source/timers.c **** 
 447:..\FreeRTOS\Source/timers.c ****         configASSERT( xTimer );
 659              		.loc 1 447 0
 660 000e 124B     		ldr	r3, .L56
 661 0010 1B88     		ldrh	r3, [r3]
 662 0012 002B     		cmp	r3, #0
 663 0014 01D1     		bne	.L52
 664              		.loc 1 447 0 is_stmt 0 discriminator 1
 665              		.syntax divided
 666              	@ 447 "..\FreeRTOS\Source\timers.c" 1
 667 0016 72B6     		 cpsid i 
 668              	@ 0 "" 2
 669              		.thumb
 670              		.syntax unified
 671              	.L53:
 672 0018 FEE7     		b	.L53
 673              	.L52:
 448:..\FreeRTOS\Source/timers.c ****         taskENTER_CRITICAL();
 674              		.loc 1 448 0 is_stmt 1
 675 001a FFF7FEFF 		bl	vPortEnterCritical
 449:..\FreeRTOS\Source/timers.c ****         {
 450:..\FreeRTOS\Source/timers.c ****             if( uxAutoReload != pdFALSE )
 676              		.loc 1 450 0
 677 001e 3B68     		ldr	r3, [r7]
 678 0020 002B     		cmp	r3, #0
 679 0022 09D0     		beq	.L54
 451:..\FreeRTOS\Source/timers.c ****             {
 452:..\FreeRTOS\Source/timers.c ****                 pxTimer->ucStatus |= tmrSTATUS_IS_AUTORELOAD;
ARM GAS  C:\Users\Jason\AppData\Local\Temp\cc2RQUqt.s 			page 21


 680              		.loc 1 452 0
 681 0024 FB68     		ldr	r3, [r7, #12]
 682 0026 2422     		movs	r2, #36
 683 0028 9B5C     		ldrb	r3, [r3, r2]
 684 002a 0422     		movs	r2, #4
 685 002c 1343     		orrs	r3, r2
 686 002e D9B2     		uxtb	r1, r3
 687 0030 FB68     		ldr	r3, [r7, #12]
 688 0032 2422     		movs	r2, #36
 689 0034 9954     		strb	r1, [r3, r2]
 690 0036 08E0     		b	.L55
 691              	.L54:
 453:..\FreeRTOS\Source/timers.c ****             }
 454:..\FreeRTOS\Source/timers.c ****             else
 455:..\FreeRTOS\Source/timers.c ****             {
 456:..\FreeRTOS\Source/timers.c ****                 pxTimer->ucStatus &= ~tmrSTATUS_IS_AUTORELOAD;
 692              		.loc 1 456 0
 693 0038 FB68     		ldr	r3, [r7, #12]
 694 003a 2422     		movs	r2, #36
 695 003c 9B5C     		ldrb	r3, [r3, r2]
 696 003e 0422     		movs	r2, #4
 697 0040 9343     		bics	r3, r2
 698 0042 D9B2     		uxtb	r1, r3
 699 0044 FB68     		ldr	r3, [r7, #12]
 700 0046 2422     		movs	r2, #36
 701 0048 9954     		strb	r1, [r3, r2]
 702              	.L55:
 457:..\FreeRTOS\Source/timers.c ****             }
 458:..\FreeRTOS\Source/timers.c ****         }
 459:..\FreeRTOS\Source/timers.c ****         taskEXIT_CRITICAL();
 703              		.loc 1 459 0
 704 004a FFF7FEFF 		bl	vPortExitCritical
 460:..\FreeRTOS\Source/timers.c ****     }
 705              		.loc 1 460 0
 706 004e C046     		nop
 707 0050 BD46     		mov	sp, r7
 708 0052 04B0     		add	sp, sp, #16
 709              		@ sp needed
 710 0054 80BD     		pop	{r7, pc}
 711              	.L57:
 712 0056 C046     		.align	2
 713              	.L56:
 714 0058 00000000 		.word	x
 715              		.cfi_endproc
 716              	.LFE7:
 717              		.size	vTimerSetReloadMode, .-vTimerSetReloadMode
 718              		.section	.text.uxTimerGetReloadMode,"ax",%progbits
 719              		.align	2
 720              		.global	uxTimerGetReloadMode
 721              		.code	16
 722              		.thumb_func
 723              		.type	uxTimerGetReloadMode, %function
 724              	uxTimerGetReloadMode:
 725              	.LFB8:
 461:..\FreeRTOS\Source/timers.c **** /*-----------------------------------------------------------*/
 462:..\FreeRTOS\Source/timers.c **** 
 463:..\FreeRTOS\Source/timers.c ****     UBaseType_t uxTimerGetReloadMode( TimerHandle_t xTimer )
ARM GAS  C:\Users\Jason\AppData\Local\Temp\cc2RQUqt.s 			page 22


 464:..\FreeRTOS\Source/timers.c ****     {
 726              		.loc 1 464 0
 727              		.cfi_startproc
 728              		@ args = 0, pretend = 0, frame = 16
 729              		@ frame_needed = 1, uses_anonymous_args = 0
 730 0000 80B5     		push	{r7, lr}
 731              		.cfi_def_cfa_offset 8
 732              		.cfi_offset 7, -8
 733              		.cfi_offset 14, -4
 734 0002 84B0     		sub	sp, sp, #16
 735              		.cfi_def_cfa_offset 24
 736 0004 00AF     		add	r7, sp, #0
 737              		.cfi_def_cfa_register 7
 738 0006 7860     		str	r0, [r7, #4]
 465:..\FreeRTOS\Source/timers.c ****         Timer_t * pxTimer = xTimer;
 739              		.loc 1 465 0
 740 0008 7B68     		ldr	r3, [r7, #4]
 741 000a BB60     		str	r3, [r7, #8]
 466:..\FreeRTOS\Source/timers.c ****         UBaseType_t uxReturn;
 467:..\FreeRTOS\Source/timers.c **** 
 468:..\FreeRTOS\Source/timers.c ****         configASSERT( xTimer );
 742              		.loc 1 468 0
 743 000c 0D4B     		ldr	r3, .L64
 744 000e 1B88     		ldrh	r3, [r3]
 745 0010 002B     		cmp	r3, #0
 746 0012 01D1     		bne	.L59
 747              		.loc 1 468 0 is_stmt 0 discriminator 1
 748              		.syntax divided
 749              	@ 468 "..\FreeRTOS\Source\timers.c" 1
 750 0014 72B6     		 cpsid i 
 751              	@ 0 "" 2
 752              		.thumb
 753              		.syntax unified
 754              	.L60:
 755 0016 FEE7     		b	.L60
 756              	.L59:
 469:..\FreeRTOS\Source/timers.c ****         taskENTER_CRITICAL();
 757              		.loc 1 469 0 is_stmt 1
 758 0018 FFF7FEFF 		bl	vPortEnterCritical
 470:..\FreeRTOS\Source/timers.c ****         {
 471:..\FreeRTOS\Source/timers.c ****             if( ( pxTimer->ucStatus & tmrSTATUS_IS_AUTORELOAD ) == 0 )
 759              		.loc 1 471 0
 760 001c BB68     		ldr	r3, [r7, #8]
 761 001e 2422     		movs	r2, #36
 762 0020 9B5C     		ldrb	r3, [r3, r2]
 763 0022 1A00     		movs	r2, r3
 764 0024 0423     		movs	r3, #4
 765 0026 1340     		ands	r3, r2
 766 0028 02D1     		bne	.L61
 472:..\FreeRTOS\Source/timers.c ****             {
 473:..\FreeRTOS\Source/timers.c ****                 /* Not an auto-reload timer. */
 474:..\FreeRTOS\Source/timers.c ****                 uxReturn = ( UBaseType_t ) pdFALSE;
 767              		.loc 1 474 0
 768 002a 0023     		movs	r3, #0
 769 002c FB60     		str	r3, [r7, #12]
 770 002e 01E0     		b	.L62
 771              	.L61:
ARM GAS  C:\Users\Jason\AppData\Local\Temp\cc2RQUqt.s 			page 23


 475:..\FreeRTOS\Source/timers.c ****             }
 476:..\FreeRTOS\Source/timers.c ****             else
 477:..\FreeRTOS\Source/timers.c ****             {
 478:..\FreeRTOS\Source/timers.c ****                 /* Is an auto-reload timer. */
 479:..\FreeRTOS\Source/timers.c ****                 uxReturn = ( UBaseType_t ) pdTRUE;
 772              		.loc 1 479 0
 773 0030 0123     		movs	r3, #1
 774 0032 FB60     		str	r3, [r7, #12]
 775              	.L62:
 480:..\FreeRTOS\Source/timers.c ****             }
 481:..\FreeRTOS\Source/timers.c ****         }
 482:..\FreeRTOS\Source/timers.c ****         taskEXIT_CRITICAL();
 776              		.loc 1 482 0
 777 0034 FFF7FEFF 		bl	vPortExitCritical
 483:..\FreeRTOS\Source/timers.c **** 
 484:..\FreeRTOS\Source/timers.c ****         return uxReturn;
 778              		.loc 1 484 0
 779 0038 FB68     		ldr	r3, [r7, #12]
 485:..\FreeRTOS\Source/timers.c ****     }
 780              		.loc 1 485 0
 781 003a 1800     		movs	r0, r3
 782 003c BD46     		mov	sp, r7
 783 003e 04B0     		add	sp, sp, #16
 784              		@ sp needed
 785 0040 80BD     		pop	{r7, pc}
 786              	.L65:
 787 0042 C046     		.align	2
 788              	.L64:
 789 0044 00000000 		.word	x
 790              		.cfi_endproc
 791              	.LFE8:
 792              		.size	uxTimerGetReloadMode, .-uxTimerGetReloadMode
 793              		.section	.text.xTimerGetExpiryTime,"ax",%progbits
 794              		.align	2
 795              		.global	xTimerGetExpiryTime
 796              		.code	16
 797              		.thumb_func
 798              		.type	xTimerGetExpiryTime, %function
 799              	xTimerGetExpiryTime:
 800              	.LFB9:
 486:..\FreeRTOS\Source/timers.c **** /*-----------------------------------------------------------*/
 487:..\FreeRTOS\Source/timers.c **** 
 488:..\FreeRTOS\Source/timers.c ****     TickType_t xTimerGetExpiryTime( TimerHandle_t xTimer )
 489:..\FreeRTOS\Source/timers.c ****     {
 801              		.loc 1 489 0
 802              		.cfi_startproc
 803              		@ args = 0, pretend = 0, frame = 16
 804              		@ frame_needed = 1, uses_anonymous_args = 0
 805 0000 80B5     		push	{r7, lr}
 806              		.cfi_def_cfa_offset 8
 807              		.cfi_offset 7, -8
 808              		.cfi_offset 14, -4
 809 0002 84B0     		sub	sp, sp, #16
 810              		.cfi_def_cfa_offset 24
 811 0004 00AF     		add	r7, sp, #0
 812              		.cfi_def_cfa_register 7
 813 0006 7860     		str	r0, [r7, #4]
ARM GAS  C:\Users\Jason\AppData\Local\Temp\cc2RQUqt.s 			page 24


 490:..\FreeRTOS\Source/timers.c ****         Timer_t * pxTimer = xTimer;
 814              		.loc 1 490 0
 815 0008 7B68     		ldr	r3, [r7, #4]
 816 000a FB60     		str	r3, [r7, #12]
 491:..\FreeRTOS\Source/timers.c ****         TickType_t xReturn;
 492:..\FreeRTOS\Source/timers.c **** 
 493:..\FreeRTOS\Source/timers.c ****         configASSERT( xTimer );
 817              		.loc 1 493 0
 818 000c 064B     		ldr	r3, .L70
 819 000e 1B88     		ldrh	r3, [r3]
 820 0010 002B     		cmp	r3, #0
 821 0012 01D1     		bne	.L67
 822              		.loc 1 493 0 is_stmt 0 discriminator 1
 823              		.syntax divided
 824              	@ 493 "..\FreeRTOS\Source\timers.c" 1
 825 0014 72B6     		 cpsid i 
 826              	@ 0 "" 2
 827              		.thumb
 828              		.syntax unified
 829              	.L68:
 830 0016 FEE7     		b	.L68
 831              	.L67:
 494:..\FreeRTOS\Source/timers.c ****         xReturn = listGET_LIST_ITEM_VALUE( &( pxTimer->xTimerListItem ) );
 832              		.loc 1 494 0 is_stmt 1
 833 0018 FB68     		ldr	r3, [r7, #12]
 834 001a 5B68     		ldr	r3, [r3, #4]
 835 001c BB60     		str	r3, [r7, #8]
 495:..\FreeRTOS\Source/timers.c ****         return xReturn;
 836              		.loc 1 495 0
 837 001e BB68     		ldr	r3, [r7, #8]
 496:..\FreeRTOS\Source/timers.c ****     }
 838              		.loc 1 496 0
 839 0020 1800     		movs	r0, r3
 840 0022 BD46     		mov	sp, r7
 841 0024 04B0     		add	sp, sp, #16
 842              		@ sp needed
 843 0026 80BD     		pop	{r7, pc}
 844              	.L71:
 845              		.align	2
 846              	.L70:
 847 0028 00000000 		.word	x
 848              		.cfi_endproc
 849              	.LFE9:
 850              		.size	xTimerGetExpiryTime, .-xTimerGetExpiryTime
 851              		.section	.text.pcTimerGetName,"ax",%progbits
 852              		.align	2
 853              		.global	pcTimerGetName
 854              		.code	16
 855              		.thumb_func
 856              		.type	pcTimerGetName, %function
 857              	pcTimerGetName:
 858              	.LFB10:
 497:..\FreeRTOS\Source/timers.c **** /*-----------------------------------------------------------*/
 498:..\FreeRTOS\Source/timers.c **** 
 499:..\FreeRTOS\Source/timers.c ****     const char * pcTimerGetName( TimerHandle_t xTimer ) /*lint !e971 Unqualified char types are all
 500:..\FreeRTOS\Source/timers.c ****     {
 859              		.loc 1 500 0
ARM GAS  C:\Users\Jason\AppData\Local\Temp\cc2RQUqt.s 			page 25


 860              		.cfi_startproc
 861              		@ args = 0, pretend = 0, frame = 16
 862              		@ frame_needed = 1, uses_anonymous_args = 0
 863 0000 80B5     		push	{r7, lr}
 864              		.cfi_def_cfa_offset 8
 865              		.cfi_offset 7, -8
 866              		.cfi_offset 14, -4
 867 0002 84B0     		sub	sp, sp, #16
 868              		.cfi_def_cfa_offset 24
 869 0004 00AF     		add	r7, sp, #0
 870              		.cfi_def_cfa_register 7
 871 0006 7860     		str	r0, [r7, #4]
 501:..\FreeRTOS\Source/timers.c ****         Timer_t * pxTimer = xTimer;
 872              		.loc 1 501 0
 873 0008 7B68     		ldr	r3, [r7, #4]
 874 000a FB60     		str	r3, [r7, #12]
 502:..\FreeRTOS\Source/timers.c **** 
 503:..\FreeRTOS\Source/timers.c ****         configASSERT( xTimer );
 875              		.loc 1 503 0
 876 000c 054B     		ldr	r3, .L76
 877 000e 1B88     		ldrh	r3, [r3]
 878 0010 002B     		cmp	r3, #0
 879 0012 01D1     		bne	.L73
 880              		.loc 1 503 0 is_stmt 0 discriminator 1
 881              		.syntax divided
 882              	@ 503 "..\FreeRTOS\Source\timers.c" 1
 883 0014 72B6     		 cpsid i 
 884              	@ 0 "" 2
 885              		.thumb
 886              		.syntax unified
 887              	.L74:
 888 0016 FEE7     		b	.L74
 889              	.L73:
 504:..\FreeRTOS\Source/timers.c ****         return pxTimer->pcTimerName;
 890              		.loc 1 504 0 is_stmt 1
 891 0018 FB68     		ldr	r3, [r7, #12]
 892 001a 1B68     		ldr	r3, [r3]
 505:..\FreeRTOS\Source/timers.c ****     }
 893              		.loc 1 505 0
 894 001c 1800     		movs	r0, r3
 895 001e BD46     		mov	sp, r7
 896 0020 04B0     		add	sp, sp, #16
 897              		@ sp needed
 898 0022 80BD     		pop	{r7, pc}
 899              	.L77:
 900              		.align	2
 901              	.L76:
 902 0024 00000000 		.word	x
 903              		.cfi_endproc
 904              	.LFE10:
 905              		.size	pcTimerGetName, .-pcTimerGetName
 906              		.section	.text.prvProcessExpiredTimer,"ax",%progbits
 907              		.align	2
 908              		.code	16
 909              		.thumb_func
 910              		.type	prvProcessExpiredTimer, %function
 911              	prvProcessExpiredTimer:
ARM GAS  C:\Users\Jason\AppData\Local\Temp\cc2RQUqt.s 			page 26


 912              	.LFB11:
 506:..\FreeRTOS\Source/timers.c **** /*-----------------------------------------------------------*/
 507:..\FreeRTOS\Source/timers.c **** 
 508:..\FreeRTOS\Source/timers.c ****     static void prvProcessExpiredTimer( const TickType_t xNextExpireTime,
 509:..\FreeRTOS\Source/timers.c ****                                         const TickType_t xTimeNow )
 510:..\FreeRTOS\Source/timers.c ****     {
 913              		.loc 1 510 0
 914              		.cfi_startproc
 915              		@ args = 0, pretend = 0, frame = 16
 916              		@ frame_needed = 1, uses_anonymous_args = 0
 917 0000 80B5     		push	{r7, lr}
 918              		.cfi_def_cfa_offset 8
 919              		.cfi_offset 7, -8
 920              		.cfi_offset 14, -4
 921 0002 86B0     		sub	sp, sp, #24
 922              		.cfi_def_cfa_offset 32
 923 0004 02AF     		add	r7, sp, #8
 924              		.cfi_def_cfa 7, 24
 925 0006 7860     		str	r0, [r7, #4]
 926 0008 3960     		str	r1, [r7]
 511:..\FreeRTOS\Source/timers.c ****         BaseType_t xResult;
 512:..\FreeRTOS\Source/timers.c ****         Timer_t * const pxTimer = ( Timer_t * ) listGET_OWNER_OF_HEAD_ENTRY( pxCurrentTimerList ); 
 927              		.loc 1 512 0
 928 000a 1F4B     		ldr	r3, .L82
 929 000c 1B68     		ldr	r3, [r3]
 930 000e DB68     		ldr	r3, [r3, #12]
 931 0010 DB68     		ldr	r3, [r3, #12]
 932 0012 FB60     		str	r3, [r7, #12]
 513:..\FreeRTOS\Source/timers.c **** 
 514:..\FreeRTOS\Source/timers.c ****         /* Remove the timer from the list of active timers.  A check has already
 515:..\FreeRTOS\Source/timers.c ****          * been performed to ensure the list is not empty. */
 516:..\FreeRTOS\Source/timers.c **** 
 517:..\FreeRTOS\Source/timers.c ****         ( void ) uxListRemove( &( pxTimer->xTimerListItem ) );
 933              		.loc 1 517 0
 934 0014 FB68     		ldr	r3, [r7, #12]
 935 0016 0433     		adds	r3, r3, #4
 936 0018 1800     		movs	r0, r3
 937 001a FFF7FEFF 		bl	uxListRemove
 518:..\FreeRTOS\Source/timers.c ****         traceTIMER_EXPIRED( pxTimer );
 519:..\FreeRTOS\Source/timers.c **** 
 520:..\FreeRTOS\Source/timers.c ****         /* If the timer is an auto-reload timer then calculate the next
 521:..\FreeRTOS\Source/timers.c ****          * expiry time and re-insert the timer in the list of active timers. */
 522:..\FreeRTOS\Source/timers.c ****         if( ( pxTimer->ucStatus & tmrSTATUS_IS_AUTORELOAD ) != 0 )
 938              		.loc 1 522 0
 939 001e FB68     		ldr	r3, [r7, #12]
 940 0020 2422     		movs	r2, #36
 941 0022 9B5C     		ldrb	r3, [r3, r2]
 942 0024 1A00     		movs	r2, r3
 943 0026 0423     		movs	r3, #4
 944 0028 1340     		ands	r3, r2
 945 002a 1AD0     		beq	.L79
 523:..\FreeRTOS\Source/timers.c ****         {
 524:..\FreeRTOS\Source/timers.c ****             /* The timer is inserted into a list using a time relative to anything
 525:..\FreeRTOS\Source/timers.c ****              * other than the current time.  It will therefore be inserted into the
 526:..\FreeRTOS\Source/timers.c ****              * correct list relative to the time this task thinks it is now. */
 527:..\FreeRTOS\Source/timers.c ****             if( prvInsertTimerInActiveList( pxTimer, ( xNextExpireTime + pxTimer->xTimerPeriodInTic
 946              		.loc 1 527 0
ARM GAS  C:\Users\Jason\AppData\Local\Temp\cc2RQUqt.s 			page 27


 947 002c FB68     		ldr	r3, [r7, #12]
 948 002e 9A69     		ldr	r2, [r3, #24]
 949 0030 7B68     		ldr	r3, [r7, #4]
 950 0032 D118     		adds	r1, r2, r3
 951 0034 7B68     		ldr	r3, [r7, #4]
 952 0036 3A68     		ldr	r2, [r7]
 953 0038 F868     		ldr	r0, [r7, #12]
 954 003a FFF7FEFF 		bl	prvInsertTimerInActiveList
 955 003e 031E     		subs	r3, r0, #0
 956 0040 18D0     		beq	.L80
 528:..\FreeRTOS\Source/timers.c ****             {
 529:..\FreeRTOS\Source/timers.c ****                 /* The timer expired before it was added to the active timer
 530:..\FreeRTOS\Source/timers.c ****                  * list.  Reload it now.  */
 531:..\FreeRTOS\Source/timers.c ****                 xResult = xTimerGenericCommand( pxTimer, tmrCOMMAND_START_DONT_TRACE, xNextExpireTi
 957              		.loc 1 531 0
 958 0042 7A68     		ldr	r2, [r7, #4]
 959 0044 F868     		ldr	r0, [r7, #12]
 960 0046 0023     		movs	r3, #0
 961 0048 0093     		str	r3, [sp]
 962 004a 0023     		movs	r3, #0
 963 004c 0021     		movs	r1, #0
 964 004e FFF7FEFF 		bl	xTimerGenericCommand
 965 0052 0300     		movs	r3, r0
 966 0054 BB60     		str	r3, [r7, #8]
 532:..\FreeRTOS\Source/timers.c ****                 configASSERT( xResult );
 967              		.loc 1 532 0
 968 0056 0D4B     		ldr	r3, .L82+4
 969 0058 1B88     		ldrh	r3, [r3]
 970 005a 002B     		cmp	r3, #0
 971 005c 0AD1     		bne	.L80
 972              		.loc 1 532 0 is_stmt 0 discriminator 1
 973              		.syntax divided
 974              	@ 532 "..\FreeRTOS\Source\timers.c" 1
 975 005e 72B6     		 cpsid i 
 976              	@ 0 "" 2
 977              		.thumb
 978              		.syntax unified
 979              	.L81:
 980 0060 FEE7     		b	.L81
 981              	.L79:
 533:..\FreeRTOS\Source/timers.c ****                 ( void ) xResult;
 534:..\FreeRTOS\Source/timers.c ****             }
 535:..\FreeRTOS\Source/timers.c ****             else
 536:..\FreeRTOS\Source/timers.c ****             {
 537:..\FreeRTOS\Source/timers.c ****                 mtCOVERAGE_TEST_MARKER();
 538:..\FreeRTOS\Source/timers.c ****             }
 539:..\FreeRTOS\Source/timers.c ****         }
 540:..\FreeRTOS\Source/timers.c ****         else
 541:..\FreeRTOS\Source/timers.c ****         {
 542:..\FreeRTOS\Source/timers.c ****             pxTimer->ucStatus &= ~tmrSTATUS_IS_ACTIVE;
 982              		.loc 1 542 0 is_stmt 1
 983 0062 FB68     		ldr	r3, [r7, #12]
 984 0064 2422     		movs	r2, #36
 985 0066 9B5C     		ldrb	r3, [r3, r2]
 986 0068 0122     		movs	r2, #1
 987 006a 9343     		bics	r3, r2
 988 006c D9B2     		uxtb	r1, r3
ARM GAS  C:\Users\Jason\AppData\Local\Temp\cc2RQUqt.s 			page 28


 989 006e FB68     		ldr	r3, [r7, #12]
 990 0070 2422     		movs	r2, #36
 991 0072 9954     		strb	r1, [r3, r2]
 992              	.L80:
 543:..\FreeRTOS\Source/timers.c ****             mtCOVERAGE_TEST_MARKER();
 544:..\FreeRTOS\Source/timers.c ****         }
 545:..\FreeRTOS\Source/timers.c **** 
 546:..\FreeRTOS\Source/timers.c ****         /* Call the timer callback. */
 547:..\FreeRTOS\Source/timers.c ****         pxTimer->pxCallbackFunction( ( TimerHandle_t ) pxTimer );
 993              		.loc 1 547 0
 994 0074 FB68     		ldr	r3, [r7, #12]
 995 0076 1B6A     		ldr	r3, [r3, #32]
 996 0078 FA68     		ldr	r2, [r7, #12]
 997 007a 1000     		movs	r0, r2
 998 007c 9847     		blx	r3
 548:..\FreeRTOS\Source/timers.c ****     }
 999              		.loc 1 548 0
 1000 007e C046     		nop
 1001 0080 BD46     		mov	sp, r7
 1002 0082 04B0     		add	sp, sp, #16
 1003              		@ sp needed
 1004 0084 80BD     		pop	{r7, pc}
 1005              	.L83:
 1006 0086 C046     		.align	2
 1007              	.L82:
 1008 0088 28000000 		.word	pxCurrentTimerList
 1009 008c 00000000 		.word	x
 1010              		.cfi_endproc
 1011              	.LFE11:
 1012              		.size	prvProcessExpiredTimer, .-prvProcessExpiredTimer
 1013              		.section	.text.prvTimerTask,"ax",%progbits
 1014              		.align	2
 1015              		.code	16
 1016              		.thumb_func
 1017              		.type	prvTimerTask, %function
 1018              	prvTimerTask:
 1019              	.LFB12:
 549:..\FreeRTOS\Source/timers.c **** /*-----------------------------------------------------------*/
 550:..\FreeRTOS\Source/timers.c **** 
 551:..\FreeRTOS\Source/timers.c ****     static portTASK_FUNCTION( prvTimerTask, pvParameters )
 552:..\FreeRTOS\Source/timers.c ****     {
 1020              		.loc 1 552 0
 1021              		.cfi_startproc
 1022              		@ args = 0, pretend = 0, frame = 16
 1023              		@ frame_needed = 1, uses_anonymous_args = 0
 1024 0000 80B5     		push	{r7, lr}
 1025              		.cfi_def_cfa_offset 8
 1026              		.cfi_offset 7, -8
 1027              		.cfi_offset 14, -4
 1028 0002 84B0     		sub	sp, sp, #16
 1029              		.cfi_def_cfa_offset 24
 1030 0004 00AF     		add	r7, sp, #0
 1031              		.cfi_def_cfa_register 7
 1032 0006 7860     		str	r0, [r7, #4]
 1033              	.L85:
 553:..\FreeRTOS\Source/timers.c ****         TickType_t xNextExpireTime;
 554:..\FreeRTOS\Source/timers.c ****         BaseType_t xListWasEmpty;
ARM GAS  C:\Users\Jason\AppData\Local\Temp\cc2RQUqt.s 			page 29


 555:..\FreeRTOS\Source/timers.c **** 
 556:..\FreeRTOS\Source/timers.c ****         /* Just to avoid compiler warnings. */
 557:..\FreeRTOS\Source/timers.c ****         ( void ) pvParameters;
 558:..\FreeRTOS\Source/timers.c **** 
 559:..\FreeRTOS\Source/timers.c ****         #if ( configUSE_DAEMON_TASK_STARTUP_HOOK == 1 )
 560:..\FreeRTOS\Source/timers.c ****             {
 561:..\FreeRTOS\Source/timers.c ****                 extern void vApplicationDaemonTaskStartupHook( void );
 562:..\FreeRTOS\Source/timers.c **** 
 563:..\FreeRTOS\Source/timers.c ****                 /* Allow the application writer to execute some code in the context of
 564:..\FreeRTOS\Source/timers.c ****                  * this task at the point the task starts executing.  This is useful if the
 565:..\FreeRTOS\Source/timers.c ****                  * application includes initialisation code that would benefit from
 566:..\FreeRTOS\Source/timers.c ****                  * executing after the scheduler has been started. */
 567:..\FreeRTOS\Source/timers.c ****                 vApplicationDaemonTaskStartupHook();
 568:..\FreeRTOS\Source/timers.c ****             }
 569:..\FreeRTOS\Source/timers.c ****         #endif /* configUSE_DAEMON_TASK_STARTUP_HOOK */
 570:..\FreeRTOS\Source/timers.c **** 
 571:..\FreeRTOS\Source/timers.c ****         for( ; ; )
 572:..\FreeRTOS\Source/timers.c ****         {
 573:..\FreeRTOS\Source/timers.c ****             /* Query the timers list to see if it contains any timers, and if so,
 574:..\FreeRTOS\Source/timers.c ****              * obtain the time at which the next timer will expire. */
 575:..\FreeRTOS\Source/timers.c ****             xNextExpireTime = prvGetNextExpireTime( &xListWasEmpty );
 1034              		.loc 1 575 0 discriminator 1
 1035 0008 0823     		movs	r3, #8
 1036 000a FB18     		adds	r3, r7, r3
 1037 000c 1800     		movs	r0, r3
 1038 000e FFF7FEFF 		bl	prvGetNextExpireTime
 1039 0012 0300     		movs	r3, r0
 1040 0014 FB60     		str	r3, [r7, #12]
 576:..\FreeRTOS\Source/timers.c **** 
 577:..\FreeRTOS\Source/timers.c ****             /* If a timer has expired, process it.  Otherwise, block this task
 578:..\FreeRTOS\Source/timers.c ****              * until either a timer does expire, or a command is received. */
 579:..\FreeRTOS\Source/timers.c ****             prvProcessTimerOrBlockTask( xNextExpireTime, xListWasEmpty );
 1041              		.loc 1 579 0 discriminator 1
 1042 0016 BA68     		ldr	r2, [r7, #8]
 1043 0018 FB68     		ldr	r3, [r7, #12]
 1044 001a 1100     		movs	r1, r2
 1045 001c 1800     		movs	r0, r3
 1046 001e FFF7FEFF 		bl	prvProcessTimerOrBlockTask
 580:..\FreeRTOS\Source/timers.c **** 
 581:..\FreeRTOS\Source/timers.c ****             /* Empty the command queue. */
 582:..\FreeRTOS\Source/timers.c ****             prvProcessReceivedCommands();
 1047              		.loc 1 582 0 discriminator 1
 1048 0022 FFF7FEFF 		bl	prvProcessReceivedCommands
 583:..\FreeRTOS\Source/timers.c ****         }
 1049              		.loc 1 583 0 discriminator 1
 1050 0026 EFE7     		b	.L85
 1051              		.cfi_endproc
 1052              	.LFE12:
 1053              		.size	prvTimerTask, .-prvTimerTask
 1054              		.section	.text.prvProcessTimerOrBlockTask,"ax",%progbits
 1055              		.align	2
 1056              		.code	16
 1057              		.thumb_func
 1058              		.type	prvProcessTimerOrBlockTask, %function
 1059              	prvProcessTimerOrBlockTask:
 1060              	.LFB13:
 584:..\FreeRTOS\Source/timers.c ****     }
ARM GAS  C:\Users\Jason\AppData\Local\Temp\cc2RQUqt.s 			page 30


 585:..\FreeRTOS\Source/timers.c **** /*-----------------------------------------------------------*/
 586:..\FreeRTOS\Source/timers.c **** 
 587:..\FreeRTOS\Source/timers.c ****     static void prvProcessTimerOrBlockTask( const TickType_t xNextExpireTime,
 588:..\FreeRTOS\Source/timers.c ****                                             BaseType_t xListWasEmpty )
 589:..\FreeRTOS\Source/timers.c ****     {
 1061              		.loc 1 589 0
 1062              		.cfi_startproc
 1063              		@ args = 0, pretend = 0, frame = 16
 1064              		@ frame_needed = 1, uses_anonymous_args = 0
 1065 0000 80B5     		push	{r7, lr}
 1066              		.cfi_def_cfa_offset 8
 1067              		.cfi_offset 7, -8
 1068              		.cfi_offset 14, -4
 1069 0002 84B0     		sub	sp, sp, #16
 1070              		.cfi_def_cfa_offset 24
 1071 0004 00AF     		add	r7, sp, #0
 1072              		.cfi_def_cfa_register 7
 1073 0006 7860     		str	r0, [r7, #4]
 1074 0008 3960     		str	r1, [r7]
 590:..\FreeRTOS\Source/timers.c ****         TickType_t xTimeNow;
 591:..\FreeRTOS\Source/timers.c ****         BaseType_t xTimerListsWereSwitched;
 592:..\FreeRTOS\Source/timers.c **** 
 593:..\FreeRTOS\Source/timers.c ****         vTaskSuspendAll();
 1075              		.loc 1 593 0
 1076 000a FFF7FEFF 		bl	vTaskSuspendAll
 594:..\FreeRTOS\Source/timers.c ****         {
 595:..\FreeRTOS\Source/timers.c ****             /* Obtain the time now to make an assessment as to whether the timer
 596:..\FreeRTOS\Source/timers.c ****              * has expired or not.  If obtaining the time causes the lists to switch
 597:..\FreeRTOS\Source/timers.c ****              * then don't process this timer as any timers that remained in the list
 598:..\FreeRTOS\Source/timers.c ****              * when the lists were switched will have been processed within the
 599:..\FreeRTOS\Source/timers.c ****              * prvSampleTimeNow() function. */
 600:..\FreeRTOS\Source/timers.c ****             xTimeNow = prvSampleTimeNow( &xTimerListsWereSwitched );
 1077              		.loc 1 600 0
 1078 000e 0823     		movs	r3, #8
 1079 0010 FB18     		adds	r3, r7, r3
 1080 0012 1800     		movs	r0, r3
 1081 0014 FFF7FEFF 		bl	prvSampleTimeNow
 1082 0018 0300     		movs	r3, r0
 1083 001a FB60     		str	r3, [r7, #12]
 601:..\FreeRTOS\Source/timers.c **** 
 602:..\FreeRTOS\Source/timers.c ****             if( xTimerListsWereSwitched == pdFALSE )
 1084              		.loc 1 602 0
 1085 001c BB68     		ldr	r3, [r7, #8]
 1086 001e 002B     		cmp	r3, #0
 1087 0020 2BD1     		bne	.L87
 603:..\FreeRTOS\Source/timers.c ****             {
 604:..\FreeRTOS\Source/timers.c ****                 /* The tick count has not overflowed, has the timer expired? */
 605:..\FreeRTOS\Source/timers.c ****                 if( ( xListWasEmpty == pdFALSE ) && ( xNextExpireTime <= xTimeNow ) )
 1088              		.loc 1 605 0
 1089 0022 3B68     		ldr	r3, [r7]
 1090 0024 002B     		cmp	r3, #0
 1091 0026 0CD1     		bne	.L88
 1092              		.loc 1 605 0 is_stmt 0 discriminator 1
 1093 0028 7A68     		ldr	r2, [r7, #4]
 1094 002a FB68     		ldr	r3, [r7, #12]
 1095 002c 9A42     		cmp	r2, r3
 1096 002e 08D8     		bhi	.L88
ARM GAS  C:\Users\Jason\AppData\Local\Temp\cc2RQUqt.s 			page 31


 606:..\FreeRTOS\Source/timers.c ****                 {
 607:..\FreeRTOS\Source/timers.c ****                     ( void ) xTaskResumeAll();
 1097              		.loc 1 607 0 is_stmt 1
 1098 0030 FFF7FEFF 		bl	xTaskResumeAll
 608:..\FreeRTOS\Source/timers.c ****                     prvProcessExpiredTimer( xNextExpireTime, xTimeNow );
 1099              		.loc 1 608 0
 1100 0034 FA68     		ldr	r2, [r7, #12]
 1101 0036 7B68     		ldr	r3, [r7, #4]
 1102 0038 1100     		movs	r1, r2
 1103 003a 1800     		movs	r0, r3
 1104 003c FFF7FEFF 		bl	prvProcessExpiredTimer
 609:..\FreeRTOS\Source/timers.c ****                 }
 610:..\FreeRTOS\Source/timers.c ****                 else
 611:..\FreeRTOS\Source/timers.c ****                 {
 612:..\FreeRTOS\Source/timers.c ****                     /* The tick count has not overflowed, and the next expire
 613:..\FreeRTOS\Source/timers.c ****                      * time has not been reached yet.  This task should therefore
 614:..\FreeRTOS\Source/timers.c ****                      * block to wait for the next expire time or a command to be
 615:..\FreeRTOS\Source/timers.c ****                      * received - whichever comes first.  The following line cannot
 616:..\FreeRTOS\Source/timers.c ****                      * be reached unless xNextExpireTime > xTimeNow, except in the
 617:..\FreeRTOS\Source/timers.c ****                      * case when the current timer list is empty. */
 618:..\FreeRTOS\Source/timers.c ****                     if( xListWasEmpty != pdFALSE )
 619:..\FreeRTOS\Source/timers.c ****                     {
 620:..\FreeRTOS\Source/timers.c ****                         /* The current timer list is empty - is the overflow list
 621:..\FreeRTOS\Source/timers.c ****                          * also empty? */
 622:..\FreeRTOS\Source/timers.c ****                         xListWasEmpty = listLIST_IS_EMPTY( pxOverflowTimerList );
 623:..\FreeRTOS\Source/timers.c ****                     }
 624:..\FreeRTOS\Source/timers.c **** 
 625:..\FreeRTOS\Source/timers.c ****                     vQueueWaitForMessageRestricted( xTimerQueue, ( xNextExpireTime - xTimeNow ), xL
 626:..\FreeRTOS\Source/timers.c **** 
 627:..\FreeRTOS\Source/timers.c ****                     if( xTaskResumeAll() == pdFALSE )
 628:..\FreeRTOS\Source/timers.c ****                     {
 629:..\FreeRTOS\Source/timers.c ****                         /* Yield to wait for either a command to arrive, or the
 630:..\FreeRTOS\Source/timers.c ****                          * block time to expire.  If a command arrived between the
 631:..\FreeRTOS\Source/timers.c ****                          * critical section being exited and this yield then the yield
 632:..\FreeRTOS\Source/timers.c ****                          * will not cause the task to block. */
 633:..\FreeRTOS\Source/timers.c ****                         portYIELD_WITHIN_API();
 634:..\FreeRTOS\Source/timers.c ****                     }
 635:..\FreeRTOS\Source/timers.c ****                     else
 636:..\FreeRTOS\Source/timers.c ****                     {
 637:..\FreeRTOS\Source/timers.c ****                         mtCOVERAGE_TEST_MARKER();
 638:..\FreeRTOS\Source/timers.c ****                     }
 639:..\FreeRTOS\Source/timers.c ****                 }
 640:..\FreeRTOS\Source/timers.c ****             }
 641:..\FreeRTOS\Source/timers.c ****             else
 642:..\FreeRTOS\Source/timers.c ****             {
 643:..\FreeRTOS\Source/timers.c ****                 ( void ) xTaskResumeAll();
 644:..\FreeRTOS\Source/timers.c ****             }
 645:..\FreeRTOS\Source/timers.c ****         }
 646:..\FreeRTOS\Source/timers.c ****     }
 1105              		.loc 1 646 0
 1106 0040 1DE0     		b	.L94
 1107              	.L88:
 618:..\FreeRTOS\Source/timers.c ****                     {
 1108              		.loc 1 618 0
 1109 0042 3B68     		ldr	r3, [r7]
 1110 0044 002B     		cmp	r3, #0
 1111 0046 08D0     		beq	.L90
ARM GAS  C:\Users\Jason\AppData\Local\Temp\cc2RQUqt.s 			page 32


 622:..\FreeRTOS\Source/timers.c ****                     }
 1112              		.loc 1 622 0
 1113 0048 0F4B     		ldr	r3, .L95
 1114 004a 1B68     		ldr	r3, [r3]
 1115 004c 1B68     		ldr	r3, [r3]
 1116 004e 002B     		cmp	r3, #0
 1117 0050 01D1     		bne	.L91
 622:..\FreeRTOS\Source/timers.c ****                     }
 1118              		.loc 1 622 0 is_stmt 0 discriminator 1
 1119 0052 0123     		movs	r3, #1
 1120 0054 00E0     		b	.L92
 1121              	.L91:
 622:..\FreeRTOS\Source/timers.c ****                     }
 1122              		.loc 1 622 0 discriminator 2
 1123 0056 0023     		movs	r3, #0
 1124              	.L92:
 622:..\FreeRTOS\Source/timers.c ****                     }
 1125              		.loc 1 622 0 discriminator 4
 1126 0058 3B60     		str	r3, [r7]
 1127              	.L90:
 625:..\FreeRTOS\Source/timers.c **** 
 1128              		.loc 1 625 0 is_stmt 1
 1129 005a 0C4B     		ldr	r3, .L95+4
 1130 005c 1868     		ldr	r0, [r3]
 1131 005e 7A68     		ldr	r2, [r7, #4]
 1132 0060 FB68     		ldr	r3, [r7, #12]
 1133 0062 D31A     		subs	r3, r2, r3
 1134 0064 3A68     		ldr	r2, [r7]
 1135 0066 1900     		movs	r1, r3
 1136 0068 FFF7FEFF 		bl	vQueueWaitForMessageRestricted
 627:..\FreeRTOS\Source/timers.c ****                     {
 1137              		.loc 1 627 0
 1138 006c FFF7FEFF 		bl	xTaskResumeAll
 1139 0070 031E     		subs	r3, r0, #0
 1140 0072 04D1     		bne	.L94
 633:..\FreeRTOS\Source/timers.c ****                     }
 1141              		.loc 1 633 0
 1142 0074 FFF7FEFF 		bl	vPortYield
 1143              		.loc 1 646 0
 1144 0078 01E0     		b	.L94
 1145              	.L87:
 643:..\FreeRTOS\Source/timers.c ****             }
 1146              		.loc 1 643 0
 1147 007a FFF7FEFF 		bl	xTaskResumeAll
 1148              	.L94:
 1149              		.loc 1 646 0
 1150 007e C046     		nop
 1151 0080 BD46     		mov	sp, r7
 1152 0082 04B0     		add	sp, sp, #16
 1153              		@ sp needed
 1154 0084 80BD     		pop	{r7, pc}
 1155              	.L96:
 1156 0086 C046     		.align	2
 1157              	.L95:
 1158 0088 2C000000 		.word	pxOverflowTimerList
 1159 008c 30000000 		.word	xTimerQueue
 1160              		.cfi_endproc
ARM GAS  C:\Users\Jason\AppData\Local\Temp\cc2RQUqt.s 			page 33


 1161              	.LFE13:
 1162              		.size	prvProcessTimerOrBlockTask, .-prvProcessTimerOrBlockTask
 1163              		.section	.text.prvGetNextExpireTime,"ax",%progbits
 1164              		.align	2
 1165              		.code	16
 1166              		.thumb_func
 1167              		.type	prvGetNextExpireTime, %function
 1168              	prvGetNextExpireTime:
 1169              	.LFB14:
 647:..\FreeRTOS\Source/timers.c **** /*-----------------------------------------------------------*/
 648:..\FreeRTOS\Source/timers.c **** 
 649:..\FreeRTOS\Source/timers.c ****     static TickType_t prvGetNextExpireTime( BaseType_t * const pxListWasEmpty )
 650:..\FreeRTOS\Source/timers.c ****     {
 1170              		.loc 1 650 0
 1171              		.cfi_startproc
 1172              		@ args = 0, pretend = 0, frame = 16
 1173              		@ frame_needed = 1, uses_anonymous_args = 0
 1174 0000 80B5     		push	{r7, lr}
 1175              		.cfi_def_cfa_offset 8
 1176              		.cfi_offset 7, -8
 1177              		.cfi_offset 14, -4
 1178 0002 84B0     		sub	sp, sp, #16
 1179              		.cfi_def_cfa_offset 24
 1180 0004 00AF     		add	r7, sp, #0
 1181              		.cfi_def_cfa_register 7
 1182 0006 7860     		str	r0, [r7, #4]
 651:..\FreeRTOS\Source/timers.c ****         TickType_t xNextExpireTime;
 652:..\FreeRTOS\Source/timers.c **** 
 653:..\FreeRTOS\Source/timers.c ****         /* Timers are listed in expiry time order, with the head of the list
 654:..\FreeRTOS\Source/timers.c ****          * referencing the task that will expire first.  Obtain the time at which
 655:..\FreeRTOS\Source/timers.c ****          * the timer with the nearest expiry time will expire.  If there are no
 656:..\FreeRTOS\Source/timers.c ****          * active timers then just set the next expire time to 0.  That will cause
 657:..\FreeRTOS\Source/timers.c ****          * this task to unblock when the tick count overflows, at which point the
 658:..\FreeRTOS\Source/timers.c ****          * timer lists will be switched and the next expiry time can be
 659:..\FreeRTOS\Source/timers.c ****          * re-assessed.  */
 660:..\FreeRTOS\Source/timers.c ****         *pxListWasEmpty = listLIST_IS_EMPTY( pxCurrentTimerList );
 1183              		.loc 1 660 0
 1184 0008 0D4B     		ldr	r3, .L103
 1185 000a 1B68     		ldr	r3, [r3]
 1186 000c 1B68     		ldr	r3, [r3]
 1187 000e 002B     		cmp	r3, #0
 1188 0010 01D1     		bne	.L98
 1189              		.loc 1 660 0 is_stmt 0 discriminator 1
 1190 0012 0122     		movs	r2, #1
 1191 0014 00E0     		b	.L99
 1192              	.L98:
 1193              		.loc 1 660 0 discriminator 2
 1194 0016 0022     		movs	r2, #0
 1195              	.L99:
 1196              		.loc 1 660 0 discriminator 4
 1197 0018 7B68     		ldr	r3, [r7, #4]
 1198 001a 1A60     		str	r2, [r3]
 661:..\FreeRTOS\Source/timers.c **** 
 662:..\FreeRTOS\Source/timers.c ****         if( *pxListWasEmpty == pdFALSE )
 1199              		.loc 1 662 0 is_stmt 1 discriminator 4
 1200 001c 7B68     		ldr	r3, [r7, #4]
 1201 001e 1B68     		ldr	r3, [r3]
ARM GAS  C:\Users\Jason\AppData\Local\Temp\cc2RQUqt.s 			page 34


 1202 0020 002B     		cmp	r3, #0
 1203 0022 05D1     		bne	.L100
 663:..\FreeRTOS\Source/timers.c ****         {
 664:..\FreeRTOS\Source/timers.c ****             xNextExpireTime = listGET_ITEM_VALUE_OF_HEAD_ENTRY( pxCurrentTimerList );
 1204              		.loc 1 664 0
 1205 0024 064B     		ldr	r3, .L103
 1206 0026 1B68     		ldr	r3, [r3]
 1207 0028 DB68     		ldr	r3, [r3, #12]
 1208 002a 1B68     		ldr	r3, [r3]
 1209 002c FB60     		str	r3, [r7, #12]
 1210 002e 01E0     		b	.L101
 1211              	.L100:
 665:..\FreeRTOS\Source/timers.c ****         }
 666:..\FreeRTOS\Source/timers.c ****         else
 667:..\FreeRTOS\Source/timers.c ****         {
 668:..\FreeRTOS\Source/timers.c ****             /* Ensure the task unblocks when the tick count rolls over. */
 669:..\FreeRTOS\Source/timers.c ****             xNextExpireTime = ( TickType_t ) 0U;
 1212              		.loc 1 669 0
 1213 0030 0023     		movs	r3, #0
 1214 0032 FB60     		str	r3, [r7, #12]
 1215              	.L101:
 670:..\FreeRTOS\Source/timers.c ****         }
 671:..\FreeRTOS\Source/timers.c **** 
 672:..\FreeRTOS\Source/timers.c ****         return xNextExpireTime;
 1216              		.loc 1 672 0
 1217 0034 FB68     		ldr	r3, [r7, #12]
 673:..\FreeRTOS\Source/timers.c ****     }
 1218              		.loc 1 673 0
 1219 0036 1800     		movs	r0, r3
 1220 0038 BD46     		mov	sp, r7
 1221 003a 04B0     		add	sp, sp, #16
 1222              		@ sp needed
 1223 003c 80BD     		pop	{r7, pc}
 1224              	.L104:
 1225 003e C046     		.align	2
 1226              	.L103:
 1227 0040 28000000 		.word	pxCurrentTimerList
 1228              		.cfi_endproc
 1229              	.LFE14:
 1230              		.size	prvGetNextExpireTime, .-prvGetNextExpireTime
 1231              		.section	.text.prvSampleTimeNow,"ax",%progbits
 1232              		.align	2
 1233              		.code	16
 1234              		.thumb_func
 1235              		.type	prvSampleTimeNow, %function
 1236              	prvSampleTimeNow:
 1237              	.LFB15:
 674:..\FreeRTOS\Source/timers.c **** /*-----------------------------------------------------------*/
 675:..\FreeRTOS\Source/timers.c **** 
 676:..\FreeRTOS\Source/timers.c ****     static TickType_t prvSampleTimeNow( BaseType_t * const pxTimerListsWereSwitched )
 677:..\FreeRTOS\Source/timers.c ****     {
 1238              		.loc 1 677 0
 1239              		.cfi_startproc
 1240              		@ args = 0, pretend = 0, frame = 16
 1241              		@ frame_needed = 1, uses_anonymous_args = 0
 1242 0000 80B5     		push	{r7, lr}
 1243              		.cfi_def_cfa_offset 8
ARM GAS  C:\Users\Jason\AppData\Local\Temp\cc2RQUqt.s 			page 35


 1244              		.cfi_offset 7, -8
 1245              		.cfi_offset 14, -4
 1246 0002 84B0     		sub	sp, sp, #16
 1247              		.cfi_def_cfa_offset 24
 1248 0004 00AF     		add	r7, sp, #0
 1249              		.cfi_def_cfa_register 7
 1250 0006 7860     		str	r0, [r7, #4]
 678:..\FreeRTOS\Source/timers.c ****         TickType_t xTimeNow;
 679:..\FreeRTOS\Source/timers.c ****         PRIVILEGED_DATA static TickType_t xLastTime = ( TickType_t ) 0U; /*lint !e956 Variable is o
 680:..\FreeRTOS\Source/timers.c **** 
 681:..\FreeRTOS\Source/timers.c ****         xTimeNow = xTaskGetTickCount();
 1251              		.loc 1 681 0
 1252 0008 FFF7FEFF 		bl	xTaskGetTickCount
 1253 000c 0300     		movs	r3, r0
 1254 000e FB60     		str	r3, [r7, #12]
 682:..\FreeRTOS\Source/timers.c **** 
 683:..\FreeRTOS\Source/timers.c ****         if( xTimeNow < xLastTime )
 1255              		.loc 1 683 0
 1256 0010 0A4B     		ldr	r3, .L109
 1257 0012 1B68     		ldr	r3, [r3]
 1258 0014 FA68     		ldr	r2, [r7, #12]
 1259 0016 9A42     		cmp	r2, r3
 1260 0018 05D2     		bcs	.L106
 684:..\FreeRTOS\Source/timers.c ****         {
 685:..\FreeRTOS\Source/timers.c ****             prvSwitchTimerLists();
 1261              		.loc 1 685 0
 1262 001a FFF7FEFF 		bl	prvSwitchTimerLists
 686:..\FreeRTOS\Source/timers.c ****             *pxTimerListsWereSwitched = pdTRUE;
 1263              		.loc 1 686 0
 1264 001e 7B68     		ldr	r3, [r7, #4]
 1265 0020 0122     		movs	r2, #1
 1266 0022 1A60     		str	r2, [r3]
 1267 0024 02E0     		b	.L107
 1268              	.L106:
 687:..\FreeRTOS\Source/timers.c ****         }
 688:..\FreeRTOS\Source/timers.c ****         else
 689:..\FreeRTOS\Source/timers.c ****         {
 690:..\FreeRTOS\Source/timers.c ****             *pxTimerListsWereSwitched = pdFALSE;
 1269              		.loc 1 690 0
 1270 0026 7B68     		ldr	r3, [r7, #4]
 1271 0028 0022     		movs	r2, #0
 1272 002a 1A60     		str	r2, [r3]
 1273              	.L107:
 691:..\FreeRTOS\Source/timers.c ****         }
 692:..\FreeRTOS\Source/timers.c **** 
 693:..\FreeRTOS\Source/timers.c ****         xLastTime = xTimeNow;
 1274              		.loc 1 693 0
 1275 002c 034B     		ldr	r3, .L109
 1276 002e FA68     		ldr	r2, [r7, #12]
 1277 0030 1A60     		str	r2, [r3]
 694:..\FreeRTOS\Source/timers.c **** 
 695:..\FreeRTOS\Source/timers.c ****         return xTimeNow;
 1278              		.loc 1 695 0
 1279 0032 FB68     		ldr	r3, [r7, #12]
 696:..\FreeRTOS\Source/timers.c ****     }
 1280              		.loc 1 696 0
 1281 0034 1800     		movs	r0, r3
ARM GAS  C:\Users\Jason\AppData\Local\Temp\cc2RQUqt.s 			page 36


 1282 0036 BD46     		mov	sp, r7
 1283 0038 04B0     		add	sp, sp, #16
 1284              		@ sp needed
 1285 003a 80BD     		pop	{r7, pc}
 1286              	.L110:
 1287              		.align	2
 1288              	.L109:
 1289 003c 38000000 		.word	xLastTime.5533
 1290              		.cfi_endproc
 1291              	.LFE15:
 1292              		.size	prvSampleTimeNow, .-prvSampleTimeNow
 1293              		.section	.text.prvInsertTimerInActiveList,"ax",%progbits
 1294              		.align	2
 1295              		.code	16
 1296              		.thumb_func
 1297              		.type	prvInsertTimerInActiveList, %function
 1298              	prvInsertTimerInActiveList:
 1299              	.LFB16:
 697:..\FreeRTOS\Source/timers.c **** /*-----------------------------------------------------------*/
 698:..\FreeRTOS\Source/timers.c **** 
 699:..\FreeRTOS\Source/timers.c ****     static BaseType_t prvInsertTimerInActiveList( Timer_t * const pxTimer,
 700:..\FreeRTOS\Source/timers.c ****                                                   const TickType_t xNextExpiryTime,
 701:..\FreeRTOS\Source/timers.c ****                                                   const TickType_t xTimeNow,
 702:..\FreeRTOS\Source/timers.c ****                                                   const TickType_t xCommandTime )
 703:..\FreeRTOS\Source/timers.c ****     {
 1300              		.loc 1 703 0
 1301              		.cfi_startproc
 1302              		@ args = 0, pretend = 0, frame = 24
 1303              		@ frame_needed = 1, uses_anonymous_args = 0
 1304 0000 80B5     		push	{r7, lr}
 1305              		.cfi_def_cfa_offset 8
 1306              		.cfi_offset 7, -8
 1307              		.cfi_offset 14, -4
 1308 0002 86B0     		sub	sp, sp, #24
 1309              		.cfi_def_cfa_offset 32
 1310 0004 00AF     		add	r7, sp, #0
 1311              		.cfi_def_cfa_register 7
 1312 0006 F860     		str	r0, [r7, #12]
 1313 0008 B960     		str	r1, [r7, #8]
 1314 000a 7A60     		str	r2, [r7, #4]
 1315 000c 3B60     		str	r3, [r7]
 704:..\FreeRTOS\Source/timers.c ****         BaseType_t xProcessTimerNow = pdFALSE;
 1316              		.loc 1 704 0
 1317 000e 0023     		movs	r3, #0
 1318 0010 7B61     		str	r3, [r7, #20]
 705:..\FreeRTOS\Source/timers.c **** 
 706:..\FreeRTOS\Source/timers.c ****         listSET_LIST_ITEM_VALUE( &( pxTimer->xTimerListItem ), xNextExpiryTime );
 1319              		.loc 1 706 0
 1320 0012 FB68     		ldr	r3, [r7, #12]
 1321 0014 BA68     		ldr	r2, [r7, #8]
 1322 0016 5A60     		str	r2, [r3, #4]
 707:..\FreeRTOS\Source/timers.c ****         listSET_LIST_ITEM_OWNER( &( pxTimer->xTimerListItem ), pxTimer );
 1323              		.loc 1 707 0
 1324 0018 FB68     		ldr	r3, [r7, #12]
 1325 001a FA68     		ldr	r2, [r7, #12]
 1326 001c 1A61     		str	r2, [r3, #16]
 708:..\FreeRTOS\Source/timers.c **** 
ARM GAS  C:\Users\Jason\AppData\Local\Temp\cc2RQUqt.s 			page 37


 709:..\FreeRTOS\Source/timers.c ****         if( xNextExpiryTime <= xTimeNow )
 1327              		.loc 1 709 0
 1328 001e BA68     		ldr	r2, [r7, #8]
 1329 0020 7B68     		ldr	r3, [r7, #4]
 1330 0022 9A42     		cmp	r2, r3
 1331 0024 12D8     		bhi	.L112
 710:..\FreeRTOS\Source/timers.c ****         {
 711:..\FreeRTOS\Source/timers.c ****             /* Has the expiry time elapsed between the command to start/reset a
 712:..\FreeRTOS\Source/timers.c ****              * timer was issued, and the time the command was processed? */
 713:..\FreeRTOS\Source/timers.c ****             if( ( ( TickType_t ) ( xTimeNow - xCommandTime ) ) >= pxTimer->xTimerPeriodInTicks ) /*
 1332              		.loc 1 713 0
 1333 0026 7A68     		ldr	r2, [r7, #4]
 1334 0028 3B68     		ldr	r3, [r7]
 1335 002a D21A     		subs	r2, r2, r3
 1336 002c FB68     		ldr	r3, [r7, #12]
 1337 002e 9B69     		ldr	r3, [r3, #24]
 1338 0030 9A42     		cmp	r2, r3
 1339 0032 02D3     		bcc	.L113
 714:..\FreeRTOS\Source/timers.c ****             {
 715:..\FreeRTOS\Source/timers.c ****                 /* The time between a command being issued and the command being
 716:..\FreeRTOS\Source/timers.c ****                  * processed actually exceeds the timers period.  */
 717:..\FreeRTOS\Source/timers.c ****                 xProcessTimerNow = pdTRUE;
 1340              		.loc 1 717 0
 1341 0034 0123     		movs	r3, #1
 1342 0036 7B61     		str	r3, [r7, #20]
 1343 0038 1BE0     		b	.L115
 1344              	.L113:
 718:..\FreeRTOS\Source/timers.c ****             }
 719:..\FreeRTOS\Source/timers.c ****             else
 720:..\FreeRTOS\Source/timers.c ****             {
 721:..\FreeRTOS\Source/timers.c ****                 vListInsert( pxOverflowTimerList, &( pxTimer->xTimerListItem ) );
 1345              		.loc 1 721 0
 1346 003a 104B     		ldr	r3, .L118
 1347 003c 1A68     		ldr	r2, [r3]
 1348 003e FB68     		ldr	r3, [r7, #12]
 1349 0040 0433     		adds	r3, r3, #4
 1350 0042 1900     		movs	r1, r3
 1351 0044 1000     		movs	r0, r2
 1352 0046 FFF7FEFF 		bl	vListInsert
 1353 004a 12E0     		b	.L115
 1354              	.L112:
 722:..\FreeRTOS\Source/timers.c ****             }
 723:..\FreeRTOS\Source/timers.c ****         }
 724:..\FreeRTOS\Source/timers.c ****         else
 725:..\FreeRTOS\Source/timers.c ****         {
 726:..\FreeRTOS\Source/timers.c ****             if( ( xTimeNow < xCommandTime ) && ( xNextExpiryTime >= xCommandTime ) )
 1355              		.loc 1 726 0
 1356 004c 7A68     		ldr	r2, [r7, #4]
 1357 004e 3B68     		ldr	r3, [r7]
 1358 0050 9A42     		cmp	r2, r3
 1359 0052 06D2     		bcs	.L116
 1360              		.loc 1 726 0 is_stmt 0 discriminator 1
 1361 0054 BA68     		ldr	r2, [r7, #8]
 1362 0056 3B68     		ldr	r3, [r7]
 1363 0058 9A42     		cmp	r2, r3
 1364 005a 02D3     		bcc	.L116
 727:..\FreeRTOS\Source/timers.c ****             {
ARM GAS  C:\Users\Jason\AppData\Local\Temp\cc2RQUqt.s 			page 38


 728:..\FreeRTOS\Source/timers.c ****                 /* If, since the command was issued, the tick count has overflowed
 729:..\FreeRTOS\Source/timers.c ****                  * but the expiry time has not, then the timer must have already passed
 730:..\FreeRTOS\Source/timers.c ****                  * its expiry time and should be processed immediately. */
 731:..\FreeRTOS\Source/timers.c ****                 xProcessTimerNow = pdTRUE;
 1365              		.loc 1 731 0 is_stmt 1
 1366 005c 0123     		movs	r3, #1
 1367 005e 7B61     		str	r3, [r7, #20]
 1368 0060 07E0     		b	.L115
 1369              	.L116:
 732:..\FreeRTOS\Source/timers.c ****             }
 733:..\FreeRTOS\Source/timers.c ****             else
 734:..\FreeRTOS\Source/timers.c ****             {
 735:..\FreeRTOS\Source/timers.c ****                 vListInsert( pxCurrentTimerList, &( pxTimer->xTimerListItem ) );
 1370              		.loc 1 735 0
 1371 0062 074B     		ldr	r3, .L118+4
 1372 0064 1A68     		ldr	r2, [r3]
 1373 0066 FB68     		ldr	r3, [r7, #12]
 1374 0068 0433     		adds	r3, r3, #4
 1375 006a 1900     		movs	r1, r3
 1376 006c 1000     		movs	r0, r2
 1377 006e FFF7FEFF 		bl	vListInsert
 1378              	.L115:
 736:..\FreeRTOS\Source/timers.c ****             }
 737:..\FreeRTOS\Source/timers.c ****         }
 738:..\FreeRTOS\Source/timers.c **** 
 739:..\FreeRTOS\Source/timers.c ****         return xProcessTimerNow;
 1379              		.loc 1 739 0
 1380 0072 7B69     		ldr	r3, [r7, #20]
 740:..\FreeRTOS\Source/timers.c ****     }
 1381              		.loc 1 740 0
 1382 0074 1800     		movs	r0, r3
 1383 0076 BD46     		mov	sp, r7
 1384 0078 06B0     		add	sp, sp, #24
 1385              		@ sp needed
 1386 007a 80BD     		pop	{r7, pc}
 1387              	.L119:
 1388              		.align	2
 1389              	.L118:
 1390 007c 2C000000 		.word	pxOverflowTimerList
 1391 0080 28000000 		.word	pxCurrentTimerList
 1392              		.cfi_endproc
 1393              	.LFE16:
 1394              		.size	prvInsertTimerInActiveList, .-prvInsertTimerInActiveList
 1395              		.section	.text.prvProcessReceivedCommands,"ax",%progbits
 1396              		.align	2
 1397              		.code	16
 1398              		.thumb_func
 1399              		.type	prvProcessReceivedCommands, %function
 1400              	prvProcessReceivedCommands:
 1401              	.LFB17:
 741:..\FreeRTOS\Source/timers.c **** /*-----------------------------------------------------------*/
 742:..\FreeRTOS\Source/timers.c **** 
 743:..\FreeRTOS\Source/timers.c ****     static void prvProcessReceivedCommands( void )
 744:..\FreeRTOS\Source/timers.c ****     {
 1402              		.loc 1 744 0
 1403              		.cfi_startproc
 1404              		@ args = 0, pretend = 0, frame = 32
ARM GAS  C:\Users\Jason\AppData\Local\Temp\cc2RQUqt.s 			page 39


 1405              		@ frame_needed = 1, uses_anonymous_args = 0
 1406 0000 80B5     		push	{r7, lr}
 1407              		.cfi_def_cfa_offset 8
 1408              		.cfi_offset 7, -8
 1409              		.cfi_offset 14, -4
 1410 0002 8AB0     		sub	sp, sp, #40
 1411              		.cfi_def_cfa_offset 48
 1412 0004 02AF     		add	r7, sp, #8
 1413              		.cfi_def_cfa 7, 40
 745:..\FreeRTOS\Source/timers.c ****         DaemonTaskMessage_t xMessage;
 746:..\FreeRTOS\Source/timers.c ****         Timer_t * pxTimer;
 747:..\FreeRTOS\Source/timers.c ****         BaseType_t xTimerListsWereSwitched, xResult;
 748:..\FreeRTOS\Source/timers.c ****         TickType_t xTimeNow;
 749:..\FreeRTOS\Source/timers.c **** 
 750:..\FreeRTOS\Source/timers.c ****         while( xQueueReceive( xTimerQueue, &xMessage, tmrNO_DELAY ) != pdFAIL ) /*lint !e603 xMessa
 1414              		.loc 1 750 0
 1415 0006 9BE0     		b	.L121
 1416              	.L135:
 751:..\FreeRTOS\Source/timers.c ****         {
 752:..\FreeRTOS\Source/timers.c ****             #if ( INCLUDE_xTimerPendFunctionCall == 1 )
 753:..\FreeRTOS\Source/timers.c ****                 {
 754:..\FreeRTOS\Source/timers.c ****                     /* Negative commands are pended function calls rather than timer
 755:..\FreeRTOS\Source/timers.c ****                      * commands. */
 756:..\FreeRTOS\Source/timers.c ****                     if( xMessage.xMessageID < ( BaseType_t ) 0 )
 757:..\FreeRTOS\Source/timers.c ****                     {
 758:..\FreeRTOS\Source/timers.c ****                         const CallbackParameters_t * const pxCallback = &( xMessage.u.xCallbackPara
 759:..\FreeRTOS\Source/timers.c **** 
 760:..\FreeRTOS\Source/timers.c ****                         /* The timer uses the xCallbackParameters member to request a
 761:..\FreeRTOS\Source/timers.c ****                          * callback be executed.  Check the callback is not NULL. */
 762:..\FreeRTOS\Source/timers.c ****                         configASSERT( pxCallback );
 763:..\FreeRTOS\Source/timers.c **** 
 764:..\FreeRTOS\Source/timers.c ****                         /* Call the function. */
 765:..\FreeRTOS\Source/timers.c ****                         pxCallback->pxCallbackFunction( pxCallback->pvParameter1, pxCallback->ulPar
 766:..\FreeRTOS\Source/timers.c ****                     }
 767:..\FreeRTOS\Source/timers.c ****                     else
 768:..\FreeRTOS\Source/timers.c ****                     {
 769:..\FreeRTOS\Source/timers.c ****                         mtCOVERAGE_TEST_MARKER();
 770:..\FreeRTOS\Source/timers.c ****                     }
 771:..\FreeRTOS\Source/timers.c ****                 }
 772:..\FreeRTOS\Source/timers.c ****             #endif /* INCLUDE_xTimerPendFunctionCall */
 773:..\FreeRTOS\Source/timers.c **** 
 774:..\FreeRTOS\Source/timers.c ****             /* Commands that are positive are timer commands rather than pended
 775:..\FreeRTOS\Source/timers.c ****              * function calls. */
 776:..\FreeRTOS\Source/timers.c ****             if( xMessage.xMessageID >= ( BaseType_t ) 0 )
 1417              		.loc 1 776 0
 1418 0008 0823     		movs	r3, #8
 1419 000a FB18     		adds	r3, r7, r3
 1420 000c 1B68     		ldr	r3, [r3]
 1421 000e 002B     		cmp	r3, #0
 1422 0010 00DA     		bge	.LCB1183
 1423 0012 95E0     		b	.L121	@long jump
 1424              	.LCB1183:
 777:..\FreeRTOS\Source/timers.c ****             {
 778:..\FreeRTOS\Source/timers.c ****                 /* The messages uses the xTimerParameters member to work on a
 779:..\FreeRTOS\Source/timers.c ****                  * software timer. */
 780:..\FreeRTOS\Source/timers.c ****                 pxTimer = xMessage.u.xTimerParameters.pxTimer;
 1425              		.loc 1 780 0
ARM GAS  C:\Users\Jason\AppData\Local\Temp\cc2RQUqt.s 			page 40


 1426 0014 0823     		movs	r3, #8
 1427 0016 FB18     		adds	r3, r7, r3
 1428 0018 9B68     		ldr	r3, [r3, #8]
 1429 001a FB61     		str	r3, [r7, #28]
 781:..\FreeRTOS\Source/timers.c **** 
 782:..\FreeRTOS\Source/timers.c ****                 if( listIS_CONTAINED_WITHIN( NULL, &( pxTimer->xTimerListItem ) ) == pdFALSE ) /*li
 1430              		.loc 1 782 0
 1431 001c FB69     		ldr	r3, [r7, #28]
 1432 001e 5B69     		ldr	r3, [r3, #20]
 1433 0020 002B     		cmp	r3, #0
 1434 0022 04D0     		beq	.L122
 783:..\FreeRTOS\Source/timers.c ****                 {
 784:..\FreeRTOS\Source/timers.c ****                     /* The timer is in a list, remove it. */
 785:..\FreeRTOS\Source/timers.c ****                     ( void ) uxListRemove( &( pxTimer->xTimerListItem ) );
 1435              		.loc 1 785 0
 1436 0024 FB69     		ldr	r3, [r7, #28]
 1437 0026 0433     		adds	r3, r3, #4
 1438 0028 1800     		movs	r0, r3
 1439 002a FFF7FEFF 		bl	uxListRemove
 1440              	.L122:
 786:..\FreeRTOS\Source/timers.c ****                 }
 787:..\FreeRTOS\Source/timers.c ****                 else
 788:..\FreeRTOS\Source/timers.c ****                 {
 789:..\FreeRTOS\Source/timers.c ****                     mtCOVERAGE_TEST_MARKER();
 790:..\FreeRTOS\Source/timers.c ****                 }
 791:..\FreeRTOS\Source/timers.c **** 
 792:..\FreeRTOS\Source/timers.c ****                 traceTIMER_COMMAND_RECEIVED( pxTimer, xMessage.xMessageID, xMessage.u.xTimerParamet
 793:..\FreeRTOS\Source/timers.c **** 
 794:..\FreeRTOS\Source/timers.c ****                 /* In this case the xTimerListsWereSwitched parameter is not used, but
 795:..\FreeRTOS\Source/timers.c ****                  *  it must be present in the function call.  prvSampleTimeNow() must be
 796:..\FreeRTOS\Source/timers.c ****                  *  called after the message is received from xTimerQueue so there is no
 797:..\FreeRTOS\Source/timers.c ****                  *  possibility of a higher priority task adding a message to the message
 798:..\FreeRTOS\Source/timers.c ****                  *  queue with a time that is ahead of the timer daemon task (because it
 799:..\FreeRTOS\Source/timers.c ****                  *  pre-empted the timer daemon task after the xTimeNow value was set). */
 800:..\FreeRTOS\Source/timers.c ****                 xTimeNow = prvSampleTimeNow( &xTimerListsWereSwitched );
 1441              		.loc 1 800 0
 1442 002e 3B1D     		adds	r3, r7, #4
 1443 0030 1800     		movs	r0, r3
 1444 0032 FFF7FEFF 		bl	prvSampleTimeNow
 1445 0036 0300     		movs	r3, r0
 1446 0038 BB61     		str	r3, [r7, #24]
 801:..\FreeRTOS\Source/timers.c **** 
 802:..\FreeRTOS\Source/timers.c ****                 switch( xMessage.xMessageID )
 1447              		.loc 1 802 0
 1448 003a 0823     		movs	r3, #8
 1449 003c FB18     		adds	r3, r7, r3
 1450 003e 1B68     		ldr	r3, [r3]
 1451 0040 092B     		cmp	r3, #9
 1452 0042 00D9     		bls	.LCB1207
 1453 0044 7BE0     		b	.L136	@long jump
 1454              	.LCB1207:
 1455 0046 9A00     		lsls	r2, r3, #2
 1456 0048 454B     		ldr	r3, .L137
 1457 004a D318     		adds	r3, r2, r3
 1458 004c 1B68     		ldr	r3, [r3]
 1459 004e 9F46     		mov	pc, r3
 1460              		.section	.rodata
ARM GAS  C:\Users\Jason\AppData\Local\Temp\cc2RQUqt.s 			page 41


 1461              		.align	2
 1462              	.L125:
 1463 0008 50000000 		.word	.L124
 1464 000c 50000000 		.word	.L124
 1465 0010 50000000 		.word	.L124
 1466 0014 C2000000 		.word	.L126
 1467 0018 D6000000 		.word	.L127
 1468 001c 12010000 		.word	.L128
 1469 0020 50000000 		.word	.L124
 1470 0024 50000000 		.word	.L124
 1471 0028 C2000000 		.word	.L126
 1472 002c D6000000 		.word	.L127
 1473              		.section	.text.prvProcessReceivedCommands
 1474              	.L124:
 803:..\FreeRTOS\Source/timers.c ****                 {
 804:..\FreeRTOS\Source/timers.c ****                     case tmrCOMMAND_START:
 805:..\FreeRTOS\Source/timers.c ****                     case tmrCOMMAND_START_FROM_ISR:
 806:..\FreeRTOS\Source/timers.c ****                     case tmrCOMMAND_RESET:
 807:..\FreeRTOS\Source/timers.c ****                     case tmrCOMMAND_RESET_FROM_ISR:
 808:..\FreeRTOS\Source/timers.c ****                     case tmrCOMMAND_START_DONT_TRACE:
 809:..\FreeRTOS\Source/timers.c ****                         /* Start or restart a timer. */
 810:..\FreeRTOS\Source/timers.c ****                         pxTimer->ucStatus |= tmrSTATUS_IS_ACTIVE;
 1475              		.loc 1 810 0
 1476 0050 FB69     		ldr	r3, [r7, #28]
 1477 0052 2422     		movs	r2, #36
 1478 0054 9B5C     		ldrb	r3, [r3, r2]
 1479 0056 0122     		movs	r2, #1
 1480 0058 1343     		orrs	r3, r2
 1481 005a D9B2     		uxtb	r1, r3
 1482 005c FB69     		ldr	r3, [r7, #28]
 1483 005e 2422     		movs	r2, #36
 1484 0060 9954     		strb	r1, [r3, r2]
 811:..\FreeRTOS\Source/timers.c **** 
 812:..\FreeRTOS\Source/timers.c ****                         if( prvInsertTimerInActiveList( pxTimer, xMessage.u.xTimerParameters.xMessa
 1485              		.loc 1 812 0
 1486 0062 0823     		movs	r3, #8
 1487 0064 FB18     		adds	r3, r7, r3
 1488 0066 5A68     		ldr	r2, [r3, #4]
 1489 0068 FB69     		ldr	r3, [r7, #28]
 1490 006a 9B69     		ldr	r3, [r3, #24]
 1491 006c D118     		adds	r1, r2, r3
 1492 006e 0823     		movs	r3, #8
 1493 0070 FB18     		adds	r3, r7, r3
 1494 0072 5B68     		ldr	r3, [r3, #4]
 1495 0074 BA69     		ldr	r2, [r7, #24]
 1496 0076 F869     		ldr	r0, [r7, #28]
 1497 0078 FFF7FEFF 		bl	prvInsertTimerInActiveList
 1498 007c 031E     		subs	r3, r0, #0
 1499 007e 5FD0     		beq	.L121
 813:..\FreeRTOS\Source/timers.c ****                         {
 814:..\FreeRTOS\Source/timers.c ****                             /* The timer expired before it was added to the active
 815:..\FreeRTOS\Source/timers.c ****                              * timer list.  Process it now. */
 816:..\FreeRTOS\Source/timers.c ****                             pxTimer->pxCallbackFunction( ( TimerHandle_t ) pxTimer );
 1500              		.loc 1 816 0
 1501 0080 FB69     		ldr	r3, [r7, #28]
 1502 0082 1B6A     		ldr	r3, [r3, #32]
 1503 0084 FA69     		ldr	r2, [r7, #28]
ARM GAS  C:\Users\Jason\AppData\Local\Temp\cc2RQUqt.s 			page 42


 1504 0086 1000     		movs	r0, r2
 1505 0088 9847     		blx	r3
 817:..\FreeRTOS\Source/timers.c ****                             traceTIMER_EXPIRED( pxTimer );
 818:..\FreeRTOS\Source/timers.c **** 
 819:..\FreeRTOS\Source/timers.c ****                             if( ( pxTimer->ucStatus & tmrSTATUS_IS_AUTORELOAD ) != 0 )
 1506              		.loc 1 819 0
 1507 008a FB69     		ldr	r3, [r7, #28]
 1508 008c 2422     		movs	r2, #36
 1509 008e 9B5C     		ldrb	r3, [r3, r2]
 1510 0090 1A00     		movs	r2, r3
 1511 0092 0423     		movs	r3, #4
 1512 0094 1340     		ands	r3, r2
 1513 0096 53D0     		beq	.L121
 820:..\FreeRTOS\Source/timers.c ****                             {
 821:..\FreeRTOS\Source/timers.c ****                                 xResult = xTimerGenericCommand( pxTimer, tmrCOMMAND_START_DONT_TRAC
 1514              		.loc 1 821 0
 1515 0098 0823     		movs	r3, #8
 1516 009a FB18     		adds	r3, r7, r3
 1517 009c 5A68     		ldr	r2, [r3, #4]
 1518 009e FB69     		ldr	r3, [r7, #28]
 1519 00a0 9B69     		ldr	r3, [r3, #24]
 1520 00a2 D218     		adds	r2, r2, r3
 1521 00a4 F869     		ldr	r0, [r7, #28]
 1522 00a6 0023     		movs	r3, #0
 1523 00a8 0093     		str	r3, [sp]
 1524 00aa 0023     		movs	r3, #0
 1525 00ac 0021     		movs	r1, #0
 1526 00ae FFF7FEFF 		bl	xTimerGenericCommand
 1527 00b2 0300     		movs	r3, r0
 1528 00b4 7B61     		str	r3, [r7, #20]
 822:..\FreeRTOS\Source/timers.c ****                                 configASSERT( xResult );
 1529              		.loc 1 822 0
 1530 00b6 2B4B     		ldr	r3, .L137+4
 1531 00b8 1B88     		ldrh	r3, [r3]
 1532 00ba 002B     		cmp	r3, #0
 1533 00bc 40D1     		bne	.L121
 1534              		.loc 1 822 0 is_stmt 0 discriminator 1
 1535              		.syntax divided
 1536              	@ 822 "..\FreeRTOS\Source\timers.c" 1
 1537 00be 72B6     		 cpsid i 
 1538              	@ 0 "" 2
 1539              		.thumb
 1540              		.syntax unified
 1541              	.L130:
 1542 00c0 FEE7     		b	.L130
 1543              	.L126:
 823:..\FreeRTOS\Source/timers.c ****                                 ( void ) xResult;
 824:..\FreeRTOS\Source/timers.c ****                             }
 825:..\FreeRTOS\Source/timers.c ****                             else
 826:..\FreeRTOS\Source/timers.c ****                             {
 827:..\FreeRTOS\Source/timers.c ****                                 mtCOVERAGE_TEST_MARKER();
 828:..\FreeRTOS\Source/timers.c ****                             }
 829:..\FreeRTOS\Source/timers.c ****                         }
 830:..\FreeRTOS\Source/timers.c ****                         else
 831:..\FreeRTOS\Source/timers.c ****                         {
 832:..\FreeRTOS\Source/timers.c ****                             mtCOVERAGE_TEST_MARKER();
 833:..\FreeRTOS\Source/timers.c ****                         }
ARM GAS  C:\Users\Jason\AppData\Local\Temp\cc2RQUqt.s 			page 43


 834:..\FreeRTOS\Source/timers.c **** 
 835:..\FreeRTOS\Source/timers.c ****                         break;
 836:..\FreeRTOS\Source/timers.c **** 
 837:..\FreeRTOS\Source/timers.c ****                     case tmrCOMMAND_STOP:
 838:..\FreeRTOS\Source/timers.c ****                     case tmrCOMMAND_STOP_FROM_ISR:
 839:..\FreeRTOS\Source/timers.c ****                         /* The timer has already been removed from the active list. */
 840:..\FreeRTOS\Source/timers.c ****                         pxTimer->ucStatus &= ~tmrSTATUS_IS_ACTIVE;
 1544              		.loc 1 840 0 is_stmt 1
 1545 00c2 FB69     		ldr	r3, [r7, #28]
 1546 00c4 2422     		movs	r2, #36
 1547 00c6 9B5C     		ldrb	r3, [r3, r2]
 1548 00c8 0122     		movs	r2, #1
 1549 00ca 9343     		bics	r3, r2
 1550 00cc D9B2     		uxtb	r1, r3
 1551 00ce FB69     		ldr	r3, [r7, #28]
 1552 00d0 2422     		movs	r2, #36
 1553 00d2 9954     		strb	r1, [r3, r2]
 841:..\FreeRTOS\Source/timers.c ****                         break;
 1554              		.loc 1 841 0
 1555 00d4 34E0     		b	.L121
 1556              	.L127:
 842:..\FreeRTOS\Source/timers.c **** 
 843:..\FreeRTOS\Source/timers.c ****                     case tmrCOMMAND_CHANGE_PERIOD:
 844:..\FreeRTOS\Source/timers.c ****                     case tmrCOMMAND_CHANGE_PERIOD_FROM_ISR:
 845:..\FreeRTOS\Source/timers.c ****                         pxTimer->ucStatus |= tmrSTATUS_IS_ACTIVE;
 1557              		.loc 1 845 0
 1558 00d6 FB69     		ldr	r3, [r7, #28]
 1559 00d8 2422     		movs	r2, #36
 1560 00da 9B5C     		ldrb	r3, [r3, r2]
 1561 00dc 0122     		movs	r2, #1
 1562 00de 1343     		orrs	r3, r2
 1563 00e0 D9B2     		uxtb	r1, r3
 1564 00e2 FB69     		ldr	r3, [r7, #28]
 1565 00e4 2422     		movs	r2, #36
 1566 00e6 9954     		strb	r1, [r3, r2]
 846:..\FreeRTOS\Source/timers.c ****                         pxTimer->xTimerPeriodInTicks = xMessage.u.xTimerParameters.xMessageValue;
 1567              		.loc 1 846 0
 1568 00e8 0823     		movs	r3, #8
 1569 00ea FB18     		adds	r3, r7, r3
 1570 00ec 5A68     		ldr	r2, [r3, #4]
 1571 00ee FB69     		ldr	r3, [r7, #28]
 1572 00f0 9A61     		str	r2, [r3, #24]
 847:..\FreeRTOS\Source/timers.c ****                         configASSERT( ( pxTimer->xTimerPeriodInTicks > 0 ) );
 1573              		.loc 1 847 0
 1574 00f2 1C4B     		ldr	r3, .L137+4
 1575 00f4 1B88     		ldrh	r3, [r3]
 1576 00f6 002B     		cmp	r3, #0
 1577 00f8 01D1     		bne	.L131
 1578              		.loc 1 847 0 is_stmt 0 discriminator 1
 1579              		.syntax divided
 1580              	@ 847 "..\FreeRTOS\Source\timers.c" 1
 1581 00fa 72B6     		 cpsid i 
 1582              	@ 0 "" 2
 1583              		.thumb
 1584              		.syntax unified
 1585              	.L132:
 1586              		.loc 1 847 0 discriminator 4
ARM GAS  C:\Users\Jason\AppData\Local\Temp\cc2RQUqt.s 			page 44


 1587 00fc FEE7     		b	.L132
 1588              	.L131:
 848:..\FreeRTOS\Source/timers.c **** 
 849:..\FreeRTOS\Source/timers.c ****                         /* The new period does not really have a reference, and can
 850:..\FreeRTOS\Source/timers.c ****                          * be longer or shorter than the old one.  The command time is
 851:..\FreeRTOS\Source/timers.c ****                          * therefore set to the current time, and as the period cannot
 852:..\FreeRTOS\Source/timers.c ****                          * be zero the next expiry time can only be in the future,
 853:..\FreeRTOS\Source/timers.c ****                          * meaning (unlike for the xTimerStart() case above) there is
 854:..\FreeRTOS\Source/timers.c ****                          * no fail case that needs to be handled here. */
 855:..\FreeRTOS\Source/timers.c ****                         ( void ) prvInsertTimerInActiveList( pxTimer, ( xTimeNow + pxTimer->xTimerP
 1589              		.loc 1 855 0 is_stmt 1 discriminator 2
 1590 00fe FB69     		ldr	r3, [r7, #28]
 1591 0100 9A69     		ldr	r2, [r3, #24]
 1592 0102 BB69     		ldr	r3, [r7, #24]
 1593 0104 D118     		adds	r1, r2, r3
 1594 0106 BB69     		ldr	r3, [r7, #24]
 1595 0108 BA69     		ldr	r2, [r7, #24]
 1596 010a F869     		ldr	r0, [r7, #28]
 1597 010c FFF7FEFF 		bl	prvInsertTimerInActiveList
 856:..\FreeRTOS\Source/timers.c ****                         break;
 1598              		.loc 1 856 0 discriminator 2
 1599 0110 16E0     		b	.L121
 1600              	.L128:
 857:..\FreeRTOS\Source/timers.c **** 
 858:..\FreeRTOS\Source/timers.c ****                     case tmrCOMMAND_DELETE:
 859:..\FreeRTOS\Source/timers.c ****                         #if ( configSUPPORT_DYNAMIC_ALLOCATION == 1 )
 860:..\FreeRTOS\Source/timers.c ****                             {
 861:..\FreeRTOS\Source/timers.c ****                                 /* The timer has already been removed from the active list,
 862:..\FreeRTOS\Source/timers.c ****                                  * just free up the memory if the memory was dynamically
 863:..\FreeRTOS\Source/timers.c ****                                  * allocated. */
 864:..\FreeRTOS\Source/timers.c ****                                 if( ( pxTimer->ucStatus & tmrSTATUS_IS_STATICALLY_ALLOCATED ) == ( 
 1601              		.loc 1 864 0
 1602 0112 FB69     		ldr	r3, [r7, #28]
 1603 0114 2422     		movs	r2, #36
 1604 0116 9B5C     		ldrb	r3, [r3, r2]
 1605 0118 1A00     		movs	r2, r3
 1606 011a 0223     		movs	r3, #2
 1607 011c 1340     		ands	r3, r2
 1608 011e 04D1     		bne	.L133
 865:..\FreeRTOS\Source/timers.c ****                                 {
 866:..\FreeRTOS\Source/timers.c ****                                     vPortFree( pxTimer );
 1609              		.loc 1 866 0
 1610 0120 FB69     		ldr	r3, [r7, #28]
 1611 0122 1800     		movs	r0, r3
 1612 0124 FFF7FEFF 		bl	vPortFree
 1613 0128 0AE0     		b	.L121
 1614              	.L133:
 867:..\FreeRTOS\Source/timers.c ****                                 }
 868:..\FreeRTOS\Source/timers.c ****                                 else
 869:..\FreeRTOS\Source/timers.c ****                                 {
 870:..\FreeRTOS\Source/timers.c ****                                     pxTimer->ucStatus &= ~tmrSTATUS_IS_ACTIVE;
 1615              		.loc 1 870 0
 1616 012a FB69     		ldr	r3, [r7, #28]
 1617 012c 2422     		movs	r2, #36
 1618 012e 9B5C     		ldrb	r3, [r3, r2]
 1619 0130 0122     		movs	r2, #1
 1620 0132 9343     		bics	r3, r2
ARM GAS  C:\Users\Jason\AppData\Local\Temp\cc2RQUqt.s 			page 45


 1621 0134 D9B2     		uxtb	r1, r3
 1622 0136 FB69     		ldr	r3, [r7, #28]
 1623 0138 2422     		movs	r2, #36
 1624 013a 9954     		strb	r1, [r3, r2]
 871:..\FreeRTOS\Source/timers.c ****                                 }
 872:..\FreeRTOS\Source/timers.c ****                             }
 873:..\FreeRTOS\Source/timers.c ****                         #else /* if ( configSUPPORT_DYNAMIC_ALLOCATION == 1 ) */
 874:..\FreeRTOS\Source/timers.c ****                             {
 875:..\FreeRTOS\Source/timers.c ****                                 /* If dynamic allocation is not enabled, the memory
 876:..\FreeRTOS\Source/timers.c ****                                  * could not have been dynamically allocated. So there is
 877:..\FreeRTOS\Source/timers.c ****                                  * no need to free the memory - just mark the timer as
 878:..\FreeRTOS\Source/timers.c ****                                  * "not active". */
 879:..\FreeRTOS\Source/timers.c ****                                 pxTimer->ucStatus &= ~tmrSTATUS_IS_ACTIVE;
 880:..\FreeRTOS\Source/timers.c ****                             }
 881:..\FreeRTOS\Source/timers.c ****                         #endif /* configSUPPORT_DYNAMIC_ALLOCATION */
 882:..\FreeRTOS\Source/timers.c ****                         break;
 1625              		.loc 1 882 0
 1626 013c 00E0     		b	.L121
 1627              	.L136:
 883:..\FreeRTOS\Source/timers.c **** 
 884:..\FreeRTOS\Source/timers.c ****                     default:
 885:..\FreeRTOS\Source/timers.c ****                         /* Don't expect to get here. */
 886:..\FreeRTOS\Source/timers.c ****                         break;
 1628              		.loc 1 886 0
 1629 013e C046     		nop
 1630              	.L121:
 750:..\FreeRTOS\Source/timers.c ****         {
 1631              		.loc 1 750 0
 1632 0140 094B     		ldr	r3, .L137+8
 1633 0142 1B68     		ldr	r3, [r3]
 1634 0144 0822     		movs	r2, #8
 1635 0146 B918     		adds	r1, r7, r2
 1636 0148 0022     		movs	r2, #0
 1637 014a 1800     		movs	r0, r3
 1638 014c FFF7FEFF 		bl	xQueueReceive
 1639 0150 031E     		subs	r3, r0, #0
 1640 0152 00D0     		beq	.LCB1371
 1641 0154 58E7     		b	.L135	@long jump
 1642              	.LCB1371:
 887:..\FreeRTOS\Source/timers.c ****                 }
 888:..\FreeRTOS\Source/timers.c ****             }
 889:..\FreeRTOS\Source/timers.c ****         }
 890:..\FreeRTOS\Source/timers.c ****     }
 1643              		.loc 1 890 0
 1644 0156 C046     		nop
 1645 0158 BD46     		mov	sp, r7
 1646 015a 08B0     		add	sp, sp, #32
 1647              		@ sp needed
 1648 015c 80BD     		pop	{r7, pc}
 1649              	.L138:
 1650 015e C046     		.align	2
 1651              	.L137:
 1652 0160 08000000 		.word	.L125
 1653 0164 00000000 		.word	x
 1654 0168 30000000 		.word	xTimerQueue
 1655              		.cfi_endproc
 1656              	.LFE17:
ARM GAS  C:\Users\Jason\AppData\Local\Temp\cc2RQUqt.s 			page 46


 1657              		.size	prvProcessReceivedCommands, .-prvProcessReceivedCommands
 1658              		.section	.text.prvSwitchTimerLists,"ax",%progbits
 1659              		.align	2
 1660              		.code	16
 1661              		.thumb_func
 1662              		.type	prvSwitchTimerLists, %function
 1663              	prvSwitchTimerLists:
 1664              	.LFB18:
 891:..\FreeRTOS\Source/timers.c **** /*-----------------------------------------------------------*/
 892:..\FreeRTOS\Source/timers.c **** 
 893:..\FreeRTOS\Source/timers.c ****     static void prvSwitchTimerLists( void )
 894:..\FreeRTOS\Source/timers.c ****     {
 1665              		.loc 1 894 0
 1666              		.cfi_startproc
 1667              		@ args = 0, pretend = 0, frame = 24
 1668              		@ frame_needed = 1, uses_anonymous_args = 0
 1669 0000 80B5     		push	{r7, lr}
 1670              		.cfi_def_cfa_offset 8
 1671              		.cfi_offset 7, -8
 1672              		.cfi_offset 14, -4
 1673 0002 88B0     		sub	sp, sp, #32
 1674              		.cfi_def_cfa_offset 40
 1675 0004 02AF     		add	r7, sp, #8
 1676              		.cfi_def_cfa 7, 32
 895:..\FreeRTOS\Source/timers.c ****         TickType_t xNextExpireTime, xReloadTime;
 896:..\FreeRTOS\Source/timers.c ****         List_t * pxTemp;
 897:..\FreeRTOS\Source/timers.c ****         Timer_t * pxTimer;
 898:..\FreeRTOS\Source/timers.c ****         BaseType_t xResult;
 899:..\FreeRTOS\Source/timers.c **** 
 900:..\FreeRTOS\Source/timers.c ****         /* The tick count has overflowed.  The timer lists must be switched.
 901:..\FreeRTOS\Source/timers.c ****          * If there are any timers still referenced from the current timer list
 902:..\FreeRTOS\Source/timers.c ****          * then they must have expired and should be processed before the lists
 903:..\FreeRTOS\Source/timers.c ****          * are switched. */
 904:..\FreeRTOS\Source/timers.c ****         while( listLIST_IS_EMPTY( pxCurrentTimerList ) == pdFALSE )
 1677              		.loc 1 904 0
 1678 0006 42E0     		b	.L140
 1679              	.L143:
 905:..\FreeRTOS\Source/timers.c ****         {
 906:..\FreeRTOS\Source/timers.c ****             xNextExpireTime = listGET_ITEM_VALUE_OF_HEAD_ENTRY( pxCurrentTimerList );
 1680              		.loc 1 906 0
 1681 0008 2A4B     		ldr	r3, .L144
 1682 000a 1B68     		ldr	r3, [r3]
 1683 000c DB68     		ldr	r3, [r3, #12]
 1684 000e 1B68     		ldr	r3, [r3]
 1685 0010 7B61     		str	r3, [r7, #20]
 907:..\FreeRTOS\Source/timers.c **** 
 908:..\FreeRTOS\Source/timers.c ****             /* Remove the timer from the list. */
 909:..\FreeRTOS\Source/timers.c ****             pxTimer = ( Timer_t * ) listGET_OWNER_OF_HEAD_ENTRY( pxCurrentTimerList ); /*lint !e908
 1686              		.loc 1 909 0
 1687 0012 284B     		ldr	r3, .L144
 1688 0014 1B68     		ldr	r3, [r3]
 1689 0016 DB68     		ldr	r3, [r3, #12]
 1690 0018 DB68     		ldr	r3, [r3, #12]
 1691 001a 3B61     		str	r3, [r7, #16]
 910:..\FreeRTOS\Source/timers.c ****             ( void ) uxListRemove( &( pxTimer->xTimerListItem ) );
 1692              		.loc 1 910 0
 1693 001c 3B69     		ldr	r3, [r7, #16]
ARM GAS  C:\Users\Jason\AppData\Local\Temp\cc2RQUqt.s 			page 47


 1694 001e 0433     		adds	r3, r3, #4
 1695 0020 1800     		movs	r0, r3
 1696 0022 FFF7FEFF 		bl	uxListRemove
 911:..\FreeRTOS\Source/timers.c ****             traceTIMER_EXPIRED( pxTimer );
 912:..\FreeRTOS\Source/timers.c **** 
 913:..\FreeRTOS\Source/timers.c ****             /* Execute its callback, then send a command to restart the timer if
 914:..\FreeRTOS\Source/timers.c ****              * it is an auto-reload timer.  It cannot be restarted here as the lists
 915:..\FreeRTOS\Source/timers.c ****              * have not yet been switched. */
 916:..\FreeRTOS\Source/timers.c ****             pxTimer->pxCallbackFunction( ( TimerHandle_t ) pxTimer );
 1697              		.loc 1 916 0
 1698 0026 3B69     		ldr	r3, [r7, #16]
 1699 0028 1B6A     		ldr	r3, [r3, #32]
 1700 002a 3A69     		ldr	r2, [r7, #16]
 1701 002c 1000     		movs	r0, r2
 1702 002e 9847     		blx	r3
 917:..\FreeRTOS\Source/timers.c **** 
 918:..\FreeRTOS\Source/timers.c ****             if( ( pxTimer->ucStatus & tmrSTATUS_IS_AUTORELOAD ) != 0 )
 1703              		.loc 1 918 0
 1704 0030 3B69     		ldr	r3, [r7, #16]
 1705 0032 2422     		movs	r2, #36
 1706 0034 9B5C     		ldrb	r3, [r3, r2]
 1707 0036 1A00     		movs	r2, r3
 1708 0038 0423     		movs	r3, #4
 1709 003a 1340     		ands	r3, r2
 1710 003c 27D0     		beq	.L140
 919:..\FreeRTOS\Source/timers.c ****             {
 920:..\FreeRTOS\Source/timers.c ****                 /* Calculate the reload value, and if the reload value results in
 921:..\FreeRTOS\Source/timers.c ****                  * the timer going into the same timer list then it has already expired
 922:..\FreeRTOS\Source/timers.c ****                  * and the timer should be re-inserted into the current list so it is
 923:..\FreeRTOS\Source/timers.c ****                  * processed again within this loop.  Otherwise a command should be sent
 924:..\FreeRTOS\Source/timers.c ****                  * to restart the timer to ensure it is only inserted into a list after
 925:..\FreeRTOS\Source/timers.c ****                  * the lists have been swapped. */
 926:..\FreeRTOS\Source/timers.c ****                 xReloadTime = ( xNextExpireTime + pxTimer->xTimerPeriodInTicks );
 1711              		.loc 1 926 0
 1712 003e 3B69     		ldr	r3, [r7, #16]
 1713 0040 9A69     		ldr	r2, [r3, #24]
 1714 0042 7B69     		ldr	r3, [r7, #20]
 1715 0044 D318     		adds	r3, r2, r3
 1716 0046 FB60     		str	r3, [r7, #12]
 927:..\FreeRTOS\Source/timers.c **** 
 928:..\FreeRTOS\Source/timers.c ****                 if( xReloadTime > xNextExpireTime )
 1717              		.loc 1 928 0
 1718 0048 FA68     		ldr	r2, [r7, #12]
 1719 004a 7B69     		ldr	r3, [r7, #20]
 1720 004c 9A42     		cmp	r2, r3
 1721 004e 0ED9     		bls	.L141
 929:..\FreeRTOS\Source/timers.c ****                 {
 930:..\FreeRTOS\Source/timers.c ****                     listSET_LIST_ITEM_VALUE( &( pxTimer->xTimerListItem ), xReloadTime );
 1722              		.loc 1 930 0
 1723 0050 3B69     		ldr	r3, [r7, #16]
 1724 0052 FA68     		ldr	r2, [r7, #12]
 1725 0054 5A60     		str	r2, [r3, #4]
 931:..\FreeRTOS\Source/timers.c ****                     listSET_LIST_ITEM_OWNER( &( pxTimer->xTimerListItem ), pxTimer );
 1726              		.loc 1 931 0
 1727 0056 3B69     		ldr	r3, [r7, #16]
 1728 0058 3A69     		ldr	r2, [r7, #16]
 1729 005a 1A61     		str	r2, [r3, #16]
ARM GAS  C:\Users\Jason\AppData\Local\Temp\cc2RQUqt.s 			page 48


 932:..\FreeRTOS\Source/timers.c ****                     vListInsert( pxCurrentTimerList, &( pxTimer->xTimerListItem ) );
 1730              		.loc 1 932 0
 1731 005c 154B     		ldr	r3, .L144
 1732 005e 1A68     		ldr	r2, [r3]
 1733 0060 3B69     		ldr	r3, [r7, #16]
 1734 0062 0433     		adds	r3, r3, #4
 1735 0064 1900     		movs	r1, r3
 1736 0066 1000     		movs	r0, r2
 1737 0068 FFF7FEFF 		bl	vListInsert
 1738 006c 0FE0     		b	.L140
 1739              	.L141:
 933:..\FreeRTOS\Source/timers.c ****                 }
 934:..\FreeRTOS\Source/timers.c ****                 else
 935:..\FreeRTOS\Source/timers.c ****                 {
 936:..\FreeRTOS\Source/timers.c ****                     xResult = xTimerGenericCommand( pxTimer, tmrCOMMAND_START_DONT_TRACE, xNextExpi
 1740              		.loc 1 936 0
 1741 006e 7A69     		ldr	r2, [r7, #20]
 1742 0070 3869     		ldr	r0, [r7, #16]
 1743 0072 0023     		movs	r3, #0
 1744 0074 0093     		str	r3, [sp]
 1745 0076 0023     		movs	r3, #0
 1746 0078 0021     		movs	r1, #0
 1747 007a FFF7FEFF 		bl	xTimerGenericCommand
 1748 007e 0300     		movs	r3, r0
 1749 0080 BB60     		str	r3, [r7, #8]
 937:..\FreeRTOS\Source/timers.c ****                     configASSERT( xResult );
 1750              		.loc 1 937 0
 1751 0082 0D4B     		ldr	r3, .L144+4
 1752 0084 1B88     		ldrh	r3, [r3]
 1753 0086 002B     		cmp	r3, #0
 1754 0088 01D1     		bne	.L140
 1755              		.loc 1 937 0 is_stmt 0 discriminator 1
 1756              		.syntax divided
 1757              	@ 937 "..\FreeRTOS\Source\timers.c" 1
 1758 008a 72B6     		 cpsid i 
 1759              	@ 0 "" 2
 1760              		.thumb
 1761              		.syntax unified
 1762              	.L142:
 1763 008c FEE7     		b	.L142
 1764              	.L140:
 904:..\FreeRTOS\Source/timers.c ****         {
 1765              		.loc 1 904 0 is_stmt 1
 1766 008e 094B     		ldr	r3, .L144
 1767 0090 1B68     		ldr	r3, [r3]
 1768 0092 1B68     		ldr	r3, [r3]
 1769 0094 002B     		cmp	r3, #0
 1770 0096 B7D1     		bne	.L143
 938:..\FreeRTOS\Source/timers.c ****                     ( void ) xResult;
 939:..\FreeRTOS\Source/timers.c ****                 }
 940:..\FreeRTOS\Source/timers.c ****             }
 941:..\FreeRTOS\Source/timers.c ****             else
 942:..\FreeRTOS\Source/timers.c ****             {
 943:..\FreeRTOS\Source/timers.c ****                 mtCOVERAGE_TEST_MARKER();
 944:..\FreeRTOS\Source/timers.c ****             }
 945:..\FreeRTOS\Source/timers.c ****         }
 946:..\FreeRTOS\Source/timers.c **** 
ARM GAS  C:\Users\Jason\AppData\Local\Temp\cc2RQUqt.s 			page 49


 947:..\FreeRTOS\Source/timers.c ****         pxTemp = pxCurrentTimerList;
 1771              		.loc 1 947 0
 1772 0098 064B     		ldr	r3, .L144
 1773 009a 1B68     		ldr	r3, [r3]
 1774 009c 7B60     		str	r3, [r7, #4]
 948:..\FreeRTOS\Source/timers.c ****         pxCurrentTimerList = pxOverflowTimerList;
 1775              		.loc 1 948 0
 1776 009e 074B     		ldr	r3, .L144+8
 1777 00a0 1A68     		ldr	r2, [r3]
 1778 00a2 044B     		ldr	r3, .L144
 1779 00a4 1A60     		str	r2, [r3]
 949:..\FreeRTOS\Source/timers.c ****         pxOverflowTimerList = pxTemp;
 1780              		.loc 1 949 0
 1781 00a6 054B     		ldr	r3, .L144+8
 1782 00a8 7A68     		ldr	r2, [r7, #4]
 1783 00aa 1A60     		str	r2, [r3]
 950:..\FreeRTOS\Source/timers.c ****     }
 1784              		.loc 1 950 0
 1785 00ac C046     		nop
 1786 00ae BD46     		mov	sp, r7
 1787 00b0 06B0     		add	sp, sp, #24
 1788              		@ sp needed
 1789 00b2 80BD     		pop	{r7, pc}
 1790              	.L145:
 1791              		.align	2
 1792              	.L144:
 1793 00b4 28000000 		.word	pxCurrentTimerList
 1794 00b8 00000000 		.word	x
 1795 00bc 2C000000 		.word	pxOverflowTimerList
 1796              		.cfi_endproc
 1797              	.LFE18:
 1798              		.size	prvSwitchTimerLists, .-prvSwitchTimerLists
 1799              		.section	.rodata
 1800              		.align	2
 1801              	.LC38:
 1802 0030 546D7251 		.ascii	"TmrQ\000"
 1802      00
 1803              		.section	.text.prvCheckForValidListAndQueue,"ax",%progbits
 1804              		.align	2
 1805              		.code	16
 1806              		.thumb_func
 1807              		.type	prvCheckForValidListAndQueue, %function
 1808              	prvCheckForValidListAndQueue:
 1809              	.LFB19:
 951:..\FreeRTOS\Source/timers.c **** /*-----------------------------------------------------------*/
 952:..\FreeRTOS\Source/timers.c **** 
 953:..\FreeRTOS\Source/timers.c ****     static void prvCheckForValidListAndQueue( void )
 954:..\FreeRTOS\Source/timers.c ****     {
 1810              		.loc 1 954 0
 1811              		.cfi_startproc
 1812              		@ args = 0, pretend = 0, frame = 0
 1813              		@ frame_needed = 1, uses_anonymous_args = 0
 1814 0000 80B5     		push	{r7, lr}
 1815              		.cfi_def_cfa_offset 8
 1816              		.cfi_offset 7, -8
 1817              		.cfi_offset 14, -4
 1818 0002 82B0     		sub	sp, sp, #8
ARM GAS  C:\Users\Jason\AppData\Local\Temp\cc2RQUqt.s 			page 50


 1819              		.cfi_def_cfa_offset 16
 1820 0004 02AF     		add	r7, sp, #8
 1821              		.cfi_def_cfa 7, 8
 955:..\FreeRTOS\Source/timers.c ****         /* Check that the list from which active timers are referenced, and the
 956:..\FreeRTOS\Source/timers.c ****          * queue used to communicate with the timer service, have been
 957:..\FreeRTOS\Source/timers.c ****          * initialised. */
 958:..\FreeRTOS\Source/timers.c ****         taskENTER_CRITICAL();
 1822              		.loc 1 958 0
 1823 0006 FFF7FEFF 		bl	vPortEnterCritical
 959:..\FreeRTOS\Source/timers.c ****         {
 960:..\FreeRTOS\Source/timers.c ****             if( xTimerQueue == NULL )
 1824              		.loc 1 960 0
 1825 000a 174B     		ldr	r3, .L148
 1826 000c 1B68     		ldr	r3, [r3]
 1827 000e 002B     		cmp	r3, #0
 1828 0010 24D1     		bne	.L147
 961:..\FreeRTOS\Source/timers.c ****             {
 962:..\FreeRTOS\Source/timers.c ****                 vListInitialise( &xActiveTimerList1 );
 1829              		.loc 1 962 0
 1830 0012 164B     		ldr	r3, .L148+4
 1831 0014 1800     		movs	r0, r3
 1832 0016 FFF7FEFF 		bl	vListInitialise
 963:..\FreeRTOS\Source/timers.c ****                 vListInitialise( &xActiveTimerList2 );
 1833              		.loc 1 963 0
 1834 001a 154B     		ldr	r3, .L148+8
 1835 001c 1800     		movs	r0, r3
 1836 001e FFF7FEFF 		bl	vListInitialise
 964:..\FreeRTOS\Source/timers.c ****                 pxCurrentTimerList = &xActiveTimerList1;
 1837              		.loc 1 964 0
 1838 0022 144B     		ldr	r3, .L148+12
 1839 0024 114A     		ldr	r2, .L148+4
 1840 0026 1A60     		str	r2, [r3]
 965:..\FreeRTOS\Source/timers.c ****                 pxOverflowTimerList = &xActiveTimerList2;
 1841              		.loc 1 965 0
 1842 0028 134B     		ldr	r3, .L148+16
 1843 002a 114A     		ldr	r2, .L148+8
 1844 002c 1A60     		str	r2, [r3]
 1845              	.LBB4:
 966:..\FreeRTOS\Source/timers.c **** 
 967:..\FreeRTOS\Source/timers.c ****                 #if ( configSUPPORT_STATIC_ALLOCATION == 1 )
 968:..\FreeRTOS\Source/timers.c ****                     {
 969:..\FreeRTOS\Source/timers.c ****                         /* The timer queue is allocated statically in case
 970:..\FreeRTOS\Source/timers.c ****                          * configSUPPORT_DYNAMIC_ALLOCATION is 0. */
 971:..\FreeRTOS\Source/timers.c ****                         PRIVILEGED_DATA static StaticQueue_t xStaticTimerQueue;                    
 972:..\FreeRTOS\Source/timers.c ****                         PRIVILEGED_DATA static uint8_t ucStaticTimerQueueStorage[ ( size_t ) config
 973:..\FreeRTOS\Source/timers.c **** 
 974:..\FreeRTOS\Source/timers.c ****                         xTimerQueue = xQueueCreateStatic( ( UBaseType_t ) configTIMER_QUEUE_LENGTH,
 1846              		.loc 1 974 0
 1847 002e 1349     		ldr	r1, .L148+20
 1848 0030 134A     		ldr	r2, .L148+24
 1849 0032 0023     		movs	r3, #0
 1850 0034 0093     		str	r3, [sp]
 1851 0036 0B00     		movs	r3, r1
 1852 0038 0C21     		movs	r1, #12
 1853 003a 0A20     		movs	r0, #10
 1854 003c FFF7FEFF 		bl	xQueueGenericCreateStatic
 1855 0040 0200     		movs	r2, r0
ARM GAS  C:\Users\Jason\AppData\Local\Temp\cc2RQUqt.s 			page 51


 1856 0042 094B     		ldr	r3, .L148
 1857 0044 1A60     		str	r2, [r3]
 1858              	.LBE4:
 975:..\FreeRTOS\Source/timers.c ****                     }
 976:..\FreeRTOS\Source/timers.c ****                 #else
 977:..\FreeRTOS\Source/timers.c ****                     {
 978:..\FreeRTOS\Source/timers.c ****                         xTimerQueue = xQueueCreate( ( UBaseType_t ) configTIMER_QUEUE_LENGTH, sizeo
 979:..\FreeRTOS\Source/timers.c ****                     }
 980:..\FreeRTOS\Source/timers.c ****                 #endif /* if ( configSUPPORT_STATIC_ALLOCATION == 1 ) */
 981:..\FreeRTOS\Source/timers.c **** 
 982:..\FreeRTOS\Source/timers.c ****                 #if ( configQUEUE_REGISTRY_SIZE > 0 )
 983:..\FreeRTOS\Source/timers.c ****                     {
 984:..\FreeRTOS\Source/timers.c ****                         if( xTimerQueue != NULL )
 1859              		.loc 1 984 0
 1860 0046 084B     		ldr	r3, .L148
 1861 0048 1B68     		ldr	r3, [r3]
 1862 004a 002B     		cmp	r3, #0
 1863 004c 06D0     		beq	.L147
 985:..\FreeRTOS\Source/timers.c ****                         {
 986:..\FreeRTOS\Source/timers.c ****                             vQueueAddToRegistry( xTimerQueue, "TmrQ" );
 1864              		.loc 1 986 0
 1865 004e 064B     		ldr	r3, .L148
 1866 0050 1B68     		ldr	r3, [r3]
 1867 0052 0C4A     		ldr	r2, .L148+28
 1868 0054 1100     		movs	r1, r2
 1869 0056 1800     		movs	r0, r3
 1870 0058 FFF7FEFF 		bl	vQueueAddToRegistry
 1871              	.L147:
 987:..\FreeRTOS\Source/timers.c ****                         }
 988:..\FreeRTOS\Source/timers.c ****                         else
 989:..\FreeRTOS\Source/timers.c ****                         {
 990:..\FreeRTOS\Source/timers.c ****                             mtCOVERAGE_TEST_MARKER();
 991:..\FreeRTOS\Source/timers.c ****                         }
 992:..\FreeRTOS\Source/timers.c ****                     }
 993:..\FreeRTOS\Source/timers.c ****                 #endif /* configQUEUE_REGISTRY_SIZE */
 994:..\FreeRTOS\Source/timers.c ****             }
 995:..\FreeRTOS\Source/timers.c ****             else
 996:..\FreeRTOS\Source/timers.c ****             {
 997:..\FreeRTOS\Source/timers.c ****                 mtCOVERAGE_TEST_MARKER();
 998:..\FreeRTOS\Source/timers.c ****             }
 999:..\FreeRTOS\Source/timers.c ****         }
1000:..\FreeRTOS\Source/timers.c ****         taskEXIT_CRITICAL();
 1872              		.loc 1 1000 0
 1873 005c FFF7FEFF 		bl	vPortExitCritical
1001:..\FreeRTOS\Source/timers.c ****     }
 1874              		.loc 1 1001 0
 1875 0060 C046     		nop
 1876 0062 BD46     		mov	sp, r7
 1877              		@ sp needed
 1878 0064 80BD     		pop	{r7, pc}
 1879              	.L149:
 1880 0066 C046     		.align	2
 1881              	.L148:
 1882 0068 30000000 		.word	xTimerQueue
 1883 006c 00000000 		.word	xActiveTimerList1
 1884 0070 14000000 		.word	xActiveTimerList2
 1885 0074 28000000 		.word	pxCurrentTimerList
ARM GAS  C:\Users\Jason\AppData\Local\Temp\cc2RQUqt.s 			page 52


 1886 0078 2C000000 		.word	pxOverflowTimerList
 1887 007c B4000000 		.word	xStaticTimerQueue.5581
 1888 0080 3C000000 		.word	ucStaticTimerQueueStorage.5582
 1889 0084 30000000 		.word	.LC38
 1890              		.cfi_endproc
 1891              	.LFE19:
 1892              		.size	prvCheckForValidListAndQueue, .-prvCheckForValidListAndQueue
 1893              		.section	.text.xTimerIsTimerActive,"ax",%progbits
 1894              		.align	2
 1895              		.global	xTimerIsTimerActive
 1896              		.code	16
 1897              		.thumb_func
 1898              		.type	xTimerIsTimerActive, %function
 1899              	xTimerIsTimerActive:
 1900              	.LFB20:
1002:..\FreeRTOS\Source/timers.c **** /*-----------------------------------------------------------*/
1003:..\FreeRTOS\Source/timers.c **** 
1004:..\FreeRTOS\Source/timers.c ****     BaseType_t xTimerIsTimerActive( TimerHandle_t xTimer )
1005:..\FreeRTOS\Source/timers.c ****     {
 1901              		.loc 1 1005 0
 1902              		.cfi_startproc
 1903              		@ args = 0, pretend = 0, frame = 16
 1904              		@ frame_needed = 1, uses_anonymous_args = 0
 1905 0000 80B5     		push	{r7, lr}
 1906              		.cfi_def_cfa_offset 8
 1907              		.cfi_offset 7, -8
 1908              		.cfi_offset 14, -4
 1909 0002 84B0     		sub	sp, sp, #16
 1910              		.cfi_def_cfa_offset 24
 1911 0004 00AF     		add	r7, sp, #0
 1912              		.cfi_def_cfa_register 7
 1913 0006 7860     		str	r0, [r7, #4]
1006:..\FreeRTOS\Source/timers.c ****         BaseType_t xReturn;
1007:..\FreeRTOS\Source/timers.c ****         Timer_t * pxTimer = xTimer;
 1914              		.loc 1 1007 0
 1915 0008 7B68     		ldr	r3, [r7, #4]
 1916 000a BB60     		str	r3, [r7, #8]
1008:..\FreeRTOS\Source/timers.c **** 
1009:..\FreeRTOS\Source/timers.c ****         configASSERT( xTimer );
 1917              		.loc 1 1009 0
 1918 000c 0D4B     		ldr	r3, .L156
 1919 000e 1B88     		ldrh	r3, [r3]
 1920 0010 002B     		cmp	r3, #0
 1921 0012 01D1     		bne	.L151
 1922              		.loc 1 1009 0 is_stmt 0 discriminator 1
 1923              		.syntax divided
 1924              	@ 1009 "..\FreeRTOS\Source\timers.c" 1
 1925 0014 72B6     		 cpsid i 
 1926              	@ 0 "" 2
 1927              		.thumb
 1928              		.syntax unified
 1929              	.L152:
 1930 0016 FEE7     		b	.L152
 1931              	.L151:
1010:..\FreeRTOS\Source/timers.c **** 
1011:..\FreeRTOS\Source/timers.c ****         /* Is the timer in the list of active timers? */
1012:..\FreeRTOS\Source/timers.c ****         taskENTER_CRITICAL();
ARM GAS  C:\Users\Jason\AppData\Local\Temp\cc2RQUqt.s 			page 53


 1932              		.loc 1 1012 0 is_stmt 1
 1933 0018 FFF7FEFF 		bl	vPortEnterCritical
1013:..\FreeRTOS\Source/timers.c ****         {
1014:..\FreeRTOS\Source/timers.c ****             if( ( pxTimer->ucStatus & tmrSTATUS_IS_ACTIVE ) == 0 )
 1934              		.loc 1 1014 0
 1935 001c BB68     		ldr	r3, [r7, #8]
 1936 001e 2422     		movs	r2, #36
 1937 0020 9B5C     		ldrb	r3, [r3, r2]
 1938 0022 1A00     		movs	r2, r3
 1939 0024 0123     		movs	r3, #1
 1940 0026 1340     		ands	r3, r2
 1941 0028 02D1     		bne	.L153
1015:..\FreeRTOS\Source/timers.c ****             {
1016:..\FreeRTOS\Source/timers.c ****                 xReturn = pdFALSE;
 1942              		.loc 1 1016 0
 1943 002a 0023     		movs	r3, #0
 1944 002c FB60     		str	r3, [r7, #12]
 1945 002e 01E0     		b	.L154
 1946              	.L153:
1017:..\FreeRTOS\Source/timers.c ****             }
1018:..\FreeRTOS\Source/timers.c ****             else
1019:..\FreeRTOS\Source/timers.c ****             {
1020:..\FreeRTOS\Source/timers.c ****                 xReturn = pdTRUE;
 1947              		.loc 1 1020 0
 1948 0030 0123     		movs	r3, #1
 1949 0032 FB60     		str	r3, [r7, #12]
 1950              	.L154:
1021:..\FreeRTOS\Source/timers.c ****             }
1022:..\FreeRTOS\Source/timers.c ****         }
1023:..\FreeRTOS\Source/timers.c ****         taskEXIT_CRITICAL();
 1951              		.loc 1 1023 0
 1952 0034 FFF7FEFF 		bl	vPortExitCritical
1024:..\FreeRTOS\Source/timers.c **** 
1025:..\FreeRTOS\Source/timers.c ****         return xReturn;
 1953              		.loc 1 1025 0
 1954 0038 FB68     		ldr	r3, [r7, #12]
1026:..\FreeRTOS\Source/timers.c ****     } /*lint !e818 Can't be pointer to const due to the typedef. */
 1955              		.loc 1 1026 0
 1956 003a 1800     		movs	r0, r3
 1957 003c BD46     		mov	sp, r7
 1958 003e 04B0     		add	sp, sp, #16
 1959              		@ sp needed
 1960 0040 80BD     		pop	{r7, pc}
 1961              	.L157:
 1962 0042 C046     		.align	2
 1963              	.L156:
 1964 0044 00000000 		.word	x
 1965              		.cfi_endproc
 1966              	.LFE20:
 1967              		.size	xTimerIsTimerActive, .-xTimerIsTimerActive
 1968              		.section	.text.pvTimerGetTimerID,"ax",%progbits
 1969              		.align	2
 1970              		.global	pvTimerGetTimerID
 1971              		.code	16
 1972              		.thumb_func
 1973              		.type	pvTimerGetTimerID, %function
 1974              	pvTimerGetTimerID:
ARM GAS  C:\Users\Jason\AppData\Local\Temp\cc2RQUqt.s 			page 54


 1975              	.LFB21:
1027:..\FreeRTOS\Source/timers.c **** /*-----------------------------------------------------------*/
1028:..\FreeRTOS\Source/timers.c **** 
1029:..\FreeRTOS\Source/timers.c ****     void * pvTimerGetTimerID( const TimerHandle_t xTimer )
1030:..\FreeRTOS\Source/timers.c ****     {
 1976              		.loc 1 1030 0
 1977              		.cfi_startproc
 1978              		@ args = 0, pretend = 0, frame = 16
 1979              		@ frame_needed = 1, uses_anonymous_args = 0
 1980 0000 80B5     		push	{r7, lr}
 1981              		.cfi_def_cfa_offset 8
 1982              		.cfi_offset 7, -8
 1983              		.cfi_offset 14, -4
 1984 0002 84B0     		sub	sp, sp, #16
 1985              		.cfi_def_cfa_offset 24
 1986 0004 00AF     		add	r7, sp, #0
 1987              		.cfi_def_cfa_register 7
 1988 0006 7860     		str	r0, [r7, #4]
1031:..\FreeRTOS\Source/timers.c ****         Timer_t * const pxTimer = xTimer;
 1989              		.loc 1 1031 0
 1990 0008 7B68     		ldr	r3, [r7, #4]
 1991 000a FB60     		str	r3, [r7, #12]
1032:..\FreeRTOS\Source/timers.c ****         void * pvReturn;
1033:..\FreeRTOS\Source/timers.c **** 
1034:..\FreeRTOS\Source/timers.c ****         configASSERT( xTimer );
 1992              		.loc 1 1034 0
 1993 000c 084B     		ldr	r3, .L162
 1994 000e 1B88     		ldrh	r3, [r3]
 1995 0010 002B     		cmp	r3, #0
 1996 0012 01D1     		bne	.L159
 1997              		.loc 1 1034 0 is_stmt 0 discriminator 1
 1998              		.syntax divided
 1999              	@ 1034 "..\FreeRTOS\Source\timers.c" 1
 2000 0014 72B6     		 cpsid i 
 2001              	@ 0 "" 2
 2002              		.thumb
 2003              		.syntax unified
 2004              	.L160:
 2005 0016 FEE7     		b	.L160
 2006              	.L159:
1035:..\FreeRTOS\Source/timers.c **** 
1036:..\FreeRTOS\Source/timers.c ****         taskENTER_CRITICAL();
 2007              		.loc 1 1036 0 is_stmt 1
 2008 0018 FFF7FEFF 		bl	vPortEnterCritical
1037:..\FreeRTOS\Source/timers.c ****         {
1038:..\FreeRTOS\Source/timers.c ****             pvReturn = pxTimer->pvTimerID;
 2009              		.loc 1 1038 0
 2010 001c FB68     		ldr	r3, [r7, #12]
 2011 001e DB69     		ldr	r3, [r3, #28]
 2012 0020 BB60     		str	r3, [r7, #8]
1039:..\FreeRTOS\Source/timers.c ****         }
1040:..\FreeRTOS\Source/timers.c ****         taskEXIT_CRITICAL();
 2013              		.loc 1 1040 0
 2014 0022 FFF7FEFF 		bl	vPortExitCritical
1041:..\FreeRTOS\Source/timers.c **** 
1042:..\FreeRTOS\Source/timers.c ****         return pvReturn;
 2015              		.loc 1 1042 0
ARM GAS  C:\Users\Jason\AppData\Local\Temp\cc2RQUqt.s 			page 55


 2016 0026 BB68     		ldr	r3, [r7, #8]
1043:..\FreeRTOS\Source/timers.c ****     }
 2017              		.loc 1 1043 0
 2018 0028 1800     		movs	r0, r3
 2019 002a BD46     		mov	sp, r7
 2020 002c 04B0     		add	sp, sp, #16
 2021              		@ sp needed
 2022 002e 80BD     		pop	{r7, pc}
 2023              	.L163:
 2024              		.align	2
 2025              	.L162:
 2026 0030 00000000 		.word	x
 2027              		.cfi_endproc
 2028              	.LFE21:
 2029              		.size	pvTimerGetTimerID, .-pvTimerGetTimerID
 2030              		.section	.text.vTimerSetTimerID,"ax",%progbits
 2031              		.align	2
 2032              		.global	vTimerSetTimerID
 2033              		.code	16
 2034              		.thumb_func
 2035              		.type	vTimerSetTimerID, %function
 2036              	vTimerSetTimerID:
 2037              	.LFB22:
1044:..\FreeRTOS\Source/timers.c **** /*-----------------------------------------------------------*/
1045:..\FreeRTOS\Source/timers.c **** 
1046:..\FreeRTOS\Source/timers.c ****     void vTimerSetTimerID( TimerHandle_t xTimer,
1047:..\FreeRTOS\Source/timers.c ****                            void * pvNewID )
1048:..\FreeRTOS\Source/timers.c ****     {
 2038              		.loc 1 1048 0
 2039              		.cfi_startproc
 2040              		@ args = 0, pretend = 0, frame = 16
 2041              		@ frame_needed = 1, uses_anonymous_args = 0
 2042 0000 80B5     		push	{r7, lr}
 2043              		.cfi_def_cfa_offset 8
 2044              		.cfi_offset 7, -8
 2045              		.cfi_offset 14, -4
 2046 0002 84B0     		sub	sp, sp, #16
 2047              		.cfi_def_cfa_offset 24
 2048 0004 00AF     		add	r7, sp, #0
 2049              		.cfi_def_cfa_register 7
 2050 0006 7860     		str	r0, [r7, #4]
 2051 0008 3960     		str	r1, [r7]
1049:..\FreeRTOS\Source/timers.c ****         Timer_t * const pxTimer = xTimer;
 2052              		.loc 1 1049 0
 2053 000a 7B68     		ldr	r3, [r7, #4]
 2054 000c FB60     		str	r3, [r7, #12]
1050:..\FreeRTOS\Source/timers.c **** 
1051:..\FreeRTOS\Source/timers.c ****         configASSERT( xTimer );
 2055              		.loc 1 1051 0
 2056 000e 084B     		ldr	r3, .L167
 2057 0010 1B88     		ldrh	r3, [r3]
 2058 0012 002B     		cmp	r3, #0
 2059 0014 01D1     		bne	.L165
 2060              		.loc 1 1051 0 is_stmt 0 discriminator 1
 2061              		.syntax divided
 2062              	@ 1051 "..\FreeRTOS\Source\timers.c" 1
 2063 0016 72B6     		 cpsid i 
ARM GAS  C:\Users\Jason\AppData\Local\Temp\cc2RQUqt.s 			page 56


 2064              	@ 0 "" 2
 2065              		.thumb
 2066              		.syntax unified
 2067              	.L166:
 2068 0018 FEE7     		b	.L166
 2069              	.L165:
1052:..\FreeRTOS\Source/timers.c **** 
1053:..\FreeRTOS\Source/timers.c ****         taskENTER_CRITICAL();
 2070              		.loc 1 1053 0 is_stmt 1
 2071 001a FFF7FEFF 		bl	vPortEnterCritical
1054:..\FreeRTOS\Source/timers.c ****         {
1055:..\FreeRTOS\Source/timers.c ****             pxTimer->pvTimerID = pvNewID;
 2072              		.loc 1 1055 0
 2073 001e FB68     		ldr	r3, [r7, #12]
 2074 0020 3A68     		ldr	r2, [r7]
 2075 0022 DA61     		str	r2, [r3, #28]
1056:..\FreeRTOS\Source/timers.c ****         }
1057:..\FreeRTOS\Source/timers.c ****         taskEXIT_CRITICAL();
 2076              		.loc 1 1057 0
 2077 0024 FFF7FEFF 		bl	vPortExitCritical
1058:..\FreeRTOS\Source/timers.c ****     }
 2078              		.loc 1 1058 0
 2079 0028 C046     		nop
 2080 002a BD46     		mov	sp, r7
 2081 002c 04B0     		add	sp, sp, #16
 2082              		@ sp needed
 2083 002e 80BD     		pop	{r7, pc}
 2084              	.L168:
 2085              		.align	2
 2086              	.L167:
 2087 0030 00000000 		.word	x
 2088              		.cfi_endproc
 2089              	.LFE22:
 2090              		.size	vTimerSetTimerID, .-vTimerSetTimerID
 2091              		.bss
 2092              		.align	2
 2093              	xLastTime.5533:
 2094 0038 00000000 		.space	4
 2095              		.align	2
 2096              	ucStaticTimerQueueStorage.5582:
 2097 003c 00000000 		.space	120
 2097      00000000 
 2097      00000000 
 2097      00000000 
 2097      00000000 
 2098              		.align	2
 2099              	xStaticTimerQueue.5581:
 2100 00b4 00000000 		.space	72
 2100      00000000 
 2100      00000000 
 2100      00000000 
 2100      00000000 
 2101              		.text
 2102              	.Letext0:
 2103              		.file 2 "d:\\program files (x86)\\cypress\\psoc creator\\4.2\\psoc creator\\import\\gnu\\arm\\5.4.
 2104              		.file 3 "d:\\program files (x86)\\cypress\\psoc creator\\4.2\\psoc creator\\import\\gnu\\arm\\5.4.
 2105              		.file 4 "d:\\program files (x86)\\cypress\\psoc creator\\4.2\\psoc creator\\import\\gnu\\arm\\5.4.
ARM GAS  C:\Users\Jason\AppData\Local\Temp\cc2RQUqt.s 			page 57


 2106              		.file 5 "..\\FreeRTOS\\Source\\include/projdefs.h"
 2107              		.file 6 "..\\FreeRTOS\\Source\\portable\\GCC\\ARM_CM0/portmacro.h"
 2108              		.file 7 "..\\FreeRTOS\\Source\\include/FreeRTOS.h"
 2109              		.file 8 "..\\FreeRTOS\\Source\\include/list.h"
 2110              		.file 9 "..\\FreeRTOS\\Source\\include/task.h"
 2111              		.file 10 "..\\FreeRTOS\\Source\\include/queue.h"
 2112              		.file 11 "..\\FreeRTOS\\Source\\include/timers.h"
 2113              		.file 12 "./FreeRTOSConfig.h"